Archive member included because of file (symbol)

/usr/lib/gcc/x86_64-linux-gnu/4.6/../../../../lib/librte_pmd_e1000.a(igb_ethdev.o)
                              main.o (rte_igb_pmd_init)
/usr/lib/gcc/x86_64-linux-gnu/4.6/../../../../lib/librte_pmd_e1000.a(igb_rxtx.o)
                              /usr/lib/gcc/x86_64-linux-gnu/4.6/../../../../lib/librte_pmd_e1000.a(igb_ethdev.o) (eth_igb_recv_pkts)
/usr/lib/gcc/x86_64-linux-gnu/4.6/../../../../lib/librte_pmd_e1000.a(em_ethdev.o)
                              main.o (rte_em_pmd_init)
/usr/lib/gcc/x86_64-linux-gnu/4.6/../../../../lib/librte_pmd_e1000.a(em_rxtx.o)
                              /usr/lib/gcc/x86_64-linux-gnu/4.6/../../../../lib/librte_pmd_e1000.a(em_ethdev.o) (eth_em_recv_pkts)
/usr/lib/gcc/x86_64-linux-gnu/4.6/../../../../lib/librte_pmd_e1000.a(igb_pf.o)
                              /usr/lib/gcc/x86_64-linux-gnu/4.6/../../../../lib/librte_pmd_e1000.a(igb_ethdev.o) (igb_pf_host_init)
/usr/lib/gcc/x86_64-linux-gnu/4.6/../../../../lib/librte_pmd_e1000.a(e1000_82541.o)
                              /usr/lib/gcc/x86_64-linux-gnu/4.6/../../../../lib/librte_pmd_e1000.a(em_ethdev.o) (e1000_init_script_state_82541)
/usr/lib/gcc/x86_64-linux-gnu/4.6/../../../../lib/librte_pmd_e1000.a(e1000_82543.o)
                              /usr/lib/gcc/x86_64-linux-gnu/4.6/../../../../lib/librte_pmd_e1000.a(em_ethdev.o) (e1000_set_tbi_compatibility_82543)
/usr/lib/gcc/x86_64-linux-gnu/4.6/../../../../lib/librte_pmd_e1000.a(e1000_82571.o)
                              /usr/lib/gcc/x86_64-linux-gnu/4.6/../../../../lib/librte_pmd_e1000.a(em_ethdev.o) (e1000_set_laa_state_82571)
/usr/lib/gcc/x86_64-linux-gnu/4.6/../../../../lib/librte_pmd_e1000.a(e1000_82575.o)
                              /usr/lib/gcc/x86_64-linux-gnu/4.6/../../../../lib/librte_pmd_e1000.a(igb_pf.o) (e1000_vmdq_set_anti_spoofing_pf)
/usr/lib/gcc/x86_64-linux-gnu/4.6/../../../../lib/librte_pmd_e1000.a(e1000_i210.o)
                              /usr/lib/gcc/x86_64-linux-gnu/4.6/../../../../lib/librte_pmd_e1000.a(e1000_82575.o) (e1000_acquire_swfw_sync_i210)
/usr/lib/gcc/x86_64-linux-gnu/4.6/../../../../lib/librte_pmd_e1000.a(e1000_api.o)
                              /usr/lib/gcc/x86_64-linux-gnu/4.6/../../../../lib/librte_pmd_e1000.a(igb_ethdev.o) (e1000_set_mac_type)
/usr/lib/gcc/x86_64-linux-gnu/4.6/../../../../lib/librte_pmd_e1000.a(e1000_ich8lan.o)
                              /usr/lib/gcc/x86_64-linux-gnu/4.6/../../../../lib/librte_pmd_e1000.a(e1000_api.o) (e1000_init_function_pointers_ich8lan)
/usr/lib/gcc/x86_64-linux-gnu/4.6/../../../../lib/librte_pmd_e1000.a(e1000_mac.o)
                              /usr/lib/gcc/x86_64-linux-gnu/4.6/../../../../lib/librte_pmd_e1000.a(e1000_i210.o) (e1000_null_ops_generic)
/usr/lib/gcc/x86_64-linux-gnu/4.6/../../../../lib/librte_pmd_e1000.a(e1000_manage.o)
                              /usr/lib/gcc/x86_64-linux-gnu/4.6/../../../../lib/librte_pmd_e1000.a(e1000_mac.o) (e1000_mng_enable_host_if_generic)
/usr/lib/gcc/x86_64-linux-gnu/4.6/../../../../lib/librte_pmd_e1000.a(e1000_mbx.o)
                              /usr/lib/gcc/x86_64-linux-gnu/4.6/../../../../lib/librte_pmd_e1000.a(igb_pf.o) (e1000_read_mbx)
/usr/lib/gcc/x86_64-linux-gnu/4.6/../../../../lib/librte_pmd_e1000.a(e1000_nvm.o)
                              /usr/lib/gcc/x86_64-linux-gnu/4.6/../../../../lib/librte_pmd_e1000.a(e1000_82575.o) (e1000_null_read_nvm)
/usr/lib/gcc/x86_64-linux-gnu/4.6/../../../../lib/librte_pmd_e1000.a(e1000_osdep.o)
                              /usr/lib/gcc/x86_64-linux-gnu/4.6/../../../../lib/librte_pmd_e1000.a(e1000_mac.o) (e1000_write_pci_cfg)
/usr/lib/gcc/x86_64-linux-gnu/4.6/../../../../lib/librte_pmd_e1000.a(e1000_phy.o)
                              /usr/lib/gcc/x86_64-linux-gnu/4.6/../../../../lib/librte_pmd_e1000.a(e1000_api.o) (e1000_init_phy_ops_generic)
/usr/lib/gcc/x86_64-linux-gnu/4.6/../../../../lib/librte_pmd_e1000.a(e1000_vf.o)
                              /usr/lib/gcc/x86_64-linux-gnu/4.6/../../../../lib/librte_pmd_e1000.a(e1000_api.o) (e1000_init_function_pointers_vf)
/usr/lib/gcc/x86_64-linux-gnu/4.6/../../../../lib/librte_pmd_e1000.a(e1000_80003es2lan.o)
                              /usr/lib/gcc/x86_64-linux-gnu/4.6/../../../../lib/librte_pmd_e1000.a(e1000_api.o) (e1000_init_function_pointers_80003es2lan)
/usr/lib/gcc/x86_64-linux-gnu/4.6/../../../../lib/librte_pmd_e1000.a(e1000_82540.o)
                              /usr/lib/gcc/x86_64-linux-gnu/4.6/../../../../lib/librte_pmd_e1000.a(e1000_api.o) (e1000_init_function_pointers_82540)
/usr/lib/gcc/x86_64-linux-gnu/4.6/../../../../lib/librte_pmd_e1000.a(e1000_82542.o)
                              /usr/lib/gcc/x86_64-linux-gnu/4.6/../../../../lib/librte_pmd_e1000.a(e1000_api.o) (e1000_init_function_pointers_82542)
/usr/lib/gcc/x86_64-linux-gnu/4.6/../../../../lib/librte_pmd_ixgbe.a(ixgbe_ethdev.o)
                              main.o (rte_ixgbe_pmd_init)
/usr/lib/gcc/x86_64-linux-gnu/4.6/../../../../lib/librte_pmd_ixgbe.a(ixgbe_fdir.o)
                              /usr/lib/gcc/x86_64-linux-gnu/4.6/../../../../lib/librte_pmd_ixgbe.a(ixgbe_ethdev.o) (ixgbe_fdir_configure)
/usr/lib/gcc/x86_64-linux-gnu/4.6/../../../../lib/librte_pmd_ixgbe.a(ixgbe_pf.o)
                              /usr/lib/gcc/x86_64-linux-gnu/4.6/../../../../lib/librte_pmd_ixgbe.a(ixgbe_ethdev.o) (ixgbe_pf_host_init)
/usr/lib/gcc/x86_64-linux-gnu/4.6/../../../../lib/librte_pmd_ixgbe.a(ixgbe_common.o)
                              /usr/lib/gcc/x86_64-linux-gnu/4.6/../../../../lib/librte_pmd_ixgbe.a(ixgbe_ethdev.o) (ixgbe_fc_autoneg)
/usr/lib/gcc/x86_64-linux-gnu/4.6/../../../../lib/librte_pmd_ixgbe.a(ixgbe_82599.o)
                              /usr/lib/gcc/x86_64-linux-gnu/4.6/../../../../lib/librte_pmd_ixgbe.a(ixgbe_fdir.o) (ixgbe_reinit_fdir_tables_82599)
/usr/lib/gcc/x86_64-linux-gnu/4.6/../../../../lib/librte_pmd_ixgbe.a(ixgbe_phy.o)
                              /usr/lib/gcc/x86_64-linux-gnu/4.6/../../../../lib/librte_pmd_ixgbe.a(ixgbe_82599.o) (ixgbe_identify_phy_generic)
/usr/lib/gcc/x86_64-linux-gnu/4.6/../../../../lib/librte_pmd_ixgbe.a(ixgbe_api.o)
                              /usr/lib/gcc/x86_64-linux-gnu/4.6/../../../../lib/librte_pmd_ixgbe.a(ixgbe_ethdev.o) (ixgbe_init_shared_code)
/usr/lib/gcc/x86_64-linux-gnu/4.6/../../../../lib/librte_pmd_ixgbe.a(ixgbe_vf.o)
                              /usr/lib/gcc/x86_64-linux-gnu/4.6/../../../../lib/librte_pmd_ixgbe.a(ixgbe_api.o) (ixgbe_init_ops_vf)
/usr/lib/gcc/x86_64-linux-gnu/4.6/../../../../lib/librte_pmd_ixgbe.a(ixgbe_dcb.o)
                              /usr/lib/gcc/x86_64-linux-gnu/4.6/../../../../lib/librte_pmd_ixgbe.a(ixgbe_ethdev.o) (ixgbe_dcb_unpack_map_cee)
/usr/lib/gcc/x86_64-linux-gnu/4.6/../../../../lib/librte_pmd_ixgbe.a(ixgbe_dcb_82599.o)
                              /usr/lib/gcc/x86_64-linux-gnu/4.6/../../../../lib/librte_pmd_ixgbe.a(ixgbe_dcb.o) (ixgbe_dcb_get_tc_stats_82599)
/usr/lib/gcc/x86_64-linux-gnu/4.6/../../../../lib/librte_pmd_ixgbe.a(ixgbe_dcb_82598.o)
                              /usr/lib/gcc/x86_64-linux-gnu/4.6/../../../../lib/librte_pmd_ixgbe.a(ixgbe_dcb.o) (ixgbe_dcb_get_tc_stats_82598)
/usr/lib/gcc/x86_64-linux-gnu/4.6/../../../../lib/librte_pmd_ixgbe.a(ixgbe_mbx.o)
                              /usr/lib/gcc/x86_64-linux-gnu/4.6/../../../../lib/librte_pmd_ixgbe.a(ixgbe_pf.o) (ixgbe_read_mbx)
/usr/lib/gcc/x86_64-linux-gnu/4.6/../../../../lib/librte_pmd_ixgbe.a(ixgbe_rxtx.o)
                              /usr/lib/gcc/x86_64-linux-gnu/4.6/../../../../lib/librte_pmd_ixgbe.a(ixgbe_ethdev.o) (ixgbe_recv_pkts)
/usr/lib/gcc/x86_64-linux-gnu/4.6/../../../../lib/librte_pmd_ixgbe.a(ixgbe_82598.o)
                              /usr/lib/gcc/x86_64-linux-gnu/4.6/../../../../lib/librte_pmd_ixgbe.a(ixgbe_api.o) (ixgbe_init_ops_82598)
/usr/lib/gcc/x86_64-linux-gnu/4.6/../../../../lib/librte_pmd_ixgbe.a(ixgbe_x540.o)
                              /usr/lib/gcc/x86_64-linux-gnu/4.6/../../../../lib/librte_pmd_ixgbe.a(ixgbe_api.o) (ixgbe_init_ops_X540)
/usr/lib/gcc/x86_64-linux-gnu/4.6/../../../../lib/librte_pmd_virtio.a(virtio_ethdev.o)
                              main.o (rte_virtio_pmd_init)
/usr/lib/gcc/x86_64-linux-gnu/4.6/../../../../lib/librte_pmd_virtio.a(virtqueue.o)
                              /usr/lib/gcc/x86_64-linux-gnu/4.6/../../../../lib/librte_pmd_virtio.a(virtio_ethdev.o) (virtqueue_detatch_unused)
/usr/lib/gcc/x86_64-linux-gnu/4.6/../../../../lib/librte_pmd_virtio.a(virtio_pci.o)
                              /usr/lib/gcc/x86_64-linux-gnu/4.6/../../../../lib/librte_pmd_virtio.a(virtio_ethdev.o) (vtpci_read_dev_config)
/usr/lib/gcc/x86_64-linux-gnu/4.6/../../../../lib/librte_pmd_virtio.a(virtio_rxtx.o)
                              /usr/lib/gcc/x86_64-linux-gnu/4.6/../../../../lib/librte_pmd_virtio.a(virtio_ethdev.o) (virtio_dev_rxtx_start)
/usr/lib/gcc/x86_64-linux-gnu/4.6/../../../../lib/librte_mbuf.a(rte_mbuf.o)
                              common.o (rte_pktmbuf_pool_init)
/usr/lib/gcc/x86_64-linux-gnu/4.6/../../../../lib/libethdev.a(rte_ethdev.o)
                              server.o (rte_eth_devices)
/usr/lib/gcc/x86_64-linux-gnu/4.6/../../../../lib/librte_malloc.a(rte_malloc.o)
                              /usr/lib/gcc/x86_64-linux-gnu/4.6/../../../../lib/librte_pmd_e1000.a(igb_ethdev.o) (rte_free)
/usr/lib/gcc/x86_64-linux-gnu/4.6/../../../../lib/librte_malloc.a(malloc_elem.o)
                              /usr/lib/gcc/x86_64-linux-gnu/4.6/../../../../lib/librte_malloc.a(rte_malloc.o) (malloc_elem_free)
/usr/lib/gcc/x86_64-linux-gnu/4.6/../../../../lib/librte_malloc.a(malloc_heap.o)
                              /usr/lib/gcc/x86_64-linux-gnu/4.6/../../../../lib/librte_malloc.a(rte_malloc.o) (malloc_heap_alloc)
/usr/lib/gcc/x86_64-linux-gnu/4.6/../../../../lib/librte_mempool.a(rte_mempool.o)
                              common.o (rte_mempool_create)
/usr/lib/gcc/x86_64-linux-gnu/4.6/../../../../lib/librte_ring.a(rte_ring.o)
                              /usr/lib/gcc/x86_64-linux-gnu/4.6/../../../../lib/librte_mempool.a(rte_mempool.o) (rte_ring_create)
/usr/lib/gcc/x86_64-linux-gnu/4.6/../../../../lib/librte_eal.a(eal.o)
                              main.o (rte_eal_get_configuration)
/usr/lib/gcc/x86_64-linux-gnu/4.6/../../../../lib/librte_eal.a(eal_hugepage_info.o)
                              /usr/lib/gcc/x86_64-linux-gnu/4.6/../../../../lib/librte_eal.a(eal.o) (eal_hugepage_info_init)
/usr/lib/gcc/x86_64-linux-gnu/4.6/../../../../lib/librte_eal.a(eal_memory.o)
                              /usr/lib/gcc/x86_64-linux-gnu/4.6/../../../../lib/librte_eal.a(eal.o) (rte_eal_memory_init)
/usr/lib/gcc/x86_64-linux-gnu/4.6/../../../../lib/librte_eal.a(eal_thread.o)
                              server.o (per_lcore__lcore_id)
/usr/lib/gcc/x86_64-linux-gnu/4.6/../../../../lib/librte_eal.a(eal_log.o)
                              /usr/lib/gcc/x86_64-linux-gnu/4.6/../../../../lib/librte_eal.a(eal.o) (rte_eal_log_init)
/usr/lib/gcc/x86_64-linux-gnu/4.6/../../../../lib/librte_eal.a(eal_pci.o)
                              /usr/lib/gcc/x86_64-linux-gnu/4.6/../../../../lib/librte_eal.a(eal.o) (rte_eal_pci_init)
/usr/lib/gcc/x86_64-linux-gnu/4.6/../../../../lib/librte_eal.a(eal_debug.o)
                              /usr/lib/gcc/x86_64-linux-gnu/4.6/../../../../lib/librte_pmd_e1000.a(igb_pf.o) (__rte_panic)
/usr/lib/gcc/x86_64-linux-gnu/4.6/../../../../lib/librte_eal.a(eal_lcore.o)
                              /usr/lib/gcc/x86_64-linux-gnu/4.6/../../../../lib/librte_eal.a(eal.o) (rte_eal_cpu_init)
/usr/lib/gcc/x86_64-linux-gnu/4.6/../../../../lib/librte_eal.a(eal_timer.o)
                              /usr/lib/gcc/x86_64-linux-gnu/4.6/../../../../lib/librte_pmd_e1000.a(igb_ethdev.o) (rte_delay_us)
/usr/lib/gcc/x86_64-linux-gnu/4.6/../../../../lib/librte_eal.a(eal_interrupts.o)
                              /usr/lib/gcc/x86_64-linux-gnu/4.6/../../../../lib/librte_pmd_e1000.a(igb_ethdev.o) (rte_intr_callback_register)
/usr/lib/gcc/x86_64-linux-gnu/4.6/../../../../lib/librte_eal.a(eal_alarm.o)
                              /usr/lib/gcc/x86_64-linux-gnu/4.6/../../../../lib/librte_eal.a(eal.o) (rte_eal_alarm_init)
/usr/lib/gcc/x86_64-linux-gnu/4.6/../../../../lib/librte_eal.a(eal_common_memzone.o)
                              /usr/lib/gcc/x86_64-linux-gnu/4.6/../../../../lib/librte_pmd_e1000.a(em_rxtx.o) (rte_memzone_reserve)
/usr/lib/gcc/x86_64-linux-gnu/4.6/../../../../lib/librte_eal.a(eal_common_log.o)
                              /usr/lib/gcc/x86_64-linux-gnu/4.6/../../../../lib/librte_eal.a(eal_log.o) (rte_log_add_in_history)
/usr/lib/gcc/x86_64-linux-gnu/4.6/../../../../lib/librte_eal.a(eal_common_launch.o)
                              main.o (rte_eal_wait_lcore)
/usr/lib/gcc/x86_64-linux-gnu/4.6/../../../../lib/librte_eal.a(eal_common_pci.o)
                              /usr/lib/gcc/x86_64-linux-gnu/4.6/../../../../lib/librte_eal.a(eal_pci.o) (driver_list)
/usr/lib/gcc/x86_64-linux-gnu/4.6/../../../../lib/librte_eal.a(eal_common_memory.o)
                              /usr/lib/gcc/x86_64-linux-gnu/4.6/../../../../lib/librte_eal.a(eal.o) (rte_eal_get_physmem_layout)
/usr/lib/gcc/x86_64-linux-gnu/4.6/../../../../lib/librte_eal.a(eal_common_tailqs.o)
                              /usr/lib/gcc/x86_64-linux-gnu/4.6/../../../../lib/librte_mempool.a(rte_mempool.o) (rte_eal_tailq_lookup_by_idx)
/usr/lib/gcc/x86_64-linux-gnu/4.6/../../../../lib/librte_eal.a(eal_common_errno.o)
                              /usr/lib/gcc/x86_64-linux-gnu/4.6/../../../../lib/librte_mempool.a(rte_mempool.o) (per_lcore__rte_errno)
/usr/lib/gcc/x86_64-linux-gnu/4.6/../../../../lib/librte_eal.a(eal_common_hexdump.o)
                              /usr/lib/gcc/x86_64-linux-gnu/4.6/../../../../lib/librte_mbuf.a(rte_mbuf.o) (rte_hexdump)
/usr/lib/gcc/x86_64-linux-gnu/4.6/../../../../lib/librte_eal.a(eal_common_whitelist.o)
                              /usr/lib/gcc/x86_64-linux-gnu/4.6/../../../../lib/librte_eal.a(eal.o) (eal_dev_whitelist_add_entry)
/usr/lib/gcc/x86_64-linux-gnu/4.6/../../../../lib/librte_eal.a(eal_common_nonpci_devs.o)
                              /usr/lib/gcc/x86_64-linux-gnu/4.6/../../../../lib/librte_eal.a(eal.o) (rte_eal_non_pci_ethdev_init)
/usr/lib/gcc/x86_64-linux-gnu/4.6/../../../../lib/librte_pmd_ring.a(rte_eth_ring.o)
                              /usr/lib/gcc/x86_64-linux-gnu/4.6/../../../../lib/librte_eal.a(eal_common_nonpci_devs.o) (rte_pmd_ring_init)
/usr/lib/x86_64-linux-gnu/libc_nonshared.a(elf-init.oS)
                              /usr/lib/gcc/x86_64-linux-gnu/4.6/../../../x86_64-linux-gnu/crt1.o (__libc_csu_init)

Allocating common symbols
Common symbol       size              file

rte_cycles_vmware_tsc_map
                    0x4               /usr/lib/gcc/x86_64-linux-gnu/4.6/../../../../lib/librte_eal.a(eal.o)
l2fwd_pktmbuf_pool  0x200             main.o
internal_config     0x138             /usr/lib/gcc/x86_64-linux-gnu/4.6/../../../../lib/librte_eal.a(eal.o)
driver_list         0x10              /usr/lib/gcc/x86_64-linux-gnu/4.6/../../../../lib/librte_eal.a(eal_common_pci.o)
lcore_config        0x1000            /usr/lib/gcc/x86_64-linux-gnu/4.6/../../../../lib/librte_eal.a(eal.o)
rte_eth_devices     0x800             /usr/lib/gcc/x86_64-linux-gnu/4.6/../../../../lib/libethdev.a(rte_ethdev.o)
ht_log              0x8               main.o
device_list         0x10              /usr/lib/gcc/x86_64-linux-gnu/4.6/../../../../lib/librte_eal.a(eal_common_pci.o)
client_id           0x4               main.o

Discarded input sections

 .note.GNU-stack
                0x0000000000000000        0x0 /usr/lib/gcc/x86_64-linux-gnu/4.6/../../../x86_64-linux-gnu/crt1.o
 .gnu_debuglink
                0x0000000000000000        0xc /usr/lib/gcc/x86_64-linux-gnu/4.6/../../../x86_64-linux-gnu/crt1.o
 .note.GNU-stack
                0x0000000000000000        0x0 /usr/lib/gcc/x86_64-linux-gnu/4.6/../../../x86_64-linux-gnu/crti.o
 .gnu_debuglink
                0x0000000000000000        0xc /usr/lib/gcc/x86_64-linux-gnu/4.6/../../../x86_64-linux-gnu/crti.o
 .note.GNU-stack
                0x0000000000000000        0x0 /usr/lib/gcc/x86_64-linux-gnu/4.6/crtbegin.o
 .note.GNU-stack
                0x0000000000000000        0x0 main.o
 .note.GNU-stack
                0x0000000000000000        0x0 common.o
 .note.GNU-stack
                0x0000000000000000        0x0 server.o
 .note.GNU-stack
                0x0000000000000000        0x0 client.o
 .note.GNU-stack
                0x0000000000000000        0x0 /usr/lib/gcc/x86_64-linux-gnu/4.6/../../../../lib/librte_pmd_e1000.a(igb_ethdev.o)
 .note.GNU-stack
                0x0000000000000000        0x0 /usr/lib/gcc/x86_64-linux-gnu/4.6/../../../../lib/librte_pmd_e1000.a(igb_rxtx.o)
 .note.GNU-stack
                0x0000000000000000        0x0 /usr/lib/gcc/x86_64-linux-gnu/4.6/../../../../lib/librte_pmd_e1000.a(em_ethdev.o)
 .note.GNU-stack
                0x0000000000000000        0x0 /usr/lib/gcc/x86_64-linux-gnu/4.6/../../../../lib/librte_pmd_e1000.a(em_rxtx.o)
 .note.GNU-stack
                0x0000000000000000        0x0 /usr/lib/gcc/x86_64-linux-gnu/4.6/../../../../lib/librte_pmd_e1000.a(igb_pf.o)
 .note.GNU-stack
                0x0000000000000000        0x0 /usr/lib/gcc/x86_64-linux-gnu/4.6/../../../../lib/librte_pmd_e1000.a(e1000_82541.o)
 .note.GNU-stack
                0x0000000000000000        0x0 /usr/lib/gcc/x86_64-linux-gnu/4.6/../../../../lib/librte_pmd_e1000.a(e1000_82543.o)
 .note.GNU-stack
                0x0000000000000000        0x0 /usr/lib/gcc/x86_64-linux-gnu/4.6/../../../../lib/librte_pmd_e1000.a(e1000_82571.o)
 .note.GNU-stack
                0x0000000000000000        0x0 /usr/lib/gcc/x86_64-linux-gnu/4.6/../../../../lib/librte_pmd_e1000.a(e1000_82575.o)
 .note.GNU-stack
                0x0000000000000000        0x0 /usr/lib/gcc/x86_64-linux-gnu/4.6/../../../../lib/librte_pmd_e1000.a(e1000_i210.o)
 .note.GNU-stack
                0x0000000000000000        0x0 /usr/lib/gcc/x86_64-linux-gnu/4.6/../../../../lib/librte_pmd_e1000.a(e1000_api.o)
 .note.GNU-stack
                0x0000000000000000        0x0 /usr/lib/gcc/x86_64-linux-gnu/4.6/../../../../lib/librte_pmd_e1000.a(e1000_ich8lan.o)
 .note.GNU-stack
                0x0000000000000000        0x0 /usr/lib/gcc/x86_64-linux-gnu/4.6/../../../../lib/librte_pmd_e1000.a(e1000_mac.o)
 .note.GNU-stack
                0x0000000000000000        0x0 /usr/lib/gcc/x86_64-linux-gnu/4.6/../../../../lib/librte_pmd_e1000.a(e1000_manage.o)
 .note.GNU-stack
                0x0000000000000000        0x0 /usr/lib/gcc/x86_64-linux-gnu/4.6/../../../../lib/librte_pmd_e1000.a(e1000_mbx.o)
 .note.GNU-stack
                0x0000000000000000        0x0 /usr/lib/gcc/x86_64-linux-gnu/4.6/../../../../lib/librte_pmd_e1000.a(e1000_nvm.o)
 .note.GNU-stack
                0x0000000000000000        0x0 /usr/lib/gcc/x86_64-linux-gnu/4.6/../../../../lib/librte_pmd_e1000.a(e1000_osdep.o)
 .note.GNU-stack
                0x0000000000000000        0x0 /usr/lib/gcc/x86_64-linux-gnu/4.6/../../../../lib/librte_pmd_e1000.a(e1000_phy.o)
 .note.GNU-stack
                0x0000000000000000        0x0 /usr/lib/gcc/x86_64-linux-gnu/4.6/../../../../lib/librte_pmd_e1000.a(e1000_vf.o)
 .note.GNU-stack
                0x0000000000000000        0x0 /usr/lib/gcc/x86_64-linux-gnu/4.6/../../../../lib/librte_pmd_e1000.a(e1000_80003es2lan.o)
 .note.GNU-stack
                0x0000000000000000        0x0 /usr/lib/gcc/x86_64-linux-gnu/4.6/../../../../lib/librte_pmd_e1000.a(e1000_82540.o)
 .note.GNU-stack
                0x0000000000000000        0x0 /usr/lib/gcc/x86_64-linux-gnu/4.6/../../../../lib/librte_pmd_e1000.a(e1000_82542.o)
 .note.GNU-stack
                0x0000000000000000        0x0 /usr/lib/gcc/x86_64-linux-gnu/4.6/../../../../lib/librte_pmd_ixgbe.a(ixgbe_ethdev.o)
 .note.GNU-stack
                0x0000000000000000        0x0 /usr/lib/gcc/x86_64-linux-gnu/4.6/../../../../lib/librte_pmd_ixgbe.a(ixgbe_fdir.o)
 .note.GNU-stack
                0x0000000000000000        0x0 /usr/lib/gcc/x86_64-linux-gnu/4.6/../../../../lib/librte_pmd_ixgbe.a(ixgbe_pf.o)
 .note.GNU-stack
                0x0000000000000000        0x0 /usr/lib/gcc/x86_64-linux-gnu/4.6/../../../../lib/librte_pmd_ixgbe.a(ixgbe_common.o)
 .note.GNU-stack
                0x0000000000000000        0x0 /usr/lib/gcc/x86_64-linux-gnu/4.6/../../../../lib/librte_pmd_ixgbe.a(ixgbe_82599.o)
 .note.GNU-stack
                0x0000000000000000        0x0 /usr/lib/gcc/x86_64-linux-gnu/4.6/../../../../lib/librte_pmd_ixgbe.a(ixgbe_phy.o)
 .note.GNU-stack
                0x0000000000000000        0x0 /usr/lib/gcc/x86_64-linux-gnu/4.6/../../../../lib/librte_pmd_ixgbe.a(ixgbe_api.o)
 .note.GNU-stack
                0x0000000000000000        0x0 /usr/lib/gcc/x86_64-linux-gnu/4.6/../../../../lib/librte_pmd_ixgbe.a(ixgbe_vf.o)
 .note.GNU-stack
                0x0000000000000000        0x0 /usr/lib/gcc/x86_64-linux-gnu/4.6/../../../../lib/librte_pmd_ixgbe.a(ixgbe_dcb.o)
 .note.GNU-stack
                0x0000000000000000        0x0 /usr/lib/gcc/x86_64-linux-gnu/4.6/../../../../lib/librte_pmd_ixgbe.a(ixgbe_dcb_82599.o)
 .note.GNU-stack
                0x0000000000000000        0x0 /usr/lib/gcc/x86_64-linux-gnu/4.6/../../../../lib/librte_pmd_ixgbe.a(ixgbe_dcb_82598.o)
 .note.GNU-stack
                0x0000000000000000        0x0 /usr/lib/gcc/x86_64-linux-gnu/4.6/../../../../lib/librte_pmd_ixgbe.a(ixgbe_mbx.o)
 .note.GNU-stack
                0x0000000000000000        0x0 /usr/lib/gcc/x86_64-linux-gnu/4.6/../../../../lib/librte_pmd_ixgbe.a(ixgbe_rxtx.o)
 .note.GNU-stack
                0x0000000000000000        0x0 /usr/lib/gcc/x86_64-linux-gnu/4.6/../../../../lib/librte_pmd_ixgbe.a(ixgbe_82598.o)
 .note.GNU-stack
                0x0000000000000000        0x0 /usr/lib/gcc/x86_64-linux-gnu/4.6/../../../../lib/librte_pmd_ixgbe.a(ixgbe_x540.o)
 .note.GNU-stack
                0x0000000000000000        0x0 /usr/lib/gcc/x86_64-linux-gnu/4.6/../../../../lib/librte_pmd_virtio.a(virtio_ethdev.o)
 .note.GNU-stack
                0x0000000000000000        0x0 /usr/lib/gcc/x86_64-linux-gnu/4.6/../../../../lib/librte_pmd_virtio.a(virtqueue.o)
 .note.GNU-stack
                0x0000000000000000        0x0 /usr/lib/gcc/x86_64-linux-gnu/4.6/../../../../lib/librte_pmd_virtio.a(virtio_pci.o)
 .note.GNU-stack
                0x0000000000000000        0x0 /usr/lib/gcc/x86_64-linux-gnu/4.6/../../../../lib/librte_pmd_virtio.a(virtio_rxtx.o)
 .note.GNU-stack
                0x0000000000000000        0x0 /usr/lib/gcc/x86_64-linux-gnu/4.6/../../../../lib/librte_mbuf.a(rte_mbuf.o)
 .note.GNU-stack
                0x0000000000000000        0x0 /usr/lib/gcc/x86_64-linux-gnu/4.6/../../../../lib/libethdev.a(rte_ethdev.o)
 .note.GNU-stack
                0x0000000000000000        0x0 /usr/lib/gcc/x86_64-linux-gnu/4.6/../../../../lib/librte_malloc.a(rte_malloc.o)
 .note.GNU-stack
                0x0000000000000000        0x0 /usr/lib/gcc/x86_64-linux-gnu/4.6/../../../../lib/librte_malloc.a(malloc_elem.o)
 .note.GNU-stack
                0x0000000000000000        0x0 /usr/lib/gcc/x86_64-linux-gnu/4.6/../../../../lib/librte_malloc.a(malloc_heap.o)
 .note.GNU-stack
                0x0000000000000000        0x0 /usr/lib/gcc/x86_64-linux-gnu/4.6/../../../../lib/librte_mempool.a(rte_mempool.o)
 .note.GNU-stack
                0x0000000000000000        0x0 /usr/lib/gcc/x86_64-linux-gnu/4.6/../../../../lib/librte_ring.a(rte_ring.o)
 .note.GNU-stack
                0x0000000000000000        0x0 /usr/lib/gcc/x86_64-linux-gnu/4.6/../../../../lib/librte_eal.a(eal.o)
 .note.GNU-stack
                0x0000000000000000        0x0 /usr/lib/gcc/x86_64-linux-gnu/4.6/../../../../lib/librte_eal.a(eal_hugepage_info.o)
 .note.GNU-stack
                0x0000000000000000        0x0 /usr/lib/gcc/x86_64-linux-gnu/4.6/../../../../lib/librte_eal.a(eal_memory.o)
 .note.GNU-stack
                0x0000000000000000        0x0 /usr/lib/gcc/x86_64-linux-gnu/4.6/../../../../lib/librte_eal.a(eal_thread.o)
 .note.GNU-stack
                0x0000000000000000        0x0 /usr/lib/gcc/x86_64-linux-gnu/4.6/../../../../lib/librte_eal.a(eal_log.o)
 .note.GNU-stack
                0x0000000000000000        0x0 /usr/lib/gcc/x86_64-linux-gnu/4.6/../../../../lib/librte_eal.a(eal_pci.o)
 .note.GNU-stack
                0x0000000000000000        0x0 /usr/lib/gcc/x86_64-linux-gnu/4.6/../../../../lib/librte_eal.a(eal_debug.o)
 .note.GNU-stack
                0x0000000000000000        0x0 /usr/lib/gcc/x86_64-linux-gnu/4.6/../../../../lib/librte_eal.a(eal_lcore.o)
 .note.GNU-stack
                0x0000000000000000        0x0 /usr/lib/gcc/x86_64-linux-gnu/4.6/../../../../lib/librte_eal.a(eal_timer.o)
 .note.GNU-stack
                0x0000000000000000        0x0 /usr/lib/gcc/x86_64-linux-gnu/4.6/../../../../lib/librte_eal.a(eal_interrupts.o)
 .note.GNU-stack
                0x0000000000000000        0x0 /usr/lib/gcc/x86_64-linux-gnu/4.6/../../../../lib/librte_eal.a(eal_alarm.o)
 .note.GNU-stack
                0x0000000000000000        0x0 /usr/lib/gcc/x86_64-linux-gnu/4.6/../../../../lib/librte_eal.a(eal_common_memzone.o)
 .note.GNU-stack
                0x0000000000000000        0x0 /usr/lib/gcc/x86_64-linux-gnu/4.6/../../../../lib/librte_eal.a(eal_common_log.o)
 .note.GNU-stack
                0x0000000000000000        0x0 /usr/lib/gcc/x86_64-linux-gnu/4.6/../../../../lib/librte_eal.a(eal_common_launch.o)
 .note.GNU-stack
                0x0000000000000000        0x0 /usr/lib/gcc/x86_64-linux-gnu/4.6/../../../../lib/librte_eal.a(eal_common_pci.o)
 .note.GNU-stack
                0x0000000000000000        0x0 /usr/lib/gcc/x86_64-linux-gnu/4.6/../../../../lib/librte_eal.a(eal_common_memory.o)
 .note.GNU-stack
                0x0000000000000000        0x0 /usr/lib/gcc/x86_64-linux-gnu/4.6/../../../../lib/librte_eal.a(eal_common_tailqs.o)
 .note.GNU-stack
                0x0000000000000000        0x0 /usr/lib/gcc/x86_64-linux-gnu/4.6/../../../../lib/librte_eal.a(eal_common_errno.o)
 .note.GNU-stack
                0x0000000000000000        0x0 /usr/lib/gcc/x86_64-linux-gnu/4.6/../../../../lib/librte_eal.a(eal_common_hexdump.o)
 .note.GNU-stack
                0x0000000000000000        0x0 /usr/lib/gcc/x86_64-linux-gnu/4.6/../../../../lib/librte_eal.a(eal_common_whitelist.o)
 .note.GNU-stack
                0x0000000000000000        0x0 /usr/lib/gcc/x86_64-linux-gnu/4.6/../../../../lib/librte_eal.a(eal_common_nonpci_devs.o)
 .note.GNU-stack
                0x0000000000000000        0x0 /usr/lib/gcc/x86_64-linux-gnu/4.6/../../../../lib/librte_pmd_ring.a(rte_eth_ring.o)
 .note.GNU-stack
                0x0000000000000000        0x0 /usr/lib/x86_64-linux-gnu/libc_nonshared.a(elf-init.oS)
 .note.GNU-stack
                0x0000000000000000        0x0 /usr/lib/gcc/x86_64-linux-gnu/4.6/crtend.o
 .note.GNU-stack
                0x0000000000000000        0x0 /usr/lib/gcc/x86_64-linux-gnu/4.6/../../../x86_64-linux-gnu/crtn.o
 .gnu_debuglink
                0x0000000000000000        0xc /usr/lib/gcc/x86_64-linux-gnu/4.6/../../../x86_64-linux-gnu/crtn.o

Memory Configuration

Name             Origin             Length             Attributes
*default*        0x0000000000000000 0xffffffffffffffff

Linker script and memory map

LOAD /usr/lib/gcc/x86_64-linux-gnu/4.6/../../../x86_64-linux-gnu/crt1.o
LOAD /usr/lib/gcc/x86_64-linux-gnu/4.6/../../../x86_64-linux-gnu/crti.o
LOAD /usr/lib/gcc/x86_64-linux-gnu/4.6/crtbegin.o
LOAD main.o
LOAD common.o
LOAD server.o
LOAD client.o
LOAD /usr/lib/gcc/x86_64-linux-gnu/4.6/../../../../lib/librte_kni.a
LOAD /usr/lib/gcc/x86_64-linux-gnu/4.6/../../../../lib/librte_pmd_e1000.a
LOAD /usr/lib/gcc/x86_64-linux-gnu/4.6/../../../../lib/librte_pmd_ixgbe.a
LOAD /usr/lib/gcc/x86_64-linux-gnu/4.6/../../../../lib/librte_pmd_virtio.a
LOAD /usr/lib/gcc/x86_64-linux-gnu/4.6/../../../../lib/librte_cmdline.a
LOAD /usr/lib/gcc/x86_64-linux-gnu/4.6/../../../../lib/librte_timer.a
LOAD /usr/lib/gcc/x86_64-linux-gnu/4.6/../../../../lib/librte_hash.a
LOAD /usr/lib/gcc/x86_64-linux-gnu/4.6/../../../../lib/librte_lpm.a
LOAD /usr/lib/gcc/x86_64-linux-gnu/4.6/../../../../lib/librte_power.a
LOAD /usr/lib/gcc/x86_64-linux-gnu/4.6/../../../../lib/librte_meter.a
LOAD /usr/lib/gcc/x86_64-linux-gnu/4.6/../../../../lib/librte_sched.a
LOAD /usr/lib/gcc/x86_64-linux-gnu/4.6/../../../x86_64-linux-gnu/libm.so
LOAD /usr/lib/gcc/x86_64-linux-gnu/4.6/../../../x86_64-linux-gnu/librt.so
START GROUP
LOAD /usr/lib/gcc/x86_64-linux-gnu/4.6/../../../../lib/librte_mbuf.a
LOAD /usr/lib/gcc/x86_64-linux-gnu/4.6/../../../../lib/libethdev.a
LOAD /usr/lib/gcc/x86_64-linux-gnu/4.6/../../../../lib/librte_pmd_ring.a
LOAD /usr/lib/gcc/x86_64-linux-gnu/4.6/../../../../lib/librte_malloc.a
LOAD /usr/lib/gcc/x86_64-linux-gnu/4.6/../../../../lib/librte_mempool.a
LOAD /usr/lib/gcc/x86_64-linux-gnu/4.6/../../../../lib/librte_ring.a
LOAD /usr/lib/gcc/x86_64-linux-gnu/4.6/../../../../lib/librte_eal.a
LOAD /usr/lib/gcc/x86_64-linux-gnu/4.6/../../../x86_64-linux-gnu/librt.so
LOAD /usr/lib/gcc/x86_64-linux-gnu/4.6/../../../x86_64-linux-gnu/libm.so
END GROUP
LOAD /usr/lib/gcc/x86_64-linux-gnu/4.6/libgcc.a
LOAD /usr/lib/gcc/x86_64-linux-gnu/4.6/libgcc_s.so
LOAD /usr/lib/gcc/x86_64-linux-gnu/4.6/../../../x86_64-linux-gnu/libpthread.so
START GROUP
LOAD /lib/x86_64-linux-gnu/libpthread.so.0
LOAD /usr/lib/x86_64-linux-gnu/libpthread_nonshared.a
END GROUP
LOAD /usr/lib/gcc/x86_64-linux-gnu/4.6/../../../x86_64-linux-gnu/libc.so
START GROUP
LOAD /lib/x86_64-linux-gnu/libc.so.6
LOAD /usr/lib/x86_64-linux-gnu/libc_nonshared.a
LOAD /lib/x86_64-linux-gnu/ld-linux-x86-64.so.2
END GROUP
LOAD /usr/lib/gcc/x86_64-linux-gnu/4.6/libgcc.a
LOAD /usr/lib/gcc/x86_64-linux-gnu/4.6/libgcc_s.so
LOAD /usr/lib/gcc/x86_64-linux-gnu/4.6/crtend.o
LOAD /usr/lib/gcc/x86_64-linux-gnu/4.6/../../../x86_64-linux-gnu/crtn.o
                0x0000000000400000                PROVIDE (__executable_start, 0x400000)
                0x0000000000400270                . = (0x400000 + SIZEOF_HEADERS)

.interp         0x0000000000400270       0x1c
 *(.interp)
 .interp        0x0000000000400270       0x1c /usr/lib/gcc/x86_64-linux-gnu/4.6/../../../x86_64-linux-gnu/crt1.o

.note.ABI-tag   0x000000000040028c       0x20
 .note.ABI-tag  0x000000000040028c       0x20 /usr/lib/gcc/x86_64-linux-gnu/4.6/../../../x86_64-linux-gnu/crt1.o

.note.gnu.build-id
                0x00000000004002ac       0x24
 *(.note.gnu.build-id)
 .note.gnu.build-id
                0x00000000004002ac       0x24 /usr/lib/gcc/x86_64-linux-gnu/4.6/../../../x86_64-linux-gnu/crt1.o

.hash
 *(.hash)

.gnu.hash       0x00000000004002d0       0x34
 *(.gnu.hash)
 .gnu.hash      0x00000000004002d0       0x34 /usr/lib/gcc/x86_64-linux-gnu/4.6/../../../x86_64-linux-gnu/crt1.o

.dynsym         0x0000000000400308      0x978
 *(.dynsym)
 .dynsym        0x0000000000400308      0x978 /usr/lib/gcc/x86_64-linux-gnu/4.6/../../../x86_64-linux-gnu/crt1.o

.dynstr         0x0000000000400c80      0x432
 *(.dynstr)
 .dynstr        0x0000000000400c80      0x432 /usr/lib/gcc/x86_64-linux-gnu/4.6/../../../x86_64-linux-gnu/crt1.o

.gnu.version    0x00000000004010b2       0xca
 *(.gnu.version)
 .gnu.version   0x00000000004010b2       0xca /usr/lib/gcc/x86_64-linux-gnu/4.6/../../../x86_64-linux-gnu/crt1.o

.gnu.version_d  0x0000000000401180        0x0
 *(.gnu.version_d)
 .gnu.version_d
                0x0000000000000000        0x0 /usr/lib/gcc/x86_64-linux-gnu/4.6/../../../x86_64-linux-gnu/crt1.o

.gnu.version_r  0x0000000000401180       0xe0
 *(.gnu.version_r)
 .gnu.version_r
                0x0000000000401180       0xe0 /usr/lib/gcc/x86_64-linux-gnu/4.6/../../../x86_64-linux-gnu/crt1.o

.rela.dyn       0x0000000000401260       0x78
 *(.rela.init)
 *(.rela.text .rela.text.* .rela.gnu.linkonce.t.*)
 .rela.text     0x0000000000000000        0x0 /usr/lib/gcc/x86_64-linux-gnu/4.6/../../../x86_64-linux-gnu/crt1.o
 .rela.text.startup
                0x0000000000000000        0x0 /usr/lib/gcc/x86_64-linux-gnu/4.6/../../../x86_64-linux-gnu/crt1.o
 .rela.text.unlikely
                0x0000000000000000        0x0 /usr/lib/gcc/x86_64-linux-gnu/4.6/../../../x86_64-linux-gnu/crt1.o
 *(.rela.fini)
 *(.rela.rodata .rela.rodata.* .rela.gnu.linkonce.r.*)
 *(.rela.data .rela.data.* .rela.gnu.linkonce.d.*)
 .rela.data     0x0000000000000000        0x0 /usr/lib/gcc/x86_64-linux-gnu/4.6/../../../x86_64-linux-gnu/crt1.o
 *(.rela.tdata .rela.tdata.* .rela.gnu.linkonce.td.*)
 *(.rela.tbss .rela.tbss.* .rela.gnu.linkonce.tb.*)
 *(.rela.ctors)
 *(.rela.dtors)
 *(.rela.got)
 .rela.got      0x0000000000401260       0x18 /usr/lib/gcc/x86_64-linux-gnu/4.6/../../../x86_64-linux-gnu/crt1.o
 *(.rela.bss .rela.bss.* .rela.gnu.linkonce.b.*)
 .rela.bss      0x0000000000401278       0x60 /usr/lib/gcc/x86_64-linux-gnu/4.6/../../../x86_64-linux-gnu/crt1.o
 *(.rela.ldata .rela.ldata.* .rela.gnu.linkonce.l.*)
 *(.rela.lbss .rela.lbss.* .rela.gnu.linkonce.lb.*)
 *(.rela.lrodata .rela.lrodata.* .rela.gnu.linkonce.lr.*)
 *(.rela.ifunc)

.rela.plt       0x00000000004012d8      0x8d0
 *(.rela.plt)
 .rela.plt      0x00000000004012d8      0x8d0 /usr/lib/gcc/x86_64-linux-gnu/4.6/../../../x86_64-linux-gnu/crt1.o
                0x0000000000401ba8                PROVIDE (__rela_iplt_start, .)
 *(.rela.iplt)
 .rela.iplt     0x0000000000000000        0x0 /usr/lib/gcc/x86_64-linux-gnu/4.6/../../../x86_64-linux-gnu/crt1.o
                0x0000000000401ba8                PROVIDE (__rela_iplt_end, .)

.init           0x0000000000401ba8       0x18
 *(.init)
 .init          0x0000000000401ba8        0x9 /usr/lib/gcc/x86_64-linux-gnu/4.6/../../../x86_64-linux-gnu/crti.o
                0x0000000000401ba8                _init
 .init          0x0000000000401bb1        0x5 /usr/lib/gcc/x86_64-linux-gnu/4.6/crtbegin.o
 .init          0x0000000000401bb6        0x5 /usr/lib/gcc/x86_64-linux-gnu/4.6/crtend.o
 .init          0x0000000000401bbb        0x5 /usr/lib/gcc/x86_64-linux-gnu/4.6/../../../x86_64-linux-gnu/crtn.o

.plt            0x0000000000401bc0      0x5f0
 *(.plt)
 .plt           0x0000000000401bc0      0x5f0 /usr/lib/gcc/x86_64-linux-gnu/4.6/../../../x86_64-linux-gnu/crt1.o
                0x0000000000401bd0                getenv@@GLIBC_2.2.5
                0x0000000000401be0                __snprintf_chk@@GLIBC_2.3.4
                0x0000000000401bf0                free@@GLIBC_2.2.5
                0x0000000000401c00                putchar@@GLIBC_2.2.5
                0x0000000000401c10                pthread_create@@GLIBC_2.2.5
                0x0000000000401c20                __vfprintf_chk@@GLIBC_2.3.4
                0x0000000000401c30                abort@@GLIBC_2.2.5
                0x0000000000401c40                __errno_location@@GLIBC_2.2.5
                0x0000000000401c50                strncpy@@GLIBC_2.2.5
                0x0000000000401c60                strncmp@@GLIBC_2.2.5
                0x0000000000401c70                fopencookie@@GLIBC_2.2.5
                0x0000000000401c80                __read_chk@@GLIBC_2.4
                0x0000000000401c90                unlinkat@@GLIBC_2.4
                0x0000000000401ca0                puts@@GLIBC_2.2.5
                0x0000000000401cb0                backtrace_symbols@@GLIBC_2.2.5
                0x0000000000401cc0                __xpg_strerror_r@@GLIBC_2.3.4
                0x0000000000401cd0                fcntl@@GLIBC_2.2.5
                0x0000000000401ce0                write@@GLIBC_2.2.5
                0x0000000000401cf0                fclose@@GLIBC_2.2.5
                0x0000000000401d00                opendir@@GLIBC_2.2.5
                0x0000000000401d10                backtrace@@GLIBC_2.2.5
                0x0000000000401d20                openat@@GLIBC_2.4
                0x0000000000401d30                __stack_chk_fail@@GLIBC_2.4
                0x0000000000401d40                getuid@@GLIBC_2.2.5
                0x0000000000401d50                mmap@@GLIBC_2.2.5
                0x0000000000401d60                getopt_long@@GLIBC_2.2.5
                0x0000000000401d70                system@@GLIBC_2.2.5
                0x0000000000401d80                pthread_setaffinity_np@@GLIBC_2.3.4
                0x0000000000401d90                strchr@@GLIBC_2.2.5
                0x0000000000401da0                nanosleep@@GLIBC_2.2.5
                0x0000000000401db0                ftruncate@@GLIBC_2.2.5
                0x0000000000401dc0                lseek@@GLIBC_2.2.5
                0x0000000000401dd0                gettimeofday@@GLIBC_2.2.5
                0x0000000000401de0                __assert_fail@@GLIBC_2.2.5
                0x0000000000401df0                iopl@@GLIBC_2.2.5
                0x0000000000401e00                fnmatch@@GLIBC_2.2.5
                0x0000000000401e10                memset@@GLIBC_2.2.5
                0x0000000000401e20                index@@GLIBC_2.2.5
                0x0000000000401e30                strnlen@@GLIBC_2.2.5
                0x0000000000401e40                close@@GLIBC_2.2.5
                0x0000000000401e50                pipe@@GLIBC_2.2.5
                0x0000000000401e60                closedir@@GLIBC_2.2.5
                0x0000000000401e70                epoll_ctl@@GLIBC_2.3.2
                0x0000000000401e80                __strdup@@GLIBC_2.2.5
                0x0000000000401e90                read@@GLIBC_2.2.5
                0x0000000000401ea0                strndup@@GLIBC_2.2.5
                0x0000000000401eb0                __libc_start_main@@GLIBC_2.2.5
                0x0000000000401ec0                memcmp@@GLIBC_2.2.5
                0x0000000000401ed0                fgets@@GLIBC_2.2.5
                0x0000000000401ee0                strtoull@@GLIBC_2.2.5
                0x0000000000401ef0                strcmp@@GLIBC_2.2.5
                0x0000000000401f00                dirfd@@GLIBC_2.2.5
                0x0000000000401f10                __memcpy_chk@@GLIBC_2.3.4
                0x0000000000401f20                timerfd_create@@GLIBC_2.8
                0x0000000000401f30                strtol@@GLIBC_2.2.5
                0x0000000000401f40                memcpy@@GLIBC_2.14
                0x0000000000401f50                readdir@@GLIBC_2.2.5
                0x0000000000401f60                malloc@@GLIBC_2.2.5
                0x0000000000401f70                strncasecmp@@GLIBC_2.2.5
                0x0000000000401f80                fflush@@GLIBC_2.2.5
                0x0000000000401f90                __sched_cpufree@@GLIBC_2.7
                0x0000000000401fa0                __fxstat@@GLIBC_2.2.5
                0x0000000000401fb0                clock_gettime@@GLIBC_2.2.5
                0x0000000000401fc0                lrand48@@GLIBC_2.2.5
                0x0000000000401fd0                __sched_cpualloc@@GLIBC_2.7
                0x0000000000401fe0                __vsnprintf_chk@@GLIBC_2.3.4
                0x0000000000401ff0                srand48@@GLIBC_2.2.5
                0x0000000000402000                munmap@@GLIBC_2.2.5
                0x0000000000402010                __printf_chk@@GLIBC_2.3.4
                0x0000000000402020                epoll_wait@@GLIBC_2.3.2
                0x0000000000402030                __syslog_chk@@GLIBC_2.4
                0x0000000000402040                pthread_self@@GLIBC_2.2.5
                0x0000000000402050                open@@GLIBC_2.2.5
                0x0000000000402060                access@@GLIBC_2.2.5
                0x0000000000402070                fopen@@GLIBC_2.2.5
                0x0000000000402080                sysconf@@GLIBC_2.2.5
                0x0000000000402090                strtoul@@GLIBC_2.2.5
                0x00000000004020a0                shmat@@GLIBC_2.2.5
                0x00000000004020b0                timerfd_settime@@GLIBC_2.8
                0x00000000004020c0                shmget@@GLIBC_2.2.5
                0x00000000004020d0                flock@@GLIBC_2.2.5
                0x00000000004020e0                openlog@@GLIBC_2.2.5
                0x00000000004020f0                getpagesize@@GLIBC_2.2.5
                0x0000000000402100                epoll_create@@GLIBC_2.3.2
                0x0000000000402110                exit@@GLIBC_2.2.5
                0x0000000000402120                fwrite@@GLIBC_2.2.5
                0x0000000000402130                __fprintf_chk@@GLIBC_2.3.4
                0x0000000000402140                strerror@@GLIBC_2.2.5
                0x0000000000402150                sleep@@GLIBC_2.2.5
                0x0000000000402160                strstr@@GLIBC_2.2.5
                0x0000000000402170                rand@@GLIBC_2.2.5
                0x0000000000402180                __ctype_tolower_loc@@GLIBC_2.3
                0x0000000000402190                __ctype_b_loc@@GLIBC_2.3
                0x00000000004021a0                __sprintf_chk@@GLIBC_2.3.4
 *(.iplt)
 .iplt          0x0000000000000000        0x0 /usr/lib/gcc/x86_64-linux-gnu/4.6/../../../x86_64-linux-gnu/crt1.o

.text           0x00000000004021b0    0x69388
 *(.text.unlikely .text.*_unlikely)
 .text.unlikely
                0x00000000004021b0       0xc6 /usr/lib/gcc/x86_64-linux-gnu/4.6/../../../../lib/librte_eal.a(eal_debug.o)
                0x00000000004021b0                __rte_panic
 .text.unlikely
                0x0000000000402276       0x8a /usr/lib/gcc/x86_64-linux-gnu/4.6/../../../../lib/librte_eal.a(eal_common_log.o)
                0x0000000000402276                rte_log
 *(.text.exit .text.exit.*)
 *(.text.startup .text.startup.*)
 .text.startup  0x0000000000402300      0x6db main.o
                0x0000000000402300                main
 *(.text.hot .text.hot.*)
 *(.text .stub .text.* .gnu.linkonce.t.*)
 *fill*         0x00000000004029db        0x1 90909090
 .text          0x00000000004029dc       0x2c /usr/lib/gcc/x86_64-linux-gnu/4.6/../../../x86_64-linux-gnu/crt1.o
                0x00000000004029dc                _start
 .text          0x0000000000402a08       0x17 /usr/lib/gcc/x86_64-linux-gnu/4.6/../../../x86_64-linux-gnu/crti.o
 *fill*         0x0000000000402a1f        0x1 90909090
 .text          0x0000000000402a20       0x92 /usr/lib/gcc/x86_64-linux-gnu/4.6/crtbegin.o
 *fill*         0x0000000000402ab2        0xe 90909090
 .text          0x0000000000402ac0       0x51 main.o
 *fill*         0x0000000000402b11        0xf 90909090
 .text          0x0000000000402b20      0xa06 common.o
                0x0000000000402b20                red_printf
                0x0000000000402ce0                print_mac
                0x0000000000402d40                check_all_ports_link_status
                0x0000000000402dd0                print_buf
                0x0000000000402e40                mempool_init
                0x0000000000402ec0                shm_alloc
                0x0000000000402f40                fastrand
                0x0000000000402f60                micro_sleep
                0x0000000000402fe0                count_active_lcores
                0x0000000000403020                get_lcore_rank
                0x0000000000403090                get_lcore_ranked_n
                0x0000000000403120                bitcount
                0x0000000000403140                get_active_ports
                0x00000000004031b0                count_active_lcores_on_socket
                0x0000000000403200                get_socket_id_from_macaddr
                0x0000000000403290                client_port_queue_to_lcore
                0x0000000000403350                set_mac
                0x0000000000403390                swap_mac
                0x00000000004033f0                print_ether_hdr
 *fill*         0x0000000000403526        0xa 90909090
 .text          0x0000000000403530      0xcb2 server.o
                0x0000000000403530                run_server
 *fill*         0x00000000004041e2        0xe 90909090
 .text          0x00000000004041f0     0x1056 client.o
                0x0000000000404880                run_client
 *fill*         0x0000000000405246        0xa 90909090
 .text          0x0000000000405250     0x2195 /usr/lib/gcc/x86_64-linux-gnu/4.6/../../../../lib/librte_pmd_e1000.a(igb_ethdev.o)
                0x00000000004073b0                rte_igb_pmd_init
                0x00000000004073d0                rte_igbvf_pmd_init
 *fill*         0x00000000004073e5        0xb 90909090
 .text          0x00000000004073f0     0x5431 /usr/lib/gcc/x86_64-linux-gnu/4.6/../../../../lib/librte_pmd_e1000.a(igb_rxtx.o)
                0x00000000004073f0                eth_igb_recv_pkts
                0x0000000000408260                eth_igb_xmit_pkts
                0x0000000000409cc0                eth_igb_recv_scattered_pkts
                0x000000000040a930                eth_igb_tx_queue_release
                0x000000000040a970                eth_igb_tx_queue_setup
                0x000000000040acb0                eth_igb_rx_queue_release
                0x000000000040acf0                eth_igb_rx_queue_setup
                0x000000000040aff0                eth_igb_rx_queue_count
                0x000000000040b060                eth_igb_rx_descriptor_done
                0x000000000040b0a0                igb_dev_clear_queues
                0x000000000040b190                eth_igb_rx_init
                0x000000000040beb0                eth_igb_tx_init
                0x000000000040c090                eth_igbvf_rx_init
                0x000000000040c6e0                eth_igbvf_tx_init
 *fill*         0x000000000040c821        0xf 90909090
 .text          0x000000000040c830     0x13c5 /usr/lib/gcc/x86_64-linux-gnu/4.6/../../../../lib/librte_pmd_e1000.a(em_ethdev.o)
                0x000000000040dbe0                rte_em_pmd_init
 *fill*         0x000000000040dbf5        0xb 90909090
 .text          0x000000000040dc00     0x487d /usr/lib/gcc/x86_64-linux-gnu/4.6/../../../../lib/librte_pmd_e1000.a(em_rxtx.o)
                0x000000000040dc00                eth_em_recv_pkts
                0x000000000040f140                eth_em_recv_scattered_pkts
                0x000000000040fd80                eth_em_xmit_pkts
                0x0000000000411110                eth_em_tx_queue_release
                0x0000000000411150                eth_em_tx_queue_setup
                0x00000000004115d0                eth_em_rx_queue_release
                0x0000000000411610                eth_em_rx_queue_setup
                0x0000000000411990                eth_em_rx_queue_count
                0x0000000000411a00                eth_em_rx_descriptor_done
                0x0000000000411a40                em_dev_clear_queues
                0x0000000000411b10                eth_em_rx_init
                0x0000000000412340                eth_em_tx_init
 *fill*         0x000000000041247d        0x3 90909090
 .text          0x0000000000412480      0x8fc /usr/lib/gcc/x86_64-linux-gnu/4.6/../../../../lib/librte_pmd_e1000.a(igb_pf.o)
                0x0000000000412520                igb_pf_host_init
                0x0000000000412690                igb_pf_host_configure
                0x00000000004127c0                igb_pf_mbx_process
 *fill*         0x0000000000412d7c        0x4 90909090
 .text          0x0000000000412d80     0x1457 /usr/lib/gcc/x86_64-linux-gnu/4.6/../../../../lib/librte_pmd_e1000.a(e1000_82541.o)
                0x00000000004141a0                e1000_init_function_pointers_82541
                0x00000000004141c0                e1000_init_script_state_82541
 *fill*         0x00000000004141d7        0x9 90909090
 .text          0x00000000004141e0     0x1bf1 /usr/lib/gcc/x86_64-linux-gnu/4.6/../../../../lib/librte_pmd_e1000.a(e1000_82543.o)
                0x0000000000415c30                e1000_init_function_pointers_82543
                0x0000000000415c50                e1000_set_tbi_compatibility_82543
                0x0000000000415c80                e1000_tbi_sbp_enabled_82543
                0x0000000000415ca0                e1000_tbi_adjust_stats_82543
 *fill*         0x0000000000415dd1        0xf 90909090
 .text          0x0000000000415de0     0x1dd4 /usr/lib/gcc/x86_64-linux-gnu/4.6/../../../../lib/librte_pmd_e1000.a(e1000_82571.o)
                0x0000000000417ac0                e1000_init_function_pointers_82571
                0x0000000000417ae0                e1000_check_phy_82574
                0x0000000000417b60                e1000_get_laa_state_82571
                0x0000000000417b80                e1000_set_laa_state_82571
 *fill*         0x0000000000417bb4        0xc 90909090
 .text          0x0000000000417bc0     0x3b76 /usr/lib/gcc/x86_64-linux-gnu/4.6/../../../../lib/librte_pmd_e1000.a(e1000_82575.o)
                0x0000000000417bc0                e1000_init_nvm_params_82575
                0x000000000041a7e0                e1000_init_function_pointers_82575
                0x000000000041a810                e1000_rx_fifo_flush_82575
                0x000000000041ab90                e1000_vmdq_set_anti_spoofing_pf
                0x000000000041ac20                e1000_vmdq_set_loopback_pf
                0x000000000041ac90                e1000_vmdq_set_replication_pf
                0x000000000041acc0                e1000_rxpbs_adjust_82580
                0x000000000041ace0                e1000_set_eee_i350
                0x000000000041ad60                e1000_set_i2c_bb
                0x000000000041ad90                e1000_i2c_bus_clear
                0x000000000041b0e0                e1000_write_i2c_byte_generic
                0x000000000041b1e0                e1000_read_i2c_byte_generic
 *fill*         0x000000000041b736        0xa 90909090
 .text          0x000000000041b740      0xefd /usr/lib/gcc/x86_64-linux-gnu/4.6/../../../../lib/librte_pmd_e1000.a(e1000_i210.o)
                0x000000000041b7f0                e1000_read_nvm_srrd_i210
                0x000000000041b910                e1000_validate_nvm_checksum_i210
                0x000000000041baf0                e1000_write_nvm_srwr_i210
                0x000000000041c0a0                e1000_update_nvm_checksum_i210
                0x000000000041c200                e1000_acquire_swfw_sync_i210
                0x000000000041c300                e1000_release_swfw_sync_i210
                0x000000000041c3a0                e1000_read_invm_i211
                0x000000000041c420                e1000_read_invm_version
                0x000000000041c580                e1000_update_flash_i210
                0x000000000041c600                e1000_init_function_pointers_i210
 *fill*         0x000000000041c63d        0x3 90909090
 .text          0x000000000041c640      0xe62 /usr/lib/gcc/x86_64-linux-gnu/4.6/../../../../lib/librte_pmd_e1000.a(e1000_api.o)
                0x000000000041c640                e1000_init_mac_params
                0x000000000041c660                e1000_init_nvm_params
                0x000000000041c680                e1000_init_phy_params
                0x000000000041c6a0                e1000_init_mbx_params
                0x000000000041c6c0                e1000_set_mac_type
                0x000000000041ccb0                e1000_setup_init_funcs
                0x000000000041ce40                e1000_get_bus_info
                0x000000000041ce60                e1000_clear_vfta
                0x000000000041ce80                e1000_write_vfta
                0x000000000041cea0                e1000_update_mc_addr_list
                0x000000000041cec0                e1000_force_mac_fc
                0x000000000041ced0                e1000_check_for_link
                0x000000000041cef0                e1000_check_mng_mode
                0x000000000041cf10                e1000_mng_write_dhcp_info
                0x000000000041cf20                e1000_reset_hw
                0x000000000041cf40                e1000_init_hw
                0x000000000041cf60                e1000_setup_link
                0x000000000041cf80                e1000_get_speed_and_duplex
                0x000000000041cfa0                e1000_setup_led
                0x000000000041cfc0                e1000_cleanup_led
                0x000000000041cfe0                e1000_blink_led
                0x000000000041d000                e1000_id_led_init
                0x000000000041d020                e1000_led_on
                0x000000000041d040                e1000_led_off
                0x000000000041d060                e1000_reset_adaptive
                0x000000000041d070                e1000_update_adaptive
                0x000000000041d080                e1000_disable_pcie_master
                0x000000000041d090                e1000_config_collision_dist
                0x000000000041d0b0                e1000_rar_set
                0x000000000041d0d0                e1000_validate_mdi_setting
                0x000000000041d0f0                e1000_hash_mc_addr
                0x000000000041d100                e1000_enable_tx_pkt_filtering
                0x000000000041d110                e1000_mng_host_if_write
                0x000000000041d130                e1000_mng_write_cmd_header
                0x000000000041d150                e1000_mng_enable_host_if
                0x000000000041d170                e1000_wait_autoneg
                0x000000000041d190                e1000_check_reset_block
                0x000000000041d1b0                e1000_read_phy_reg
                0x000000000041d1d0                e1000_write_phy_reg
                0x000000000041d1f0                e1000_release_phy
                0x000000000041d210                e1000_acquire_phy
                0x000000000041d230                e1000_cfg_on_link_up
                0x000000000041d250                e1000_read_kmrn_reg
                0x000000000041d260                e1000_write_kmrn_reg
                0x000000000041d270                e1000_get_cable_length
                0x000000000041d290                e1000_get_phy_info
                0x000000000041d2b0                e1000_phy_hw_reset
                0x000000000041d2d0                e1000_phy_commit
                0x000000000041d2f0                e1000_set_d0_lplu_state
                0x000000000041d310                e1000_set_d3_lplu_state
                0x000000000041d330                e1000_read_mac_addr
                0x000000000041d350                e1000_read_pba_string
                0x000000000041d360                e1000_read_pba_length
                0x000000000041d370                e1000_validate_nvm_checksum
                0x000000000041d390                e1000_update_nvm_checksum
                0x000000000041d3b0                e1000_reload_nvm
                0x000000000041d3d0                e1000_read_nvm
                0x000000000041d3f0                e1000_write_nvm
                0x000000000041d410                e1000_write_8bit_ctrl_reg
                0x000000000041d420                e1000_power_up_phy
                0x000000000041d450                e1000_power_down_phy
                0x000000000041d470                e1000_power_up_fiber_serdes_link
                0x000000000041d490                e1000_shutdown_fiber_serdes_link
 *fill*         0x000000000041d4a2        0xe 90909090
 .text          0x000000000041d4b0     0x42a7 /usr/lib/gcc/x86_64-linux-gnu/4.6/../../../../lib/librte_pmd_e1000.a(e1000_ich8lan.o)
                0x000000000041f5f0                e1000_read_emi_reg_locked
                0x000000000041f650                e1000_init_function_pointers_ich8lan
                0x000000000041f6a0                e1000_configure_k1_ich8lan
                0x0000000000420850                e1000_copy_rx_addrs_to_phy_ich8lan
                0x00000000004209d0                e1000_lv_jumbo_workaround_ich8lan
                0x0000000000421230                e1000_set_kmrn_lock_loss_workaround_ich8lan
                0x0000000000421250                e1000_igp3_phy_powerdown_workaround_ich8lan
                0x0000000000421380                e1000_gig_downshift_workaround_ich8lan
                0x0000000000421400                e1000_suspend_workarounds_ich8lan
                0x0000000000421680                e1000_resume_workarounds_pchlan
 *fill*         0x0000000000421757        0x9 90909090
 .text          0x0000000000421760     0x1dba /usr/lib/gcc/x86_64-linux-gnu/4.6/../../../../lib/librte_pmd_e1000.a(e1000_mac.o)
                0x0000000000421760                e1000_null_ops_generic
                0x0000000000421770                e1000_null_mac_generic
                0x0000000000421780                e1000_null_link_info
                0x0000000000421790                e1000_null_mng_mode
                0x00000000004217a0                e1000_null_update_mc
                0x00000000004217b0                e1000_null_write_vfta
                0x0000000000421890                e1000_setup_led_generic
                0x0000000000421930                e1000_init_mac_ops_generic
                0x0000000000421a40                e1000_null_rar_set
                0x0000000000421a50                e1000_get_bus_info_pci_generic
                0x0000000000421b10                e1000_get_bus_info_pcie_generic
                0x0000000000421bb0                e1000_set_lan_id_multi_port_pci
                0x0000000000421bf0                e1000_set_lan_id_single_port
                0x0000000000421c00                e1000_clear_vfta_generic
                0x0000000000421c30                e1000_write_vfta_generic
                0x0000000000421c50                e1000_init_rx_addrs_generic
                0x0000000000421ce0                e1000_check_alt_mac_addr_generic
                0x0000000000421e90                e1000_hash_mc_addr_generic
                0x0000000000421f20                e1000_update_mc_addr_list_generic
                0x00000000004220f0                e1000_pcix_mmrbc_workaround_generic
                0x0000000000422180                e1000_clear_hw_cntrs_base_generic
                0x0000000000422270                e1000_set_default_fc_generic
                0x00000000004222d0                e1000_setup_link_generic
                0x00000000004223f0                e1000_commit_fc_settings_generic
                0x0000000000422440                e1000_poll_fiber_serdes_link_generic
                0x00000000004224a0                e1000_setup_fiber_serdes_link_generic
                0x00000000004225a0                e1000_set_fc_watermarks_generic
                0x00000000004225f0                e1000_force_mac_fc_generic
                0x0000000000422660                e1000_config_fc_after_link_up_generic
                0x0000000000422a50                e1000_check_for_serdes_link_generic
                0x0000000000422bb0                e1000_check_for_fiber_link_generic
                0x0000000000422c40                e1000_check_for_copper_link_generic
                0x0000000000422cc0                e1000_get_speed_and_duplex_copper_generic
                0x0000000000422d00                e1000_get_speed_and_duplex_fiber_serdes_generic
                0x0000000000422d10                e1000_get_hw_semaphore_generic
                0x0000000000422db0                e1000_put_hw_semaphore_generic
                0x0000000000422dd0                e1000_get_auto_rd_done_generic
                0x0000000000422ee0                e1000_valid_led_default_generic
                0x0000000000422f20                e1000_id_led_init_generic
                0x00000000004231f0                e1000_cleanup_led_generic
                0x0000000000423210                e1000_blink_led_generic
                0x0000000000423270                e1000_led_on_generic
                0x00000000004232b0                e1000_led_off_generic
                0x00000000004232f0                e1000_set_pcie_no_snoop_generic
                0x0000000000423320                e1000_disable_pcie_master_generic
                0x0000000000423390                e1000_reset_adaptive_generic
                0x00000000004233f0                e1000_update_adaptive_generic
                0x00000000004234b0                e1000_validate_mdi_setting_crossover_generic
                0x00000000004234c0                e1000_write_8bit_ctrl_reg_generic
 *fill*         0x000000000042351a        0x6 90909090
 .text          0x0000000000423520      0xa07 /usr/lib/gcc/x86_64-linux-gnu/4.6/../../../../lib/librte_pmd_e1000.a(e1000_manage.o)
                0x0000000000423520                e1000_calculate_checksum
                0x0000000000423610                e1000_mng_enable_host_if_generic
                0x0000000000423750                e1000_check_mng_mode_generic
                0x0000000000423770                e1000_enable_tx_pkt_filtering_generic
                0x00000000004238c0                e1000_mng_write_cmd_header_generic
                0x0000000000423910                e1000_mng_host_if_write_generic
                0x0000000000423ae0                e1000_mng_write_dhcp_info_generic
                0x0000000000423b90                e1000_enable_mng_pass_thru
                0x0000000000423c60                e1000_host_interface_command
                0x0000000000423d80                e1000_load_firmware
 *fill*         0x0000000000423f27        0x9 90909090
 .text          0x0000000000423f30      0x8c7 /usr/lib/gcc/x86_64-linux-gnu/4.6/../../../../lib/librte_pmd_e1000.a(e1000_mbx.o)
                0x00000000004242c0                e1000_write_posted_mbx
                0x00000000004243a0                e1000_read_posted_mbx
                0x0000000000424580                e1000_read_mbx
                0x00000000004245b0                e1000_write_mbx
                0x00000000004245e0                e1000_check_for_msg
                0x0000000000424600                e1000_check_for_ack
                0x0000000000424620                e1000_check_for_rst
                0x0000000000424640                e1000_init_mbx_ops_generic
                0x00000000004246a0                e1000_init_mbx_params_vf
                0x0000000000424740                e1000_init_mbx_params_pf
 *fill*         0x00000000004247f7        0x9 90909090
 .text          0x0000000000424800     0x2201 /usr/lib/gcc/x86_64-linux-gnu/4.6/../../../../lib/librte_pmd_e1000.a(e1000_nvm.o)
                0x0000000000424800                e1000_null_read_nvm
                0x0000000000424810                e1000_null_nvm_generic
                0x0000000000424820                e1000_null_led_default
                0x0000000000424830                e1000_null_write_nvm
                0x0000000000424d40                e1000_init_nvm_ops_generic
                0x0000000000424db0                e1000_poll_eerd_eewr_done
                0x0000000000424e20                e1000_acquire_nvm_generic
                0x0000000000424e80                e1000_stop_nvm
                0x0000000000424f30                e1000_release_nvm_generic
                0x0000000000424fc0                e1000_read_nvm_spi
                0x0000000000425570                e1000_read_nvm_microwire
                0x0000000000425bb0                e1000_read_nvm_eerd
                0x0000000000425c50                e1000_write_nvm_spi
                0x0000000000425de0                e1000_write_nvm_microwire
                0x0000000000425f80                e1000_read_pba_string_generic
                0x00000000004262f0                e1000_read_pba_length_generic
                0x00000000004263d0                e1000_write_pba_raw
                0x00000000004264e0                e1000_get_pba_block_size
                0x00000000004265d0                e1000_read_pba_raw
                0x0000000000426720                e1000_read_mac_addr_generic
                0x00000000004267a0                e1000_validate_nvm_checksum_generic
                0x0000000000426800                e1000_update_nvm_checksum_generic
                0x0000000000426880                e1000_get_fw_version
 *fill*         0x0000000000426a01        0xf 90909090
 .text          0x0000000000426a10       0x56 /usr/lib/gcc/x86_64-linux-gnu/4.6/../../../../lib/librte_pmd_e1000.a(e1000_osdep.o)
                0x0000000000426a10                e1000_write_pci_cfg
                0x0000000000426a20                e1000_read_pci_cfg
                0x0000000000426a30                e1000_pci_set_mwi
                0x0000000000426a40                e1000_pci_clear_mwi
                0x0000000000426a50                e1000_read_pcie_cap_reg
                0x0000000000426a60                e1000_write_pcie_cap_reg
 *fill*         0x0000000000426a66        0xa 90909090
 .text          0x0000000000426a70     0x4e03 /usr/lib/gcc/x86_64-linux-gnu/4.6/../../../../lib/librte_pmd_e1000.a(e1000_phy.o)
                0x0000000000426a70                e1000_null_set_page
                0x0000000000426a80                e1000_null_read_reg
                0x0000000000426a90                e1000_null_phy_generic
                0x0000000000426aa0                e1000_null_lplu_state
                0x0000000000426ab0                e1000_null_write_reg
                0x0000000000426ac0                e1000_read_i2c_byte_null
                0x0000000000426ad0                e1000_write_i2c_byte_null
                0x0000000000426b90                e1000_init_phy_ops_generic
                0x0000000000426cb0                e1000_check_reset_block_generic
                0x0000000000426cd0                e1000_get_phy_id
                0x0000000000426dc0                e1000_phy_reset_dsp_generic
                0x0000000000426e10                e1000_read_phy_reg_mdic
                0x0000000000426ed0                e1000_write_phy_reg_mdic
                0x0000000000427b60                e1000_read_phy_reg_i2c
                0x0000000000427be0                e1000_write_phy_reg_i2c
                0x0000000000427c60                e1000_read_sfp_data_byte
                0x0000000000427cd0                e1000_write_sfp_data_byte
                0x0000000000427d70                e1000_read_phy_reg_m88
                0x0000000000427e50                e1000_write_phy_reg_m88
                0x0000000000427f20                e1000_set_page_igp
                0x0000000000427fc0                e1000_read_phy_reg_igp
                0x0000000000428130                e1000_read_phy_reg_igp_locked
                0x0000000000428260                e1000_write_phy_reg_igp
                0x00000000004283e0                e1000_write_phy_reg_igp_locked
                0x0000000000428520                e1000_read_kmrn_reg_generic
                0x00000000004285b0                e1000_read_kmrn_reg_locked
                0x0000000000428610                e1000_write_kmrn_reg_generic
                0x0000000000428690                e1000_write_kmrn_reg_locked
                0x00000000004286c0                e1000_copper_link_setup_82577
                0x00000000004287a0                e1000_copper_link_setup_m88
                0x0000000000428a30                e1000_copper_link_setup_m88_gen2
                0x0000000000428ad0                e1000_copper_link_setup_igp
                0x0000000000428c50                e1000_phy_setup_autoneg
                0x0000000000428da0                e1000_copper_link_autoneg
                0x0000000000428e60                e1000_phy_force_speed_duplex_setup
                0x0000000000428f00                e1000_set_d3_lplu_state_generic
                0x0000000000429070                e1000_check_downshift_generic
                0x0000000000429130                e1000_check_polarity_m88
                0x0000000000429160                e1000_check_polarity_igp
                0x00000000004291d0                e1000_check_polarity_ife
                0x0000000000429220                e1000_wait_autoneg_generic
                0x00000000004292a0                e1000_phy_has_link_generic
                0x00000000004293e0                e1000_phy_force_speed_duplex_ife
                0x00000000004294c0                e1000_phy_force_speed_duplex_m88
                0x00000000004296f0                e1000_phy_force_speed_duplex_igp
                0x00000000004297d0                e1000_setup_copper_link_generic
                0x0000000000429840                e1000_get_cable_length_m88
                0x00000000004298c0                e1000_get_cable_length_m88_gen2
                0x0000000000429af0                e1000_get_cable_length_igp_2
                0x0000000000429d00                e1000_get_phy_info_m88
                0x0000000000429e40                e1000_get_phy_info_igp
                0x0000000000429f90                e1000_get_phy_info_ife
                0x000000000042a080                e1000_phy_sw_reset_generic
                0x000000000042a0f0                e1000_phy_hw_reset_generic
                0x000000000042a1a0                e1000_get_cfg_done_generic
                0x000000000042a1c0                e1000_phy_init_script_igp3
                0x000000000042a420                e1000_get_phy_type_from_id
                0x000000000042a580                e1000_determine_phy_address
                0x000000000042a730                e1000_write_phy_reg_bm
                0x000000000042a940                e1000_read_phy_reg_bm
                0x000000000042ab40                e1000_read_phy_reg_bm2
                0x000000000042acb0                e1000_write_phy_reg_bm2
                0x000000000042ae20                e1000_enable_phy_wakeup_reg_access_bm
                0x000000000042b030                e1000_disable_phy_wakeup_reg_access_bm
                0x000000000042b160                e1000_power_up_phy_copper
                0x000000000042b1f0                e1000_power_down_phy_copper
                0x000000000042b290                e1000_read_phy_reg_hv
                0x000000000042b2a0                e1000_read_phy_reg_hv_locked
                0x000000000042b2b0                e1000_read_phy_reg_page_hv
                0x000000000042b2c0                e1000_write_phy_reg_hv
                0x000000000042b2d0                e1000_write_phy_reg_hv_locked
                0x000000000042b2e0                e1000_write_phy_reg_page_hv
                0x000000000042b300                e1000_link_stall_workaround_hv
                0x000000000042b3b0                e1000_check_polarity_82577
                0x000000000042b3e0                e1000_phy_force_speed_duplex_82577
                0x000000000042b480                e1000_get_phy_info_82577
                0x000000000042b5a0                e1000_get_cable_length_82577
                0x000000000042b5e0                e1000_write_phy_reg_gs40g
                0x000000000042b730                e1000_read_phy_reg_gs40g
 *fill*         0x000000000042b873        0xd 90909090
 .text          0x000000000042b880      0x6e7 /usr/lib/gcc/x86_64-linux-gnu/4.6/../../../../lib/librte_pmd_e1000.a(e1000_vf.o)
                0x000000000042bde0                e1000_init_function_pointers_vf
                0x000000000042be10                e1000_vfta_set_vf
                0x000000000042be70                e1000_rlpml_set_vf
                0x000000000042bec0                e1000_promisc_set_vf
 *fill*         0x000000000042bf67        0x9 90909090
 .text          0x000000000042bf70     0x1dbf /usr/lib/gcc/x86_64-linux-gnu/4.6/../../../../lib/librte_pmd_e1000.a(e1000_80003es2lan.o)
                0x000000000042dd10                e1000_init_function_pointers_80003es2lan
 *fill*         0x000000000042dd2f        0x1 90909090
 .text          0x000000000042dd30      0x9af /usr/lib/gcc/x86_64-linux-gnu/4.6/../../../../lib/librte_pmd_e1000.a(e1000_82540.o)
                0x000000000042e6c0                e1000_init_function_pointers_82540
 *fill*         0x000000000042e6df        0x1 90909090
 .text          0x000000000042e6e0      0x8d6 /usr/lib/gcc/x86_64-linux-gnu/4.6/../../../../lib/librte_pmd_e1000.a(e1000_82542.o)
                0x000000000042ed30                e1000_init_function_pointers_82542
                0x000000000042ed50                e1000_translate_register_82542
 *fill*         0x000000000042efb6        0xa 90909090
 .text          0x000000000042efc0     0x4436 /usr/lib/gcc/x86_64-linux-gnu/4.6/../../../../lib/librte_pmd_ixgbe.a(ixgbe_ethdev.o)
                0x0000000000432de0                rte_ixgbe_pmd_init
                0x0000000000432e00                rte_ixgbevf_pmd_init
                0x0000000000432e20                ixgbe_vlan_hw_filter_disable
                0x0000000000432e40                ixgbe_vlan_hw_filter_enable
                0x0000000000432e90                ixgbe_vlan_hw_strip_disable_all
                0x0000000000432f50                ixgbe_vlan_hw_strip_enable_all
 *fill*         0x00000000004333f6        0xa 90909090
 .text          0x0000000000433400     0x1330 /usr/lib/gcc/x86_64-linux-gnu/4.6/../../../../lib/librte_pmd_ixgbe.a(ixgbe_fdir.o)
                0x00000000004338e0                ixgbe_fdir_configure
                0x0000000000433b50                ixgbe_fdir_add_signature_filter
                0x0000000000433c50                ixgbe_fdir_update_signature_filter
                0x0000000000433d50                ixgbe_fdir_remove_signature_filter
                0x0000000000433f70                ixgbe_fdir_set_masks
                0x0000000000434220                ixgbe_fdir_add_perfect_filter
                0x0000000000434330                ixgbe_fdir_update_perfect_filter
                0x0000000000434440                ixgbe_fdir_remove_perfect_filter
                0x0000000000434650                ixgbe_fdir_info_get
 .text          0x0000000000434730      0xc91 /usr/lib/gcc/x86_64-linux-gnu/4.6/../../../../lib/librte_pmd_ixgbe.a(ixgbe_pf.o)
                0x00000000004347d0                ixgbe_pf_host_init
                0x0000000000434b30                ixgbe_pf_host_configure
                0x0000000000434dc0                ixgbe_pf_mbx_process
 *fill*         0x00000000004353c1        0xf 90909090
 .text          0x00000000004353d0     0x6609 /usr/lib/gcc/x86_64-linux-gnu/4.6/../../../../lib/librte_pmd_ixgbe.a(ixgbe_common.o)
                0x00000000004353d0                ixgbe_get_mac_addr_generic
                0x0000000000435410                ixgbe_get_bus_info_generic
                0x0000000000435450                ixgbe_set_lan_id_multi_port_pcie
                0x0000000000435490                ixgbe_led_on_generic
                0x00000000004354c0                ixgbe_led_off_generic
                0x00000000004354f0                ixgbe_calc_eeprom_checksum_generic
                0x0000000000435610                ixgbe_validate_eeprom_checksum_generic
                0x00000000004356a0                ixgbe_update_eeprom_checksum_generic
                0x00000000004356e0                ixgbe_set_rar_generic
                0x00000000004357e0                ixgbe_clear_rar_generic
                0x0000000000435860                ixgbe_disable_mc_generic
                0x0000000000435880                ixgbe_enable_rx_dma_generic
                0x0000000000435950                ixgbe_release_swfw_sync
                0x00000000004359a0                ixgbe_acquire_swfw_sync
                0x0000000000435b70                ixgbe_blink_led_start_generic
                0x0000000000435c90                ixgbe_blink_led_stop_generic
                0x0000000000435db0                ixgbe_start_hw_generic
                0x0000000000436090                ixgbe_clear_hw_cntrs_generic
                0x0000000000436900                ixgbe_init_hw_generic
                0x0000000000436920                ixgbe_init_eeprom_params_generic
                0x00000000004369a0                ixgbe_enable_mc_generic
                0x0000000000436a50                ixgbe_update_uc_addr_list_generic
                0x0000000000436bc0                ixgbe_init_rx_addrs_generic
                0x0000000000436d30                ixgbe_read_eerd_buffer_generic
                0x0000000000436df0                ixgbe_read_eerd_generic
                0x0000000000436e00                ixgbe_stop_adapter_generic
                0x0000000000438be0                ixgbe_read_eeprom_buffer_bit_bang_generic
                0x0000000000438d00                ixgbe_write_eeprom_buffer_bit_bang_generic
                0x0000000000439010                ixgbe_read_eeprom_bit_bang_generic
                0x00000000004390f0                ixgbe_write_eeprom_generic
                0x00000000004391d0                ixgbe_init_ops_generic
                0x00000000004393c0                ixgbe_device_supports_autoneg_fc
                0x00000000004393f0                ixgbe_start_hw_gen2
                0x00000000004394d0                ixgbe_read_pba_string_generic
                0x0000000000439880                ixgbe_read_pba_num_generic
                0x0000000000439900                ixgbe_write_pba_raw
                0x0000000000439a10                ixgbe_get_pba_block_size
                0x0000000000439b00                ixgbe_read_pba_raw
                0x0000000000439c60                ixgbe_write_eewr_buffer_generic
                0x0000000000439d60                ixgbe_write_eewr_generic
                0x0000000000439e10                ixgbe_poll_eerd_eewr_done
                0x0000000000439e80                ixgbe_validate_mac_addr
                0x0000000000439ed0                ixgbe_add_uc_addr
                0x0000000000439f10                ixgbe_set_mta
                0x0000000000439fe0                ixgbe_update_mc_addr_list_generic
                0x000000000043a150                ixgbe_fc_autoneg
                0x000000000043a330                ixgbe_fc_enable_generic
                0x000000000043a8d0                ixgbe_disable_pcie_master
                0x000000000043a940                ixgbe_disable_sec_rx_path_generic
                0x000000000043a990                ixgbe_enable_sec_rx_path_generic
                0x000000000043a9b0                ixgbe_get_san_mac_addr_generic
                0x000000000043aaa0                ixgbe_set_san_mac_addr_generic
                0x000000000043ab70                ixgbe_get_pcie_msix_count_generic
                0x000000000043ab80                ixgbe_insert_mac_addr_generic
                0x000000000043acd0                ixgbe_clear_vmdq_generic
                0x000000000043ad80                ixgbe_set_vmdq_generic
                0x000000000043add0                ixgbe_set_vmdq_san_mac_generic
                0x000000000043ae40                ixgbe_init_uta_tables_generic
                0x000000000043ae70                ixgbe_find_vlvf_slot
                0x000000000043aed0                ixgbe_set_vlvf_generic
                0x000000000043b0b0                ixgbe_set_vfta_generic
                0x000000000043b160                ixgbe_clear_vfta_generic
                0x000000000043b1e0                ixgbe_check_mac_link_generic
                0x000000000043b2d0                ixgbe_get_wwn_prefix_generic
                0x000000000043b380                ixgbe_get_fcoe_boot_status_generic
                0x000000000043b420                ixgbe_set_mac_anti_spoofing
                0x000000000043b4f0                ixgbe_set_vlan_anti_spoofing
                0x000000000043b540                ixgbe_get_device_caps_generic
                0x000000000043b560                ixgbe_enable_relaxed_ordering_gen2
                0x000000000043b620                ixgbe_set_fw_drv_ver_generic
                0x000000000043b7c0                ixgbe_set_rxpba_generic
                0x000000000043b960                ixgbe_clear_tx_pending
 *fill*         0x000000000043b9d9        0x7 90909090
 .text          0x000000000043b9e0     0x347a /usr/lib/gcc/x86_64-linux-gnu/4.6/../../../../lib/librte_pmd_ixgbe.a(ixgbe_82599.o)
                0x000000000043b9e0                ixgbe_get_supported_physical_layer_82599
                0x000000000043bc30                ixgbe_enable_rx_dma_82599
                0x000000000043bc70                ixgbe_write_analog_reg8_82599
                0x000000000043bca0                ixgbe_read_analog_reg8_82599
                0x000000000043bcf0                ixgbe_enable_tx_laser_multispeed_fiber
                0x000000000043bd10                ixgbe_disable_tx_laser_multispeed_fiber
                0x000000000043bd30                ixgbe_identify_phy_82599
                0x000000000043be00                ixgbe_get_link_capabilities_82599
                0x000000000043bfb0                ixgbe_get_media_type_82599
                0x000000000043c070                ixgbe_start_hw_82599
                0x000000000043c140                ixgbe_flap_tx_laser_multispeed_fiber
                0x000000000043c1a0                ixgbe_reinit_fdir_tables_82599
                0x000000000043c450                ixgbe_init_fdir_signature_82599
                0x000000000043c580                ixgbe_init_fdir_perfect_82599
                0x000000000043c6b0                ixgbe_atr_compute_sig_hash_82599
                0x000000000043c780                ixgbe_fdir_add_signature_filter_82599
                0x000000000043c7f0                ixgbe_atr_compute_perfect_hash_82599
                0x000000000043c920                ixgbe_fdir_set_input_mask_82599
                0x000000000043cb50                ixgbe_fdir_write_perfect_filter_82599
                0x000000000043cd20                ixgbe_fdir_erase_perfect_filter_82599
                0x000000000043ce90                ixgbe_fdir_add_perfect_filter_82599
                0x000000000043cf80                ixgbe_verify_lesm_fw_enabled_82599
                0x000000000043d020                ixgbe_init_mac_link_ops_82599
                0x000000000043d0e0                ixgbe_reset_hw_82599
                0x000000000043d600                ixgbe_setup_mac_link_82599
                0x000000000043da10                ixgbe_setup_mac_link_smartspeed
                0x000000000043df10                ixgbe_setup_mac_link_multispeed_fiber
                0x000000000043e290                ixgbe_start_mac_link_82599
                0x000000000043e530                ixgbe_init_ops_82599
                0x000000000043e7f0                ixgbe_setup_sfp_modules_82599
                0x000000000043eb70                ixgbe_init_phy_ops_82599
                0x000000000043ecd0                ixgbe_reset_pipeline_82599
 *fill*         0x000000000043ee5a        0x6 90909090
 .text          0x000000000043ee60     0x22ee /usr/lib/gcc/x86_64-linux-gnu/4.6/../../../../lib/librte_pmd_ixgbe.a(ixgbe_phy.o)
                0x000000000043ee60                ixgbe_setup_phy_link_speed_generic
                0x000000000043eec0                ixgbe_get_phy_firmware_version_generic
                0x000000000043eee0                ixgbe_read_i2c_eeprom_generic
                0x000000000043ef00                ixgbe_write_i2c_eeprom_generic
                0x000000000043ef20                ixgbe_tn_check_overtemp
                0x000000000043ef70                ixgbe_write_phy_reg_generic
                0x000000000043f080                ixgbe_read_phy_reg_generic
                0x000000000043f290                ixgbe_setup_phy_link_generic
                0x000000000043f7a0                ixgbe_i2c_bus_clear
                0x000000000043f9f0                ixgbe_write_i2c_byte_generic
                0x000000000043fb10                ixgbe_read_i2c_byte_generic
                0x000000000043fdc0                ixgbe_identify_phy_generic
                0x000000000043ff80                ixgbe_reset_phy_generic
                0x0000000000440060                ixgbe_init_phy_ops_generic
                0x0000000000440120                ixgbe_validate_phy_addr
                0x0000000000440160                ixgbe_get_phy_id
                0x00000000004401e0                ixgbe_get_phy_type_from_id
                0x0000000000440220                ixgbe_get_copper_link_capabilities_generic
                0x0000000000440280                ixgbe_check_phy_link_tnx
                0x00000000004404d0                ixgbe_setup_phy_link_tnx
                0x00000000004408a0                ixgbe_get_phy_firmware_version_tnx
                0x00000000004408c0                ixgbe_identify_sfp_module_generic
                0x0000000000440d90                ixgbe_identify_module_generic
                0x0000000000440dc0                ixgbe_get_sfp_init_sequence_offsets
                0x0000000000440f70                ixgbe_reset_phy_nl
 *fill*         0x000000000044114e        0x2 90909090
 .text          0x0000000000441150      0xc4a /usr/lib/gcc/x86_64-linux-gnu/4.6/../../../../lib/librte_pmd_ixgbe.a(ixgbe_api.o)
                0x0000000000441150                ixgbe_set_mac_type
                0x0000000000441310                ixgbe_init_shared_code
                0x0000000000441380                ixgbe_init_hw
                0x00000000004413a0                ixgbe_reset_hw
                0x00000000004413c0                ixgbe_start_hw
                0x00000000004413e0                ixgbe_enable_relaxed_ordering
                0x0000000000441400                ixgbe_clear_hw_cntrs
                0x0000000000441420                ixgbe_get_media_type
                0x0000000000441440                ixgbe_get_mac_addr
                0x0000000000441460                ixgbe_get_san_mac_addr
                0x0000000000441480                ixgbe_set_san_mac_addr
                0x00000000004414a0                ixgbe_get_device_caps
                0x00000000004414c0                ixgbe_get_wwn_prefix
                0x00000000004414e0                ixgbe_get_fcoe_boot_status
                0x0000000000441500                ixgbe_get_bus_info
                0x0000000000441520                ixgbe_get_num_of_tx_queues
                0x0000000000441530                ixgbe_get_num_of_rx_queues
                0x0000000000441540                ixgbe_stop_adapter
                0x0000000000441560                ixgbe_read_pba_string
                0x0000000000441570                ixgbe_read_pba_num
                0x0000000000441580                ixgbe_identify_phy
                0x00000000004415c0                ixgbe_reset_phy
                0x0000000000441620                ixgbe_get_phy_firmware_version
                0x0000000000441640                ixgbe_read_phy_reg
                0x00000000004416c0                ixgbe_write_phy_reg
                0x0000000000441750                ixgbe_setup_phy_link
                0x0000000000441770                ixgbe_check_phy_link
                0x0000000000441790                ixgbe_setup_phy_link_speed
                0x00000000004417b0                ixgbe_check_link
                0x00000000004417d0                ixgbe_disable_tx_laser
                0x00000000004417f0                ixgbe_enable_tx_laser
                0x0000000000441810                ixgbe_flap_tx_laser
                0x0000000000441830                ixgbe_setup_link
                0x0000000000441850                ixgbe_get_link_capabilities
                0x0000000000441870                ixgbe_led_on
                0x0000000000441890                ixgbe_led_off
                0x00000000004418b0                ixgbe_blink_led_start
                0x00000000004418d0                ixgbe_blink_led_stop
                0x00000000004418f0                ixgbe_init_eeprom_params
                0x0000000000441910                ixgbe_write_eeprom
                0x0000000000441930                ixgbe_write_eeprom_buffer
                0x0000000000441950                ixgbe_read_eeprom
                0x0000000000441970                ixgbe_read_eeprom_buffer
                0x0000000000441990                ixgbe_validate_eeprom_checksum
                0x00000000004419b0                ixgbe_update_eeprom_checksum
                0x00000000004419d0                ixgbe_insert_mac_addr
                0x00000000004419f0                ixgbe_set_rar
                0x0000000000441a10                ixgbe_clear_rar
                0x0000000000441a30                ixgbe_set_vmdq
                0x0000000000441a50                ixgbe_set_vmdq_san_mac
                0x0000000000441a70                ixgbe_clear_vmdq
                0x0000000000441a90                ixgbe_init_rx_addrs
                0x0000000000441ab0                ixgbe_get_num_rx_addrs
                0x0000000000441ac0                ixgbe_update_uc_addr_list
                0x0000000000441ae0                ixgbe_update_mc_addr_list
                0x0000000000441b00                ixgbe_enable_mc
                0x0000000000441b20                ixgbe_disable_mc
                0x0000000000441b40                ixgbe_clear_vfta
                0x0000000000441b60                ixgbe_set_vfta
                0x0000000000441b80                ixgbe_set_vlvf
                0x0000000000441ba0                ixgbe_fc_enable
                0x0000000000441bc0                ixgbe_set_fw_drv_ver
                0x0000000000441bf0                ixgbe_read_analog_reg8
                0x0000000000441c10                ixgbe_write_analog_reg8
                0x0000000000441c30                ixgbe_init_uta_tables
                0x0000000000441c50                ixgbe_read_i2c_byte
                0x0000000000441c70                ixgbe_write_i2c_byte
                0x0000000000441ca0                ixgbe_write_i2c_eeprom
                0x0000000000441cc0                ixgbe_read_i2c_eeprom
                0x0000000000441ce0                ixgbe_get_supported_physical_layer
                0x0000000000441d00                ixgbe_enable_rx_dma
                0x0000000000441d20                ixgbe_disable_sec_rx_path
                0x0000000000441d40                ixgbe_enable_sec_rx_path
                0x0000000000441d60                ixgbe_acquire_swfw_semaphore
                0x0000000000441d80                ixgbe_release_swfw_semaphore
 *fill*         0x0000000000441d9a        0x6 90909090
 .text          0x0000000000441da0      0x8c2 /usr/lib/gcc/x86_64-linux-gnu/4.6/../../../../lib/librte_pmd_ixgbe.a(ixgbe_vf.o)
                0x0000000000441da0                ixgbe_start_hw_vf
                0x0000000000441db0                ixgbe_init_hw_vf
                0x0000000000441df0                ixgbe_set_vfta_vf
                0x0000000000441e60                ixgbe_get_mac_addr_vf
                0x0000000000441ea0                ixgbe_setup_mac_link_vf
                0x0000000000441eb0                ixgbe_check_mac_link_vf
                0x0000000000441f70                ixgbe_update_mc_addr_list_vf
                0x0000000000442090                ixgbe_stop_adapter_vf
                0x0000000000442130                ixgbe_reset_hw_vf
                0x0000000000442220                ixgbevf_set_uc_addr_vf
                0x00000000004422b0                ixgbe_set_rar_vf
                0x0000000000442370                ixgbe_init_ops_vf
                0x0000000000442450                ixgbe_get_num_of_tx_queues_vf
                0x0000000000442460                ixgbe_get_num_of_rx_queues_vf
                0x0000000000442470                ixgbevf_rlpml_set_vf
                0x00000000004424c0                ixgbevf_negotiate_api_version
                0x0000000000442540                ixgbevf_get_queues
 *fill*         0x0000000000442662        0xe 90909090
 .text          0x0000000000442670     0x2aef /usr/lib/gcc/x86_64-linux-gnu/4.6/../../../../lib/librte_pmd_ixgbe.a(ixgbe_dcb.o)
                0x0000000000442670                ixgbe_dcb_calculate_tc_credits
                0x0000000000442900                ixgbe_dcb_calculate_tc_credits_cee
                0x0000000000443650                ixgbe_dcb_unpack_pfc_cee
                0x0000000000443700                ixgbe_dcb_unpack_refill_cee
                0x0000000000443760                ixgbe_dcb_unpack_max_cee
                0x00000000004437b0                ixgbe_dcb_unpack_bwgid_cee
                0x0000000000443800                ixgbe_dcb_unpack_tsa_cee
                0x0000000000443850                ixgbe_dcb_get_tc_from_up
                0x00000000004438b0                ixgbe_dcb_unpack_map_cee
                0x0000000000443920                ixgbe_dcb_check_config_cee
                0x0000000000444420                ixgbe_dcb_get_tc_stats
                0x0000000000444460                ixgbe_dcb_get_pfc_stats
                0x00000000004444a0                ixgbe_dcb_config_rx_arbiter_cee
                0x00000000004446d0                ixgbe_dcb_config_tx_desc_arbiter_cee
                0x0000000000444890                ixgbe_dcb_config_tx_data_arbiter_cee
                0x0000000000444ac0                ixgbe_dcb_config_pfc_cee
                0x0000000000444c60                ixgbe_dcb_config_tc_stats
                0x0000000000444c90                ixgbe_dcb_hw_config_cee
                0x0000000000445030                ixgbe_dcb_config_pfc
                0x0000000000445070                ixgbe_dcb_hw_config
 *fill*         0x000000000044515f        0x1 90909090
 .text          0x0000000000445160      0xf29 /usr/lib/gcc/x86_64-linux-gnu/4.6/../../../../lib/librte_pmd_ixgbe.a(ixgbe_dcb_82599.o)
                0x0000000000445160                ixgbe_dcb_get_tc_stats_82599
                0x0000000000445220                ixgbe_dcb_get_pfc_stats_82599
                0x0000000000445280                ixgbe_dcb_config_rx_arbiter_82599
                0x00000000004454a0                ixgbe_dcb_config_tx_desc_arbiter_82599
                0x0000000000445720                ixgbe_dcb_config_tx_data_arbiter_82599
                0x0000000000445a10                ixgbe_dcb_config_pfc_82599
                0x0000000000445d30                ixgbe_dcb_config_tc_stats_82599
                0x0000000000445ee0                ixgbe_dcb_config_82599
                0x0000000000445ff0                ixgbe_dcb_hw_config_82599
 *fill*         0x0000000000446089        0x7 90909090
 .text          0x0000000000446090      0xc19 /usr/lib/gcc/x86_64-linux-gnu/4.6/../../../../lib/librte_pmd_ixgbe.a(ixgbe_dcb_82598.o)
                0x0000000000446090                ixgbe_dcb_get_tc_stats_82598
                0x0000000000446110                ixgbe_dcb_get_pfc_stats_82598
                0x0000000000446170                ixgbe_dcb_config_rx_arbiter_82598
                0x00000000004462f0                ixgbe_dcb_config_tx_desc_arbiter_82598
                0x0000000000446590                ixgbe_dcb_config_tx_data_arbiter_82598
                0x0000000000446830                ixgbe_dcb_config_pfc_82598
                0x0000000000446b40                ixgbe_dcb_config_tc_stats_82598
                0x0000000000446c20                ixgbe_dcb_hw_config_82598
 *fill*         0x0000000000446ca9        0x7 90909090
 .text          0x0000000000446cb0      0x8bb /usr/lib/gcc/x86_64-linux-gnu/4.6/../../../../lib/librte_pmd_ixgbe.a(ixgbe_mbx.o)
                0x0000000000446fc0                ixgbe_write_posted_mbx
                0x0000000000447080                ixgbe_read_posted_mbx
                0x0000000000447330                ixgbe_read_mbx
                0x0000000000447360                ixgbe_write_mbx
                0x0000000000447390                ixgbe_check_for_msg
                0x00000000004473b0                ixgbe_check_for_ack
                0x00000000004473d0                ixgbe_check_for_rst
                0x00000000004473f0                ixgbe_init_mbx_ops_generic
                0x0000000000447410                ixgbe_init_mbx_params_vf
                0x00000000004474b0                ixgbe_init_mbx_params_pf
 *fill*         0x000000000044756b        0x5 90909090
 .text          0x0000000000447570     0x8f6c /usr/lib/gcc/x86_64-linux-gnu/4.6/../../../../lib/librte_pmd_ixgbe.a(ixgbe_rxtx.o)
                0x0000000000447800                ixgbe_recv_pkts
                0x0000000000448ad0                ixgbe_recv_pkts_bulk_alloc
                0x0000000000448c60                ixgbe_xmit_pkts
                0x000000000044a0f0                ixgbe_recv_scattered_pkts
                0x000000000044d1f0                ixgbe_xmit_pkts_simple
                0x000000000044d2b0                ixgbe_dev_tx_queue_release
                0x000000000044d2f0                ixgbe_dev_tx_queue_setup
                0x000000000044d810                ixgbe_dev_rx_queue_release
                0x000000000044d840                ixgbe_dev_rx_queue_setup
                0x000000000044db80                ixgbe_dev_rx_queue_count
                0x000000000044dbf0                ixgbe_dev_rx_descriptor_done
                0x000000000044dc30                ixgbe_dev_clear_queues
                0x000000000044dce0                ixgbe_configure_dcb
                0x000000000044e820                ixgbe_dev_rx_init
                0x000000000044f340                ixgbe_dev_tx_init
                0x000000000044f5f0                ixgbe_dev_rxtx_start
                0x000000000044fc60                ixgbevf_dev_rx_init
                0x0000000000450120                ixgbevf_dev_tx_init
                0x0000000000450190                ixgbevf_dev_rxtx_start
 *fill*         0x00000000004504dc        0x4 90909090
 .text          0x00000000004504e0     0x16ff /usr/lib/gcc/x86_64-linux-gnu/4.6/../../../../lib/librte_pmd_ixgbe.a(ixgbe_82598.o)
                0x00000000004505a0                ixgbe_set_vmdq_82598
                0x0000000000450650                ixgbe_set_vfta_82598
                0x0000000000450760                ixgbe_get_supported_physical_layer_82598
                0x0000000000450920                ixgbe_enable_relaxed_ordering_82598
                0x00000000004509a0                ixgbe_set_lan_id_multi_port_pcie_82598
                0x0000000000450a20                ixgbe_read_i2c_eeprom_82598
                0x0000000000450b00                ixgbe_write_analog_reg8_82598
                0x0000000000450b30                ixgbe_read_analog_reg8_82598
                0x0000000000451080                ixgbe_fc_enable_82598
                0x0000000000451580                ixgbe_start_hw_82598
                0x0000000000451900                ixgbe_init_phy_ops_82598
                0x0000000000451a60                ixgbe_set_pcie_completion_timeout
                0x0000000000451a90                ixgbe_init_ops_82598
 *fill*         0x0000000000451bdf        0x1 90909090
 .text          0x0000000000451be0      0xe70 /usr/lib/gcc/x86_64-linux-gnu/4.6/../../../../lib/librte_pmd_ixgbe.a(ixgbe_x540.o)
                0x0000000000451be0                ixgbe_get_media_type_X540
                0x0000000000451bf0                ixgbe_setup_mac_link_X540
                0x0000000000451c00                ixgbe_get_supported_physical_layer_X540
                0x0000000000451c50                ixgbe_blink_led_start_X540
                0x0000000000451cc0                ixgbe_blink_led_stop_X540
                0x0000000000451d10                ixgbe_write_eewr_X540
                0x0000000000451d90                ixgbe_validate_eeprom_checksum_X540
                0x0000000000451e50                ixgbe_calc_eeprom_checksum_X540
                0x0000000000451f90                ixgbe_read_eerd_X540
                0x0000000000452010                ixgbe_write_eewr_buffer_X540
                0x00000000004520a0                ixgbe_read_eerd_buffer_X540
                0x0000000000452130                ixgbe_start_hw_X540
                0x0000000000452150                ixgbe_reset_hw_X540
                0x0000000000452340                ixgbe_init_eeprom_params_X540
                0x0000000000452390                ixgbe_acquire_swfw_sync_X540
                0x0000000000452590                ixgbe_release_swfw_sync_X540
                0x0000000000452670                ixgbe_update_eeprom_checksum_X540
                0x00000000004527e0                ixgbe_init_ops_X540
                0x0000000000452a40                ixgbe_get_link_capabilities_X540
 .text          0x0000000000452a50     0x1a95 /usr/lib/gcc/x86_64-linux-gnu/4.6/../../../../lib/librte_pmd_virtio.a(virtio_ethdev.o)
                0x0000000000454070                virtio_dev_queue_setup
                0x00000000004544d0                rte_virtio_pmd_init
 *fill*         0x00000000004544e5        0xb 90909090
 .text          0x00000000004544f0       0x78 /usr/lib/gcc/x86_64-linux-gnu/4.6/../../../../lib/librte_pmd_virtio.a(virtqueue.o)
                0x00000000004544f0                virtqueue_disable_intr
                0x0000000000454500                virtqueue_detatch_unused
 *fill*         0x0000000000454568        0x8 90909090
 .text          0x0000000000454570      0x143 /usr/lib/gcc/x86_64-linux-gnu/4.6/../../../../lib/librte_pmd_virtio.a(virtio_pci.o)
                0x0000000000454570                vtpci_read_dev_config
                0x00000000004545e0                vtpci_write_dev_config
                0x0000000000454660                vtpci_negotiate_features
                0x0000000000454670                vtpci_reset
                0x0000000000454680                vtpci_reinit_complete
                0x0000000000454690                vtpci_get_status
                0x00000000004546a0                vtpci_set_status
 *fill*         0x00000000004546b3        0xd 90909090
 .text          0x00000000004546c0     0x2c04 /usr/lib/gcc/x86_64-linux-gnu/4.6/../../../../lib/librte_pmd_virtio.a(virtio_rxtx.o)
                0x0000000000455340                virtio_dev_rxtx_start
                0x0000000000455390                virtio_dev_rx_queue_setup
                0x0000000000455400                virtio_dev_tx_queue_setup
                0x0000000000455450                virtio_recv_pkts
                0x0000000000456870                virtio_xmit_pkts
 *fill*         0x00000000004572c4        0xc 90909090
 .text          0x00000000004572d0      0x30b /usr/lib/gcc/x86_64-linux-gnu/4.6/../../../../lib/librte_mbuf.a(rte_mbuf.o)
                0x00000000004572d0                rte_ctrlmbuf_init
                0x0000000000457330                rte_pktmbuf_pool_init
                0x0000000000457350                rte_pktmbuf_init
                0x00000000004573e0                rte_mbuf_sanity_check
                0x0000000000457510                rte_pktmbuf_dump
 *fill*         0x00000000004575db        0x5 90909090
 .text          0x00000000004575e0     0x293b /usr/lib/gcc/x86_64-linux-gnu/4.6/../../../../lib/libethdev.a(rte_ethdev.o)
                0x0000000000457820                rte_eth_dev_allocate
                0x0000000000457a40                rte_eth_driver_register
                0x0000000000457a50                rte_eth_dev_socket_id
                0x0000000000457a80                rte_eth_dev_count
                0x0000000000457a90                rte_eth_dev_configure
                0x0000000000457ef0                rte_eth_dev_start
                0x0000000000458160                rte_eth_dev_stop
                0x00000000004581b0                rte_eth_dev_close
                0x0000000000458200                rte_eth_rx_queue_setup
                0x0000000000458320                rte_eth_tx_queue_setup
                0x0000000000458420                rte_eth_promiscuous_enable
                0x0000000000458460                rte_eth_promiscuous_disable
                0x00000000004584b0                rte_eth_promiscuous_get
                0x00000000004584e0                rte_eth_allmulticast_enable
                0x0000000000458520                rte_eth_allmulticast_disable
                0x0000000000458570                rte_eth_allmulticast_get
                0x00000000004585a0                rte_eth_link_get
                0x0000000000458630                rte_eth_link_get_nowait
                0x00000000004586c0                rte_eth_stats_get
                0x00000000004587f0                rte_eth_stats_reset
                0x0000000000458830                rte_eth_dev_set_tx_queue_stats_mapping
                0x0000000000458880                rte_eth_dev_set_rx_queue_stats_mapping
                0x00000000004588d0                rte_eth_dev_info_get
                0x0000000000458940                rte_eth_macaddr_get
                0x0000000000458970                rte_eth_dev_vlan_filter
                0x00000000004589d0                rte_eth_dev_set_vlan_strip_on_queue
                0x0000000000458a30                rte_eth_dev_set_vlan_ether_type
                0x0000000000458a80                rte_eth_dev_set_vlan_offload
                0x0000000000458bb0                rte_eth_dev_get_vlan_offload
                0x0000000000458c00                rte_eth_dev_fdir_add_signature_filter
                0x0000000000458c90                rte_eth_dev_fdir_update_signature_filter
                0x0000000000458d20                rte_eth_dev_fdir_remove_signature_filter
                0x0000000000458db0                rte_eth_dev_fdir_get_infos
                0x0000000000458e10                rte_eth_dev_fdir_add_perfect_filter
                0x0000000000458ec0                rte_eth_dev_fdir_update_perfect_filter
                0x0000000000458f70                rte_eth_dev_fdir_remove_perfect_filter
                0x0000000000459010                rte_eth_dev_fdir_set_masks
                0x0000000000459080                rte_eth_dev_flow_ctrl_set
                0x00000000004590e0                rte_eth_dev_priority_flow_ctrl_set
                0x0000000000459140                rte_eth_dev_rss_reta_update
                0x00000000004591f0                rte_eth_dev_rss_reta_query
                0x0000000000459250                rte_eth_led_on
                0x00000000004592a0                rte_eth_led_off
                0x00000000004592f0                rte_eth_dev_mac_addr_add
                0x0000000000459530                rte_eth_dev_mac_addr_remove
                0x0000000000459650                rte_eth_dev_set_vf_rxmode
                0x0000000000459720                rte_eth_dev_uc_hash_table_set
                0x0000000000459980                rte_eth_dev_uc_all_hash_table_set
                0x00000000004599d0                rte_eth_dev_set_vf_rx
                0x0000000000459a80                rte_eth_dev_set_vf_tx
                0x0000000000459b30                rte_eth_dev_set_vf_vlan_filter
                0x0000000000459ba0                rte_eth_mirror_rule_set
                0x0000000000459c30                rte_eth_mirror_rule_reset
                0x0000000000459c90                rte_eth_dev_callback_register
                0x0000000000459d70                rte_eth_dev_callback_unregister
                0x0000000000459e60                _rte_eth_dev_callback_process
 *fill*         0x0000000000459f1b        0x5 90909090
 .text          0x0000000000459f20     0x11c3 /usr/lib/gcc/x86_64-linux-gnu/4.6/../../../../lib/librte_malloc.a(rte_malloc.o)
                0x0000000000459f20                rte_free
                0x0000000000459f70                rte_malloc_socket
                0x000000000045a040                rte_malloc
                0x000000000045a0f0                rte_zmalloc_socket
                0x000000000045a1d0                rte_zmalloc
                0x000000000045a280                rte_calloc_socket
                0x000000000045a360                rte_calloc
                0x000000000045a420                rte_realloc
                0x000000000045aa40                rte_malloc_validate
                0x000000000045aa90                rte_malloc_get_socket_stats
                0x000000000045ab00                rte_malloc_dump_stats
                0x000000000045b0e0                rte_malloc_set_limit
 *fill*         0x000000000045b0e3        0xd 90909090
 .text          0x000000000045b0f0      0x3cf /usr/lib/gcc/x86_64-linux-gnu/4.6/../../../../lib/librte_malloc.a(malloc_elem.o)
                0x000000000045b0f0                malloc_elem_init
                0x000000000045b120                malloc_elem_mkend
                0x000000000045b160                malloc_elem_can_hold
                0x000000000045b190                malloc_elem_alloc
                0x000000000045b250                malloc_elem_free
                0x000000000045b360                malloc_elem_resize
 *fill*         0x000000000045b4bf        0x1 90909090
 .text          0x000000000045b4c0      0x573 /usr/lib/gcc/x86_64-linux-gnu/4.6/../../../../lib/librte_malloc.a(malloc_heap.o)
                0x000000000045b5f0                malloc_heap_alloc
                0x000000000045b9b0                malloc_heap_get_stats
 *fill*         0x000000000045ba33        0xd 90909090
 .text          0x000000000045ba40      0xa68 /usr/lib/gcc/x86_64-linux-gnu/4.6/../../../../lib/librte_mempool.a(rte_mempool.o)
                0x000000000045bb70                rte_mempool_create
                0x000000000045c0c0                rte_mempool_count
                0x000000000045c110                rte_mempool_audit
                0x000000000045c180                rte_mempool_dump
                0x000000000045c370                rte_mempool_list_dump
                0x000000000045c3f0                rte_mempool_lookup
 *fill*         0x000000000045c4a8        0x8 90909090
 .text          0x000000000045c4b0      0x668 /usr/lib/gcc/x86_64-linux-gnu/4.6/../../../../lib/librte_ring.a(rte_ring.o)
                0x000000000045c5e0                rte_ring_create
                0x000000000045c8b0                rte_ring_set_water_mark
                0x000000000045c8d0                rte_ring_dump
                0x000000000045c9e0                rte_ring_list_dump
                0x000000000045ca60                rte_ring_lookup
 *fill*         0x000000000045cb18        0x8 90909090
 .text          0x000000000045cb20     0x1da7 /usr/lib/gcc/x86_64-linux-gnu/4.6/../../../../lib/librte_eal.a(eal.o)
                0x000000000045cd70                rte_eal_get_configuration
                0x000000000045cd80                eal_parse_sysfs_value
                0x000000000045cf20                rte_set_application_usage_hook
                0x000000000045cf30                rte_eal_init
                0x000000000045e8b0                rte_eal_lcore_role
                0x000000000045e8c0                rte_eal_process_type
 *fill*         0x000000000045e8c7        0x9 90909090
 .text          0x000000000045e8d0      0xd0e /usr/lib/gcc/x86_64-linux-gnu/4.6/../../../../lib/librte_eal.a(eal_hugepage_info.o)
                0x000000000045efb0                eal_hugepage_info_init
 *fill*         0x000000000045f5de        0x2 90909090
 .text          0x000000000045f5e0     0x214b /usr/lib/gcc/x86_64-linux-gnu/4.6/../../../../lib/librte_eal.a(eal_memory.o)
                0x00000000004600c0                rte_eal_memory_init
 *fill*         0x000000000046172b        0x5 90909090
 .text          0x0000000000461730      0x3de /usr/lib/gcc/x86_64-linux-gnu/4.6/../../../../lib/librte_eal.a(eal_thread.o)
                0x0000000000461810                rte_eal_remote_launch
                0x00000000004618f0                eal_thread_init_master
                0x0000000000461920                eal_thread_loop
 *fill*         0x0000000000461b0e        0x2 90909090
 .text          0x0000000000461b10      0x1b7 /usr/lib/gcc/x86_64-linux-gnu/4.6/../../../../lib/librte_eal.a(eal_log.o)
                0x0000000000461c30                rte_eal_log_init
 *fill*         0x0000000000461cc7        0x9 90909090
 .text          0x0000000000461cd0     0x1d3d /usr/lib/gcc/x86_64-linux-gnu/4.6/../../../../lib/librte_eal.a(eal_pci.o)
                0x00000000004637b0                rte_eal_pci_probe_one_driver
                0x0000000000463980                rte_eal_pci_init
 *fill*         0x0000000000463a0d        0x3 90909090
 .text          0x0000000000463a10      0x179 /usr/lib/gcc/x86_64-linux-gnu/4.6/../../../../lib/librte_eal.a(eal_debug.o)
                0x0000000000463a10                rte_dump_stack
                0x0000000000463aa0                rte_dump_registers
                0x0000000000463ab0                rte_exit
 *fill*         0x0000000000463b89        0x7 90909090
 .text          0x0000000000463b90      0x575 /usr/lib/gcc/x86_64-linux-gnu/4.6/../../../../lib/librte_eal.a(eal_lcore.o)
                0x0000000000463fc0                rte_eal_cpu_init
 *fill*         0x0000000000464105        0xb 90909090
 .text          0x0000000000464110      0x3a9 /usr/lib/gcc/x86_64-linux-gnu/4.6/../../../../lib/librte_eal.a(eal_timer.o)
                0x0000000000464110                rte_delay_us
                0x0000000000464210                rte_get_tsc_hz
                0x0000000000464220                rte_eal_timer_init
 *fill*         0x00000000004644b9        0x7 90909090
 .text          0x00000000004644c0      0xa83 /usr/lib/gcc/x86_64-linux-gnu/4.6/../../../../lib/librte_eal.a(eal_interrupts.o)
                0x0000000000464900                rte_intr_callback_register
                0x0000000000464b40                rte_intr_callback_unregister
                0x0000000000464d30                rte_intr_enable
                0x0000000000464e00                rte_intr_disable
                0x0000000000464ed0                rte_eal_intr_init
 *fill*         0x0000000000464f43        0xd 90909090
 .text          0x0000000000464f50      0x596 /usr/lib/gcc/x86_64-linux-gnu/4.6/../../../../lib/librte_eal.a(eal_alarm.o)
                0x00000000004650a0                rte_eal_alarm_init
                0x00000000004650f0                rte_eal_alarm_set
                0x0000000000465300                rte_eal_alarm_cancel
 *fill*         0x00000000004654e6        0xa 90909090
 .text          0x00000000004654f0      0xd7a /usr/lib/gcc/x86_64-linux-gnu/4.6/../../../../lib/librte_eal.a(eal_common_memzone.o)
                0x0000000000465d60                rte_memzone_reserve
                0x0000000000465e20                rte_memzone_reserve_aligned
                0x0000000000465f30                rte_memzone_lookup
                0x0000000000466000                rte_memzone_dump
                0x00000000004660c0                rte_eal_memzone_init
 *fill*         0x000000000046626a        0x6 90909090
 .text          0x0000000000466270      0xde0 /usr/lib/gcc/x86_64-linux-gnu/4.6/../../../../lib/librte_eal.a(eal_common_log.o)
                0x00000000004662e0                rte_log_add_in_history
                0x0000000000466880                rte_log_set_history
                0x0000000000466890                rte_openlog_stream
                0x00000000004668b0                rte_set_log_level
                0x00000000004668c0                rte_set_log_type
                0x00000000004668f0                rte_log_cur_msg_loglevel
                0x0000000000466910                rte_log_cur_msg_logtype
                0x0000000000466930                rte_log_dump_history
                0x0000000000466e90                rte_vlog
                0x0000000000466ef0                rte_eal_log_early_init
                0x0000000000466f60                rte_eal_common_log_init
 .text          0x0000000000467050      0x29e /usr/lib/gcc/x86_64-linux-gnu/4.6/../../../../lib/librte_eal.a(eal_common_launch.o)
                0x0000000000467050                rte_eal_wait_lcore
                0x00000000004670a0                rte_eal_mp_remote_launch
                0x0000000000467230                rte_eal_get_lcore_state
                0x0000000000467240                rte_eal_mp_wait_lcore
 *fill*         0x00000000004672ee        0x2 90909090
 .text          0x00000000004672f0      0x4be /usr/lib/gcc/x86_64-linux-gnu/4.6/../../../../lib/librte_eal.a(eal_common_pci.o)
                0x0000000000467500                rte_eal_pci_probe
                0x0000000000467620                rte_eal_pci_dump
                0x0000000000467750                rte_eal_pci_register
                0x0000000000467770                rte_eal_pci_unregister
                0x00000000004677a0                rte_eal_pci_set_blacklist
 *fill*         0x00000000004677ae        0x2 90909090
 .text          0x00000000004677b0      0x118 /usr/lib/gcc/x86_64-linux-gnu/4.6/../../../../lib/librte_eal.a(eal_common_memory.o)
                0x00000000004677b0                rte_eal_get_physmem_layout
                0x00000000004677d0                rte_eal_get_physmem_size
                0x0000000000467810                rte_dump_physmem_layout
                0x0000000000467890                rte_memory_get_nchannel
                0x00000000004678b0                rte_memory_get_nrank
 *fill*         0x00000000004678c8        0x8 90909090
 .text          0x00000000004678d0      0x2d0 /usr/lib/gcc/x86_64-linux-gnu/4.6/../../../../lib/librte_eal.a(eal_common_tailqs.o)
                0x00000000004678d0                rte_eal_tailq_lookup
                0x0000000000467950                rte_eal_tailq_lookup_by_idx
                0x00000000004679c0                rte_eal_tailq_reserve
                0x0000000000467a40                rte_eal_tailq_reserve_by_idx
                0x0000000000467ab0                rte_dump_tailq
                0x0000000000467b40                rte_eal_tailqs_init
 .text          0x0000000000467ba0      0x1b3 /usr/lib/gcc/x86_64-linux-gnu/4.6/../../../../lib/librte_eal.a(eal_common_errno.o)
                0x0000000000467cd0                rte_strerror
 *fill*         0x0000000000467d53        0xd 90909090
 .text          0x0000000000467d60      0x41b /usr/lib/gcc/x86_64-linux-gnu/4.6/../../../../lib/librte_eal.a(eal_common_hexdump.o)
                0x0000000000467e90                rte_hexdump
                0x0000000000468050                rte_memdump
 *fill*         0x000000000046817b        0x5 90909090
 .text          0x0000000000468180      0x8ed /usr/lib/gcc/x86_64-linux-gnu/4.6/../../../../lib/librte_eal.a(eal_common_whitelist.o)
                0x00000000004682b0                eal_dev_whitelist_add_entry
                0x0000000000468320                eal_dev_whitelist_exists
                0x0000000000468330                eal_dev_whitelist_parse
                0x00000000004689b0                eal_dev_is_whitelisted
                0x0000000000468a50                eal_dev_whitelist_clear
 *fill*         0x0000000000468a6d        0x3 90909090
 .text          0x0000000000468a70      0x1cb /usr/lib/gcc/x86_64-linux-gnu/4.6/../../../../lib/librte_eal.a(eal_common_nonpci_devs.o)
                0x0000000000468ba0                rte_eal_non_pci_ethdev_init
 *fill*         0x0000000000468c3b        0x5 90909090
 .text          0x0000000000468c40     0x2814 /usr/lib/gcc/x86_64-linux-gnu/4.6/../../../../lib/librte_pmd_ring.a(rte_eth_ring.o)
                0x000000000046ad10                rte_eth_from_rings
                0x000000000046af60                rte_eth_ring_pair_create
                0x000000000046af70                rte_eth_ring_pair_attach
                0x000000000046af80                rte_pmd_ring_init
 *fill*         0x000000000046b454        0xc 90909090
 .text          0x000000000046b460       0x92 /usr/lib/x86_64-linux-gnu/libc_nonshared.a(elf-init.oS)
                0x000000000046b460                __libc_csu_init
                0x000000000046b4f0                __libc_csu_fini
 *fill*         0x000000000046b4f2        0xe 90909090
 .text          0x000000000046b500       0x36 /usr/lib/gcc/x86_64-linux-gnu/4.6/crtend.o
 *fill*         0x000000000046b536        0x2 90909090
 .text          0x000000000046b538        0x0 /usr/lib/gcc/x86_64-linux-gnu/4.6/../../../x86_64-linux-gnu/crtn.o
 *(.gnu.warning)

.fini           0x000000000046b538        0xe
 *(.fini)
 .fini          0x000000000046b538        0x4 /usr/lib/gcc/x86_64-linux-gnu/4.6/../../../x86_64-linux-gnu/crti.o
                0x000000000046b538                _fini
 .fini          0x000000000046b53c        0x5 /usr/lib/gcc/x86_64-linux-gnu/4.6/crtbegin.o
 .fini          0x000000000046b541        0x5 /usr/lib/gcc/x86_64-linux-gnu/4.6/../../../x86_64-linux-gnu/crtn.o
                0x000000000046b546                PROVIDE (__etext, .)
                0x000000000046b546                PROVIDE (_etext, .)
                0x000000000046b546                PROVIDE (etext, .)

.rodata         0x000000000046b560     0x51b0
 *(.rodata .rodata.* .gnu.linkonce.r.*)
 .rodata.cst4   0x000000000046b560        0x4 /usr/lib/gcc/x86_64-linux-gnu/4.6/../../../x86_64-linux-gnu/crt1.o
                0x000000000046b560                _IO_stdin_used
 .rodata.str1.1
                0x000000000046b564      0x170 main.o
                                        0x172 (size before relaxing)
 *fill*         0x000000000046b6d4        0x4 00
 .rodata.str1.8
                0x000000000046b6d8      0x148 main.o
 .rodata        0x000000000046b820      0x464 main.o
 *fill*         0x000000000046bc84        0x4 00
 .rodata.str1.8
                0x000000000046bc88      0x118 common.o
 .rodata.str1.1
                0x000000000046bda0      0x100 common.o
                                        0x103 (size before relaxing)
 .rodata        0x000000000046bea0       0x4b common.o
 *fill*         0x000000000046beeb        0x5 00
 .rodata.str1.8
                0x000000000046bef0       0xc0 server.o
 .rodata.str1.1
                0x000000000046bfb0       0x3e server.o
 .rodata        0x000000000046bfee        0xb server.o
 *fill*         0x000000000046bff9        0x7 00
 .rodata.cst8   0x000000000046c000       0x10 server.o
 .rodata.str1.8
                0x000000000046c010       0xc2 client.o
 .rodata.str1.1
                0x000000000046c0d2       0x11 client.o
 *fill*         0x000000000046c0e3        0x5 00
 .rodata.cst8   0x000000000046c0e8       0x18 client.o
                                         0x20 (size before relaxing)
 .rodata        0x000000000046c100       0x40 /usr/lib/gcc/x86_64-linux-gnu/4.6/../../../../lib/librte_pmd_e1000.a(igb_ethdev.o)
 .rodata.str1.1
                0x000000000046c140       0x26 /usr/lib/gcc/x86_64-linux-gnu/4.6/../../../../lib/librte_pmd_e1000.a(igb_ethdev.o)
 *fill*         0x000000000046c166        0xa 00
 .rodata.cst16  0x000000000046c170       0x10 /usr/lib/gcc/x86_64-linux-gnu/4.6/../../../../lib/librte_pmd_e1000.a(igb_ethdev.o)
 .rodata.str1.8
                0x000000000046c180       0xe6 /usr/lib/gcc/x86_64-linux-gnu/4.6/../../../../lib/librte_pmd_e1000.a(igb_rxtx.o)
 .rodata.str1.1
                0x000000000046c266       0x56 /usr/lib/gcc/x86_64-linux-gnu/4.6/../../../../lib/librte_pmd_e1000.a(igb_rxtx.o)
 *fill*         0x000000000046c2bc        0x4 00
 .rodata        0x000000000046c2c0       0x48 /usr/lib/gcc/x86_64-linux-gnu/4.6/../../../../lib/librte_pmd_e1000.a(igb_rxtx.o)
 .rodata.str1.1
                0x000000000046c308        0xb /usr/lib/gcc/x86_64-linux-gnu/4.6/../../../../lib/librte_pmd_e1000.a(em_ethdev.o)
                                         0x11 (size before relaxing)
 *fill*         0x000000000046c313        0xd 00
 .rodata        0x000000000046c320       0x74 /usr/lib/gcc/x86_64-linux-gnu/4.6/../../../../lib/librte_pmd_e1000.a(em_ethdev.o)
 *fill*         0x000000000046c394        0x4 00
 .rodata.str1.8
                0x000000000046c398      0x18c /usr/lib/gcc/x86_64-linux-gnu/4.6/../../../../lib/librte_pmd_e1000.a(em_rxtx.o)
 .rodata.str1.1
                0x0000000000000000       0x56 /usr/lib/gcc/x86_64-linux-gnu/4.6/../../../../lib/librte_pmd_e1000.a(em_rxtx.o)
 *fill*         0x000000000046c524       0x1c 00
 .rodata        0x000000000046c540       0x70 /usr/lib/gcc/x86_64-linux-gnu/4.6/../../../../lib/librte_pmd_e1000.a(em_rxtx.o)
 .rodata.str1.1
                0x000000000046c5b0       0x28 /usr/lib/gcc/x86_64-linux-gnu/4.6/../../../../lib/librte_pmd_e1000.a(igb_pf.o)
 .rodata.str1.8
                0x000000000046c5d8       0x54 /usr/lib/gcc/x86_64-linux-gnu/4.6/../../../../lib/librte_pmd_e1000.a(igb_pf.o)
 *fill*         0x000000000046c62c        0x4 00
 .rodata        0x000000000046c630       0x11 /usr/lib/gcc/x86_64-linux-gnu/4.6/../../../../lib/librte_pmd_e1000.a(igb_pf.o)
 *fill*         0x000000000046c641       0x1f 00
 .rodata        0x000000000046c660      0x100 /usr/lib/gcc/x86_64-linux-gnu/4.6/../../../../lib/librte_pmd_e1000.a(e1000_82541.o)
 .rodata        0x000000000046c760       0x78 /usr/lib/gcc/x86_64-linux-gnu/4.6/../../../../lib/librte_pmd_e1000.a(e1000_82571.o)
 *fill*         0x000000000046c7d8        0x8 00
 .rodata        0x000000000046c7e0       0x16 /usr/lib/gcc/x86_64-linux-gnu/4.6/../../../../lib/librte_pmd_e1000.a(e1000_82575.o)
 *fill*         0x000000000046c7f6        0x2 00
 .rodata        0x000000000046c7f8      0x100 /usr/lib/gcc/x86_64-linux-gnu/4.6/../../../../lib/librte_pmd_e1000.a(e1000_i210.o)
 .rodata        0x000000000046c8f8      0x100 /usr/lib/gcc/x86_64-linux-gnu/4.6/../../../../lib/librte_pmd_e1000.a(e1000_api.o)
 .rodata.str1.8
                0x000000000046c9f8       0xb7 /usr/lib/gcc/x86_64-linux-gnu/4.6/../../../../lib/librte_pmd_e1000.a(e1000_ich8lan.o)
 .rodata.str1.1
                0x0000000000000000        0x6 /usr/lib/gcc/x86_64-linux-gnu/4.6/../../../../lib/librte_pmd_e1000.a(e1000_ich8lan.o)
 *fill*         0x000000000046caaf        0x1 00
 .rodata        0x000000000046cab0       0x7e /usr/lib/gcc/x86_64-linux-gnu/4.6/../../../../lib/librte_pmd_e1000.a(e1000_ich8lan.o)
 *fill*         0x000000000046cb2e        0x2 00
 .rodata.cst16  0x000000000046cb30       0x10 /usr/lib/gcc/x86_64-linux-gnu/4.6/../../../../lib/librte_pmd_e1000.a(e1000_ich8lan.o)
 .rodata        0x000000000046cb40      0x102 /usr/lib/gcc/x86_64-linux-gnu/4.6/../../../../lib/librte_pmd_e1000.a(e1000_phy.o)
 *fill*         0x000000000046cc42        0xe 00
 .rodata        0x000000000046cc50       0x16 /usr/lib/gcc/x86_64-linux-gnu/4.6/../../../../lib/librte_pmd_e1000.a(e1000_80003es2lan.o)
 *fill*         0x000000000046cc66        0x2 00
 .rodata.str1.8
                0x000000000046cc68       0xf6 /usr/lib/gcc/x86_64-linux-gnu/4.6/../../../../lib/librte_pmd_ixgbe.a(ixgbe_ethdev.o)
 .rodata.str1.1
                0x000000000046cd5e       0x2c /usr/lib/gcc/x86_64-linux-gnu/4.6/../../../../lib/librte_pmd_ixgbe.a(ixgbe_ethdev.o)
 .rodata.str1.1
                0x0000000000000000       0x28 /usr/lib/gcc/x86_64-linux-gnu/4.6/../../../../lib/librte_pmd_ixgbe.a(ixgbe_pf.o)
 .rodata.str1.8
                0x0000000000000000       0x54 /usr/lib/gcc/x86_64-linux-gnu/4.6/../../../../lib/librte_pmd_ixgbe.a(ixgbe_pf.o)
 *fill*         0x000000000046cd8a        0x6 00
 .rodata        0x000000000046cd90       0x13 /usr/lib/gcc/x86_64-linux-gnu/4.6/../../../../lib/librte_pmd_ixgbe.a(ixgbe_pf.o)
 .rodata.str1.1
                0x000000000046cda3        0xd /usr/lib/gcc/x86_64-linux-gnu/4.6/../../../../lib/librte_pmd_ixgbe.a(ixgbe_common.o)
                                         0x13 (size before relaxing)
 .rodata        0x000000000046cdb0       0x11 /usr/lib/gcc/x86_64-linux-gnu/4.6/../../../../lib/librte_pmd_ixgbe.a(ixgbe_common.o)
 *fill*         0x000000000046cdc1        0xf 00
 .rodata.cst16  0x000000000046cdd0      0x100 /usr/lib/gcc/x86_64-linux-gnu/4.6/../../../../lib/librte_pmd_ixgbe.a(ixgbe_common.o)
 .rodata        0x000000000046ced0       0x30 /usr/lib/gcc/x86_64-linux-gnu/4.6/../../../../lib/librte_pmd_ixgbe.a(ixgbe_api.o)
 .rodata.str1.1
                0x0000000000000000       0x13 /usr/lib/gcc/x86_64-linux-gnu/4.6/../../../../lib/librte_pmd_ixgbe.a(ixgbe_vf.o)
 .rodata        0x000000000046cf00       0x11 /usr/lib/gcc/x86_64-linux-gnu/4.6/../../../../lib/librte_pmd_ixgbe.a(ixgbe_vf.o)
 .rodata.str1.1
                0x0000000000000000       0x13 /usr/lib/gcc/x86_64-linux-gnu/4.6/../../../../lib/librte_pmd_ixgbe.a(ixgbe_dcb_82599.o)
 *fill*         0x000000000046cf11        0xf 00
 .rodata        0x000000000046cf20       0x17 /usr/lib/gcc/x86_64-linux-gnu/4.6/../../../../lib/librte_pmd_ixgbe.a(ixgbe_dcb_82599.o)
 *fill*         0x000000000046cf37        0x1 00
 .rodata.str1.8
                0x000000000046cf38      0x19e /usr/lib/gcc/x86_64-linux-gnu/4.6/../../../../lib/librte_pmd_ixgbe.a(ixgbe_rxtx.o)
                                        0x27e (size before relaxing)
 .rodata.str1.1
                0x0000000000000000       0x56 /usr/lib/gcc/x86_64-linux-gnu/4.6/../../../../lib/librte_pmd_ixgbe.a(ixgbe_rxtx.o)
 *fill*         0x000000000046d0d6        0xa 00
 .rodata        0x000000000046d0e0       0x68 /usr/lib/gcc/x86_64-linux-gnu/4.6/../../../../lib/librte_pmd_ixgbe.a(ixgbe_rxtx.o)
 .rodata        0x000000000046d148      0x178 /usr/lib/gcc/x86_64-linux-gnu/4.6/../../../../lib/librte_pmd_ixgbe.a(ixgbe_82598.o)
 .rodata.str1.1
                0x000000000046d2c0       0x63 /usr/lib/gcc/x86_64-linux-gnu/4.6/../../../../lib/librte_pmd_virtio.a(virtio_ethdev.o)
 .rodata.str1.1
                0x000000000046d323        0xe /usr/lib/gcc/x86_64-linux-gnu/4.6/../../../../lib/librte_pmd_virtio.a(virtio_rxtx.o)
 *fill*         0x000000000046d331        0x7 00
 .rodata.str1.8
                0x000000000046d338       0x53 /usr/lib/gcc/x86_64-linux-gnu/4.6/../../../../lib/librte_pmd_virtio.a(virtio_rxtx.o)
 .rodata.str1.1
                0x000000000046d38b       0x97 /usr/lib/gcc/x86_64-linux-gnu/4.6/../../../../lib/librte_mbuf.a(rte_mbuf.o)
                                         0x9d (size before relaxing)
 *fill*         0x000000000046d422        0x6 00
 .rodata.str1.8
                0x000000000046d428       0x93 /usr/lib/gcc/x86_64-linux-gnu/4.6/../../../../lib/librte_mbuf.a(rte_mbuf.o)
 *fill*         0x000000000046d4bb        0x5 00
 .rodata        0x000000000046d4c0       0x16 /usr/lib/gcc/x86_64-linux-gnu/4.6/../../../../lib/librte_mbuf.a(rte_mbuf.o)
 .rodata.str1.1
                0x000000000046d4d6       0x61 /usr/lib/gcc/x86_64-linux-gnu/4.6/../../../../lib/libethdev.a(rte_ethdev.o)
                                         0x67 (size before relaxing)
 *fill*         0x000000000046d537        0x1 00
 .rodata.str1.8
                0x000000000046d538       0x6b /usr/lib/gcc/x86_64-linux-gnu/4.6/../../../../lib/libethdev.a(rte_ethdev.o)
 *fill*         0x000000000046d5a3        0xd 00
 .rodata        0x000000000046d5b0       0x31 /usr/lib/gcc/x86_64-linux-gnu/4.6/../../../../lib/libethdev.a(rte_ethdev.o)
 .rodata.str1.1
                0x000000000046d5e1       0x7c /usr/lib/gcc/x86_64-linux-gnu/4.6/../../../../lib/librte_malloc.a(rte_malloc.o)
                                         0x82 (size before relaxing)
 *fill*         0x000000000046d65d        0x3 00
 .rodata.str1.8
                0x000000000046d660       0x55 /usr/lib/gcc/x86_64-linux-gnu/4.6/../../../../lib/librte_malloc.a(rte_malloc.o)
 .rodata        0x000000000046d6b5       0x15 /usr/lib/gcc/x86_64-linux-gnu/4.6/../../../../lib/librte_malloc.a(rte_malloc.o)
 .rodata.str1.1
                0x000000000046d6ca       0x19 /usr/lib/gcc/x86_64-linux-gnu/4.6/../../../../lib/librte_malloc.a(malloc_elem.o)
                                         0x1f (size before relaxing)
 *fill*         0x000000000046d6e3        0xd 00
 .rodata        0x000000000046d6f0       0x16 /usr/lib/gcc/x86_64-linux-gnu/4.6/../../../../lib/librte_malloc.a(malloc_elem.o)
 .rodata.str1.1
                0x000000000046d706       0x17 /usr/lib/gcc/x86_64-linux-gnu/4.6/../../../../lib/librte_malloc.a(malloc_heap.o)
 .rodata.str1.1
                0x000000000046d71d      0x10d /usr/lib/gcc/x86_64-linux-gnu/4.6/../../../../lib/librte_mempool.a(rte_mempool.o)
                                        0x116 (size before relaxing)
 *fill*         0x000000000046d82a        0x6 00
 .rodata.str1.8
                0x000000000046d830       0x40 /usr/lib/gcc/x86_64-linux-gnu/4.6/../../../../lib/librte_mempool.a(rte_mempool.o)
 .rodata        0x000000000046d870       0x14 /usr/lib/gcc/x86_64-linux-gnu/4.6/../../../../lib/librte_mempool.a(rte_mempool.o)
 *fill*         0x000000000046d884        0x4 00
 .rodata.cst8   0x000000000046d888        0x8 /usr/lib/gcc/x86_64-linux-gnu/4.6/../../../../lib/librte_mempool.a(rte_mempool.o)
 .rodata.str1.8
                0x000000000046d890       0x5a /usr/lib/gcc/x86_64-linux-gnu/4.6/../../../../lib/librte_ring.a(rte_ring.o)
 .rodata.str1.1
                0x000000000046d8ea       0x8a /usr/lib/gcc/x86_64-linux-gnu/4.6/../../../../lib/librte_ring.a(rte_ring.o)
                                         0xbe (size before relaxing)
 *fill*         0x000000000046d974        0x4 00
 .rodata.str1.8
                0x000000000046d978      0xa8a /usr/lib/gcc/x86_64-linux-gnu/4.6/../../../../lib/librte_eal.a(eal.o)
 .rodata.str1.1
                0x000000000046e402      0x2a2 /usr/lib/gcc/x86_64-linux-gnu/4.6/../../../../lib/librte_eal.a(eal.o)
                                        0x2aa (size before relaxing)
 *fill*         0x000000000046e6a4       0x1c 00
 .rodata        0x000000000046e6c0      0x1b6 /usr/lib/gcc/x86_64-linux-gnu/4.6/../../../../lib/librte_eal.a(eal.o)
 *fill*         0x000000000046e876        0xa 00
 .rodata.cst16  0x000000000046e880       0x10 /usr/lib/gcc/x86_64-linux-gnu/4.6/../../../../lib/librte_eal.a(eal.o)
 .rodata.str1.1
                0x000000000046e890       0x50 /usr/lib/gcc/x86_64-linux-gnu/4.6/../../../../lib/librte_eal.a(eal_hugepage_info.o)
                                         0x58 (size before relaxing)
 .rodata.str1.8
                0x000000000046e8e0      0x1ac /usr/lib/gcc/x86_64-linux-gnu/4.6/../../../../lib/librte_eal.a(eal_hugepage_info.o)
 *fill*         0x000000000046ea8c        0x4 00
 .rodata        0x000000000046ea90       0x74 /usr/lib/gcc/x86_64-linux-gnu/4.6/../../../../lib/librte_eal.a(eal_hugepage_info.o)
 .rodata.str1.1
                0x000000000046eb04      0x118 /usr/lib/gcc/x86_64-linux-gnu/4.6/../../../../lib/librte_eal.a(eal_memory.o)
                                        0x128 (size before relaxing)
 *fill*         0x000000000046ec1c        0x4 00
 .rodata.str1.8
                0x000000000046ec20      0x64f /usr/lib/gcc/x86_64-linux-gnu/4.6/../../../../lib/librte_eal.a(eal_memory.o)
 *fill*         0x000000000046f26f        0x1 00
 .rodata        0x000000000046f270       0x60 /usr/lib/gcc/x86_64-linux-gnu/4.6/../../../../lib/librte_eal.a(eal_memory.o)
 .rodata.str1.1
                0x000000000046f2d0       0x69 /usr/lib/gcc/x86_64-linux-gnu/4.6/../../../../lib/librte_eal.a(eal_thread.o)
                                         0x6f (size before relaxing)
 *fill*         0x000000000046f339        0x7 00
 .rodata.str1.8
                0x000000000046f340       0x98 /usr/lib/gcc/x86_64-linux-gnu/4.6/../../../../lib/librte_eal.a(eal_thread.o)
 *fill*         0x000000000046f3d8        0x8 00
 .rodata        0x000000000046f3e0       0x50 /usr/lib/gcc/x86_64-linux-gnu/4.6/../../../../lib/librte_eal.a(eal_thread.o)
 .rodata.str1.1
                0x000000000046f430        0x3 /usr/lib/gcc/x86_64-linux-gnu/4.6/../../../../lib/librte_eal.a(eal_log.o)
                                          0x6 (size before relaxing)
 *fill*         0x000000000046f433        0xd 00
 .rodata        0x000000000046f440       0x20 /usr/lib/gcc/x86_64-linux-gnu/4.6/../../../../lib/librte_eal.a(eal_log.o)
 .rodata.str1.1
                0x000000000046f460      0x144 /usr/lib/gcc/x86_64-linux-gnu/4.6/../../../../lib/librte_eal.a(eal_pci.o)
                                        0x14f (size before relaxing)
 *fill*         0x000000000046f5a4        0x4 00
 .rodata.str1.8
                0x000000000046f5a8      0x3d0 /usr/lib/gcc/x86_64-linux-gnu/4.6/../../../../lib/librte_eal.a(eal_pci.o)
                                        0x448 (size before relaxing)
 *fill*         0x000000000046f978        0x8 00
 .rodata        0x000000000046f980       0xe9 /usr/lib/gcc/x86_64-linux-gnu/4.6/../../../../lib/librte_eal.a(eal_pci.o)
 .rodata.str1.1
                0x000000000046fa69       0x1a /usr/lib/gcc/x86_64-linux-gnu/4.6/../../../../lib/librte_eal.a(eal_debug.o)
 *fill*         0x000000000046fa83        0x5 00
 .rodata.str1.8
                0x000000000046fa88       0x2d /usr/lib/gcc/x86_64-linux-gnu/4.6/../../../../lib/librte_eal.a(eal_debug.o)
 *fill*         0x000000000046fab5        0x3 00
 .rodata.str1.8
                0x000000000046fab8      0x1f8 /usr/lib/gcc/x86_64-linux-gnu/4.6/../../../../lib/librte_eal.a(eal_lcore.o)
 .rodata.str1.1
                0x000000000046fcb0       0x4c /usr/lib/gcc/x86_64-linux-gnu/4.6/../../../../lib/librte_eal.a(eal_lcore.o)
                                         0x52 (size before relaxing)
 *fill*         0x000000000046fcfc        0x4 00
 .rodata        0x000000000046fd00       0x11 /usr/lib/gcc/x86_64-linux-gnu/4.6/../../../../lib/librte_eal.a(eal_lcore.o)
 .rodata.str1.1
                0x0000000000000000        0x6 /usr/lib/gcc/x86_64-linux-gnu/4.6/../../../../lib/librte_eal.a(eal_timer.o)
 *fill*         0x000000000046fd11        0x7 00
 .rodata.str1.8
                0x000000000046fd18       0xc8 /usr/lib/gcc/x86_64-linux-gnu/4.6/../../../../lib/librte_eal.a(eal_timer.o)
 .rodata        0x000000000046fde0       0x35 /usr/lib/gcc/x86_64-linux-gnu/4.6/../../../../lib/librte_eal.a(eal_timer.o)
 *fill*         0x000000000046fe15        0x3 00
 .rodata.cst8   0x000000000046fe18       0x10 /usr/lib/gcc/x86_64-linux-gnu/4.6/../../../../lib/librte_eal.a(eal_timer.o)
                                         0x18 (size before relaxing)
 .rodata.str1.8
                0x000000000046fe28      0x1fd /usr/lib/gcc/x86_64-linux-gnu/4.6/../../../../lib/librte_eal.a(eal_interrupts.o)
 .rodata.str1.1
                0x0000000000470025       0x4c /usr/lib/gcc/x86_64-linux-gnu/4.6/../../../../lib/librte_eal.a(eal_interrupts.o)
                                         0x54 (size before relaxing)
 *fill*         0x0000000000470071        0xf 00
 .rodata        0x0000000000470080       0x20 /usr/lib/gcc/x86_64-linux-gnu/4.6/../../../../lib/librte_eal.a(eal_interrupts.o)
 .rodata.str1.8
                0x00000000004700a0      0x148 /usr/lib/gcc/x86_64-linux-gnu/4.6/../../../../lib/librte_eal.a(eal_common_memzone.o)
 .rodata.str1.1
                0x0000000000000000        0x3 /usr/lib/gcc/x86_64-linux-gnu/4.6/../../../../lib/librte_eal.a(eal_common_memzone.o)
 *fill*         0x00000000004701e8       0x18 00
 .rodata        0x0000000000470200       0x65 /usr/lib/gcc/x86_64-linux-gnu/4.6/../../../../lib/librte_eal.a(eal_common_memzone.o)
 .rodata.str1.1
                0x0000000000470265        0xc /usr/lib/gcc/x86_64-linux-gnu/4.6/../../../../lib/librte_eal.a(eal_common_log.o)
                                          0xf (size before relaxing)
 *fill*         0x0000000000470271        0x7 00
 .rodata.str1.8
                0x0000000000470278       0x56 /usr/lib/gcc/x86_64-linux-gnu/4.6/../../../../lib/librte_eal.a(eal_common_log.o)
 *fill*         0x00000000004702ce       0x12 00
 .rodata        0x00000000004702e0       0x38 /usr/lib/gcc/x86_64-linux-gnu/4.6/../../../../lib/librte_eal.a(eal_common_log.o)
 .rodata.str1.1
                0x0000000000470318       0x40 /usr/lib/gcc/x86_64-linux-gnu/4.6/../../../../lib/librte_eal.a(eal_common_pci.o)
                                         0x4d (size before relaxing)
 .rodata.str1.8
                0x0000000000470358       0x33 /usr/lib/gcc/x86_64-linux-gnu/4.6/../../../../lib/librte_eal.a(eal_common_pci.o)
 *fill*         0x000000000047038b        0x5 00
 .rodata.str1.8
                0x0000000000470390       0x62 /usr/lib/gcc/x86_64-linux-gnu/4.6/../../../../lib/librte_eal.a(eal_common_memory.o)
 *fill*         0x00000000004703f2        0x6 00
 .rodata.str1.8
                0x00000000004703f8       0x31 /usr/lib/gcc/x86_64-linux-gnu/4.6/../../../../lib/librte_eal.a(eal_common_tailqs.o)
                                         0x59 (size before relaxing)
 .rodata.str1.1
                0x0000000000470429       0x61 /usr/lib/gcc/x86_64-linux-gnu/4.6/../../../../lib/librte_eal.a(eal_common_tailqs.o)
 *fill*         0x000000000047048a        0x6 00
 .rodata        0x0000000000470490       0x1c /usr/lib/gcc/x86_64-linux-gnu/4.6/../../../../lib/librte_eal.a(eal_common_tailqs.o)
 *fill*         0x00000000004704ac        0x4 00
 .rodata.str1.8
                0x00000000004704b0       0x22 /usr/lib/gcc/x86_64-linux-gnu/4.6/../../../../lib/librte_eal.a(eal_common_errno.o)
 .rodata.str1.1
                0x00000000004704d2       0x43 /usr/lib/gcc/x86_64-linux-gnu/4.6/../../../../lib/librte_eal.a(eal_common_errno.o)
 .rodata.str1.1
                0x0000000000470515       0x3f /usr/lib/gcc/x86_64-linux-gnu/4.6/../../../../lib/librte_eal.a(eal_common_hexdump.o)
                                         0x45 (size before relaxing)
 .rodata.str1.1
                0x0000000000470554       0x1a /usr/lib/gcc/x86_64-linux-gnu/4.6/../../../../lib/librte_eal.a(eal_common_whitelist.o)
                                         0x3f (size before relaxing)
 *fill*         0x000000000047056e        0x2 00
 .rodata.str1.8
                0x0000000000470570       0xb4 /usr/lib/gcc/x86_64-linux-gnu/4.6/../../../../lib/librte_eal.a(eal_common_whitelist.o)
 *fill*         0x0000000000470624        0xc 00
 .rodata        0x0000000000470630       0x18 /usr/lib/gcc/x86_64-linux-gnu/4.6/../../../../lib/librte_eal.a(eal_common_whitelist.o)
 .rodata.str1.1
                0x0000000000000000       0x16 /usr/lib/gcc/x86_64-linux-gnu/4.6/../../../../lib/librte_eal.a(eal_common_nonpci_devs.o)
 .rodata.str1.1
                0x0000000000470648       0x30 /usr/lib/gcc/x86_64-linux-gnu/4.6/../../../../lib/librte_pmd_ring.a(rte_eth_ring.o)
 .rodata.str1.8
                0x0000000000470678       0x90 /usr/lib/gcc/x86_64-linux-gnu/4.6/../../../../lib/librte_pmd_ring.a(rte_eth_ring.o)
                                         0x89 (size before relaxing)
 .rodata        0x0000000000470708        0x8 /usr/lib/gcc/x86_64-linux-gnu/4.6/../../../../lib/librte_pmd_ring.a(rte_eth_ring.o)

.rodata1
 *(.rodata1)

.eh_frame_hdr   0x0000000000470710     0x29ec
 *(.eh_frame_hdr)
 .eh_frame_hdr  0x0000000000470710     0x29ec /usr/lib/gcc/x86_64-linux-gnu/4.6/../../../x86_64-linux-gnu/crt1.o

.eh_frame       0x0000000000473100     0xcc2c
 *(.eh_frame)
 .eh_frame      0x0000000000473100       0x40 /usr/lib/gcc/x86_64-linux-gnu/4.6/../../../x86_64-linux-gnu/crt1.o
 .eh_frame      0x0000000000473140       0x70 main.o
                                         0x88 (size before relaxing)
 .eh_frame      0x00000000004731b0      0x2e0 common.o
                                        0x2c0 (size before relaxing)
 .eh_frame      0x0000000000473490       0x38 server.o
                                         0x50 (size before relaxing)
 .eh_frame      0x00000000004734c8       0x80 client.o
                                         0x98 (size before relaxing)
 .eh_frame      0x0000000000473548      0x550 /usr/lib/gcc/x86_64-linux-gnu/4.6/../../../../lib/librte_pmd_e1000.a(igb_ethdev.o)
                                        0x518 (size before relaxing)
 .eh_frame      0x0000000000473a98      0x430 /usr/lib/gcc/x86_64-linux-gnu/4.6/../../../../lib/librte_pmd_e1000.a(igb_rxtx.o)
                                        0x428 (size before relaxing)
 .eh_frame      0x0000000000473ec8      0x328 /usr/lib/gcc/x86_64-linux-gnu/4.6/../../../../lib/librte_pmd_e1000.a(em_ethdev.o)
                                        0x300 (size before relaxing)
 .eh_frame      0x00000000004741f0      0x340 /usr/lib/gcc/x86_64-linux-gnu/4.6/../../../../lib/librte_pmd_e1000.a(em_rxtx.o)
                                        0x338 (size before relaxing)
 .eh_frame      0x0000000000474530       0xd0 /usr/lib/gcc/x86_64-linux-gnu/4.6/../../../../lib/librte_pmd_e1000.a(igb_pf.o)
                                         0xe0 (size before relaxing)
 .eh_frame      0x0000000000474600      0x2d0 /usr/lib/gcc/x86_64-linux-gnu/4.6/../../../../lib/librte_pmd_e1000.a(e1000_82541.o)
                                        0x2a8 (size before relaxing)
 .eh_frame      0x00000000004748d0      0x338 /usr/lib/gcc/x86_64-linux-gnu/4.6/../../../../lib/librte_pmd_e1000.a(e1000_82543.o)
                                        0x300 (size before relaxing)
 .eh_frame      0x0000000000474c08      0x490 /usr/lib/gcc/x86_64-linux-gnu/4.6/../../../../lib/librte_pmd_e1000.a(e1000_82571.o)
                                        0x440 (size before relaxing)
 .eh_frame      0x0000000000475098      0x918 /usr/lib/gcc/x86_64-linux-gnu/4.6/../../../../lib/librte_pmd_e1000.a(e1000_82575.o)
                                        0x8a0 (size before relaxing)
 .eh_frame      0x00000000004759b0      0x3e8 /usr/lib/gcc/x86_64-linux-gnu/4.6/../../../../lib/librte_pmd_e1000.a(e1000_i210.o)
                                        0x3e0 (size before relaxing)
 .eh_frame      0x0000000000475d98      0x608 /usr/lib/gcc/x86_64-linux-gnu/4.6/../../../../lib/librte_pmd_e1000.a(e1000_api.o)
                                        0x528 (size before relaxing)
 .eh_frame      0x00000000004763a0      0x768 /usr/lib/gcc/x86_64-linux-gnu/4.6/../../../../lib/librte_pmd_e1000.a(e1000_ich8lan.o)
                                        0x6f0 (size before relaxing)
 .eh_frame      0x0000000000476b08      0x698 /usr/lib/gcc/x86_64-linux-gnu/4.6/../../../../lib/librte_pmd_e1000.a(e1000_mac.o)
                                        0x608 (size before relaxing)
 .eh_frame      0x00000000004771a0      0x1c0 /usr/lib/gcc/x86_64-linux-gnu/4.6/../../../../lib/librte_pmd_e1000.a(e1000_manage.o)
 .eh_frame      0x0000000000477360      0x238 /usr/lib/gcc/x86_64-linux-gnu/4.6/../../../../lib/librte_pmd_e1000.a(e1000_mbx.o)
                                        0x200 (size before relaxing)
 .eh_frame      0x0000000000477598      0x540 /usr/lib/gcc/x86_64-linux-gnu/4.6/../../../../lib/librte_pmd_e1000.a(e1000_nvm.o)
                                        0x510 (size before relaxing)
 .eh_frame      0x0000000000477ad8       0x90 /usr/lib/gcc/x86_64-linux-gnu/4.6/../../../../lib/librte_pmd_e1000.a(e1000_osdep.o)
 .eh_frame      0x0000000000477b68      0xec0 /usr/lib/gcc/x86_64-linux-gnu/4.6/../../../../lib/librte_pmd_e1000.a(e1000_phy.o)
                                        0xe00 (size before relaxing)
 .eh_frame      0x0000000000478a28      0x230 /usr/lib/gcc/x86_64-linux-gnu/4.6/../../../../lib/librte_pmd_e1000.a(e1000_vf.o)
                                        0x210 (size before relaxing)
 .eh_frame      0x0000000000478c58      0x460 /usr/lib/gcc/x86_64-linux-gnu/4.6/../../../../lib/librte_pmd_e1000.a(e1000_80003es2lan.o)
                                        0x438 (size before relaxing)
 .eh_frame      0x00000000004790b8      0x180 /usr/lib/gcc/x86_64-linux-gnu/4.6/../../../../lib/librte_pmd_e1000.a(e1000_82540.o)
 .eh_frame      0x0000000000479238      0x188 /usr/lib/gcc/x86_64-linux-gnu/4.6/../../../../lib/librte_pmd_e1000.a(e1000_82542.o)
                                        0x170 (size before relaxing)
 .eh_frame      0x00000000004793c0      0x778 /usr/lib/gcc/x86_64-linux-gnu/4.6/../../../../lib/librte_pmd_ixgbe.a(ixgbe_ethdev.o)
                                        0x700 (size before relaxing)
 .eh_frame      0x0000000000479b38      0x1d8 /usr/lib/gcc/x86_64-linux-gnu/4.6/../../../../lib/librte_pmd_ixgbe.a(ixgbe_fdir.o)
                                        0x1d0 (size before relaxing)
 .eh_frame      0x0000000000479d10       0xe8 /usr/lib/gcc/x86_64-linux-gnu/4.6/../../../../lib/librte_pmd_ixgbe.a(ixgbe_pf.o)
                                         0xf8 (size before relaxing)
 .eh_frame      0x0000000000479df8      0xd48 /usr/lib/gcc/x86_64-linux-gnu/4.6/../../../../lib/librte_pmd_ixgbe.a(ixgbe_common.o)
                                        0xc88 (size before relaxing)
 .eh_frame      0x000000000047ab40      0x5b8 /usr/lib/gcc/x86_64-linux-gnu/4.6/../../../../lib/librte_pmd_ixgbe.a(ixgbe_82599.o)
                                        0x570 (size before relaxing)
 .eh_frame      0x000000000047b0f8      0x560 /usr/lib/gcc/x86_64-linux-gnu/4.6/../../../../lib/librte_pmd_ixgbe.a(ixgbe_phy.o)
                                        0x530 (size before relaxing)
 .eh_frame      0x000000000047b658      0x768 /usr/lib/gcc/x86_64-linux-gnu/4.6/../../../../lib/librte_pmd_ixgbe.a(ixgbe_api.o)
                                        0x658 (size before relaxing)
 .eh_frame      0x000000000047bdc0      0x270 /usr/lib/gcc/x86_64-linux-gnu/4.6/../../../../lib/librte_pmd_ixgbe.a(ixgbe_vf.o)
                                        0x250 (size before relaxing)
 .eh_frame      0x000000000047c030      0x2a8 /usr/lib/gcc/x86_64-linux-gnu/4.6/../../../../lib/librte_pmd_ixgbe.a(ixgbe_dcb.o)
                                        0x280 (size before relaxing)
 .eh_frame      0x000000000047c2d8      0x138 /usr/lib/gcc/x86_64-linux-gnu/4.6/../../../../lib/librte_pmd_ixgbe.a(ixgbe_dcb_82599.o)
                                        0x130 (size before relaxing)
 .eh_frame      0x000000000047c410       0xd0 /usr/lib/gcc/x86_64-linux-gnu/4.6/../../../../lib/librte_pmd_ixgbe.a(ixgbe_dcb_82598.o)
 .eh_frame      0x000000000047c4e0      0x218 /usr/lib/gcc/x86_64-linux-gnu/4.6/../../../../lib/librte_pmd_ixgbe.a(ixgbe_mbx.o)
                                        0x1e8 (size before relaxing)
 .eh_frame      0x000000000047c6f8      0x610 /usr/lib/gcc/x86_64-linux-gnu/4.6/../../../../lib/librte_pmd_ixgbe.a(ixgbe_rxtx.o)
                                        0x5f0 (size before relaxing)
 .eh_frame      0x000000000047cd08      0x368 /usr/lib/gcc/x86_64-linux-gnu/4.6/../../../../lib/librte_pmd_ixgbe.a(ixgbe_82598.o)
                                        0x348 (size before relaxing)
 .eh_frame      0x000000000047d070      0x320 /usr/lib/gcc/x86_64-linux-gnu/4.6/../../../../lib/librte_pmd_ixgbe.a(ixgbe_x540.o)
                                        0x308 (size before relaxing)
 .eh_frame      0x000000000047d390      0x1d8 /usr/lib/gcc/x86_64-linux-gnu/4.6/../../../../lib/librte_pmd_virtio.a(virtio_ethdev.o)
                                        0x1c8 (size before relaxing)
 .eh_frame      0x000000000047d568       0x30 /usr/lib/gcc/x86_64-linux-gnu/4.6/../../../../lib/librte_pmd_virtio.a(virtqueue.o)
                                         0x40 (size before relaxing)
 .eh_frame      0x000000000047d598       0xa8 /usr/lib/gcc/x86_64-linux-gnu/4.6/../../../../lib/librte_pmd_virtio.a(virtio_pci.o)
 .eh_frame      0x000000000047d640      0x180 /usr/lib/gcc/x86_64-linux-gnu/4.6/../../../../lib/librte_pmd_virtio.a(virtio_rxtx.o)
                                        0x190 (size before relaxing)
 .eh_frame      0x000000000047d7c0       0xb0 /usr/lib/gcc/x86_64-linux-gnu/4.6/../../../../lib/librte_mbuf.a(rte_mbuf.o)
                                         0xc0 (size before relaxing)
 .eh_frame      0x000000000047d870      0x8a8 /usr/lib/gcc/x86_64-linux-gnu/4.6/../../../../lib/libethdev.a(rte_ethdev.o)
                                        0x808 (size before relaxing)
 .eh_frame      0x000000000047e118      0x1d8 /usr/lib/gcc/x86_64-linux-gnu/4.6/../../../../lib/librte_malloc.a(rte_malloc.o)
                                        0x1c8 (size before relaxing)
 .eh_frame      0x000000000047e2f0       0xa8 /usr/lib/gcc/x86_64-linux-gnu/4.6/../../../../lib/librte_malloc.a(malloc_elem.o)
                                         0xb0 (size before relaxing)
 .eh_frame      0x000000000047e398       0x90 /usr/lib/gcc/x86_64-linux-gnu/4.6/../../../../lib/librte_malloc.a(malloc_heap.o)
                                         0xa0 (size before relaxing)
 .eh_frame      0x000000000047e428      0x158 /usr/lib/gcc/x86_64-linux-gnu/4.6/../../../../lib/librte_mempool.a(rte_mempool.o)
                                        0x160 (size before relaxing)
 .eh_frame      0x000000000047e580       0xe8 /usr/lib/gcc/x86_64-linux-gnu/4.6/../../../../lib/librte_ring.a(rte_ring.o)
                                         0xf8 (size before relaxing)
 .eh_frame      0x000000000047e668      0x158 /usr/lib/gcc/x86_64-linux-gnu/4.6/../../../../lib/librte_eal.a(eal.o)
 .eh_frame      0x000000000047e7c0       0xe8 /usr/lib/gcc/x86_64-linux-gnu/4.6/../../../../lib/librte_eal.a(eal_hugepage_info.o)
                                         0xf8 (size before relaxing)
 .eh_frame      0x000000000047e8a8      0x170 /usr/lib/gcc/x86_64-linux-gnu/4.6/../../../../lib/librte_eal.a(eal_memory.o)
                                        0x180 (size before relaxing)
 .eh_frame      0x000000000047ea18       0xa0 /usr/lib/gcc/x86_64-linux-gnu/4.6/../../../../lib/librte_eal.a(eal_thread.o)
                                         0xb0 (size before relaxing)
 .eh_frame      0x000000000047eab8       0x98 /usr/lib/gcc/x86_64-linux-gnu/4.6/../../../../lib/librte_eal.a(eal_log.o)
                                         0xa0 (size before relaxing)
 .eh_frame      0x000000000047eb50      0x188 /usr/lib/gcc/x86_64-linux-gnu/4.6/../../../../lib/librte_eal.a(eal_pci.o)
                                        0x190 (size before relaxing)
 .eh_frame      0x000000000047ecd8       0x80 /usr/lib/gcc/x86_64-linux-gnu/4.6/../../../../lib/librte_eal.a(eal_debug.o)
                                         0x90 (size before relaxing)
 .eh_frame      0x000000000047ed58       0xf0 /usr/lib/gcc/x86_64-linux-gnu/4.6/../../../../lib/librte_eal.a(eal_lcore.o)
                                         0xf8 (size before relaxing)
 .eh_frame      0x000000000047ee48       0x60 /usr/lib/gcc/x86_64-linux-gnu/4.6/../../../../lib/librte_eal.a(eal_timer.o)
                                         0x70 (size before relaxing)
 .eh_frame      0x000000000047eea8      0x118 /usr/lib/gcc/x86_64-linux-gnu/4.6/../../../../lib/librte_eal.a(eal_interrupts.o)
                                        0x128 (size before relaxing)
 .eh_frame      0x000000000047efc0       0xd0 /usr/lib/gcc/x86_64-linux-gnu/4.6/../../../../lib/librte_eal.a(eal_alarm.o)
                                         0xe0 (size before relaxing)
 .eh_frame      0x000000000047f090      0x198 /usr/lib/gcc/x86_64-linux-gnu/4.6/../../../../lib/librte_eal.a(eal_common_memzone.o)
                                        0x1a0 (size before relaxing)
 .eh_frame      0x000000000047f228      0x210 /usr/lib/gcc/x86_64-linux-gnu/4.6/../../../../lib/librte_eal.a(eal_common_log.o)
                                        0x1e8 (size before relaxing)
 .eh_frame      0x000000000047f438       0xc0 /usr/lib/gcc/x86_64-linux-gnu/4.6/../../../../lib/librte_eal.a(eal_common_launch.o)
                                         0xd0 (size before relaxing)
 .eh_frame      0x000000000047f4f8       0xf0 /usr/lib/gcc/x86_64-linux-gnu/4.6/../../../../lib/librte_eal.a(eal_common_pci.o)
 .eh_frame      0x000000000047f5e8       0x88 /usr/lib/gcc/x86_64-linux-gnu/4.6/../../../../lib/librte_eal.a(eal_common_memory.o)
                                         0xa0 (size before relaxing)
 .eh_frame      0x000000000047f670      0x140 /usr/lib/gcc/x86_64-linux-gnu/4.6/../../../../lib/librte_eal.a(eal_common_tailqs.o)
                                        0x148 (size before relaxing)
 .eh_frame      0x000000000047f7b0       0x48 /usr/lib/gcc/x86_64-linux-gnu/4.6/../../../../lib/librte_eal.a(eal_common_errno.o)
                                         0x60 (size before relaxing)
 .eh_frame      0x000000000047f7f8       0xc0 /usr/lib/gcc/x86_64-linux-gnu/4.6/../../../../lib/librte_eal.a(eal_common_hexdump.o)
                                         0xd0 (size before relaxing)
 .eh_frame      0x000000000047f8b8      0x118 /usr/lib/gcc/x86_64-linux-gnu/4.6/../../../../lib/librte_eal.a(eal_common_whitelist.o)
                                        0x120 (size before relaxing)
 .eh_frame      0x000000000047f9d0       0x58 /usr/lib/gcc/x86_64-linux-gnu/4.6/../../../../lib/librte_eal.a(eal_common_nonpci_devs.o)
                                         0x68 (size before relaxing)
 .eh_frame      0x000000000047fa28      0x2c0 /usr/lib/gcc/x86_64-linux-gnu/4.6/../../../../lib/librte_pmd_ring.a(rte_eth_ring.o)
                                        0x298 (size before relaxing)
 .eh_frame      0x000000000047fce8       0x40 /usr/lib/x86_64-linux-gnu/libc_nonshared.a(elf-init.oS)
                                         0x58 (size before relaxing)
 .eh_frame      0x000000000047fd28        0x4 /usr/lib/gcc/x86_64-linux-gnu/4.6/crtend.o

.gcc_except_table
 *(.gcc_except_table .gcc_except_table.*)

.exception_ranges
 *(.exception_ranges .exception_ranges*)
                0x000000000047fd2c                . = (ALIGN (0x200000) - ((0x200000 - .) & 0x1fffff))
                0x000000000067fe04                . = DATA_SEGMENT_ALIGN (0x200000, 0x1000)

.eh_frame
 *(.eh_frame)

.gcc_except_table
 *(.gcc_except_table .gcc_except_table.*)

.exception_ranges
 *(.exception_ranges .exception_ranges*)

.tdata
 *(.tdata .tdata.* .gnu.linkonce.td.*)

.tbss           0x000000000067fe04      0x108
 *(.tbss .tbss.* .gnu.linkonce.tb.*)
 .tbss          0x000000000067fe04        0x4 /usr/lib/gcc/x86_64-linux-gnu/4.6/../../../../lib/librte_eal.a(eal_thread.o)
                0x000000000067fe04                per_lcore__lcore_id
 .tbss          0x000000000067fe08      0x104 /usr/lib/gcc/x86_64-linux-gnu/4.6/../../../../lib/librte_eal.a(eal_common_errno.o)
                0x000000000067fe08                per_lcore__rte_errno
 *(.tcommon)

.preinit_array  0x000000000067fe04        0x0
                0x000000000067fe04                PROVIDE (__preinit_array_start, .)
 *(.preinit_array)
                0x000000000067fe04                PROVIDE (__preinit_array_end, .)

.init_array     0x000000000067fe04        0x0
                0x000000000067fe04                PROVIDE (__init_array_start, .)
 *(SORT(.init_array.*) SORT(.ctors.*))
 *(.init_array)
 *(EXCLUDE_FILE(*crtend?.o *crtend.o *crtbegin?.o *crtbegin.o) .ctors)
                0x000000000067fe04                PROVIDE (__init_array_end, .)

.fini_array     0x000000000067fe04        0x0
                0x000000000067fe04                PROVIDE (__fini_array_start, .)
 *(SORT(.fini_array.*) SORT(.dtors.*))
 *(.fini_array)
 *(EXCLUDE_FILE(*crtend?.o *crtend.o *crtbegin?.o *crtbegin.o) .dtors)
                0x000000000067fe04                PROVIDE (__fini_array_end, .)

.ctors          0x000000000067fe08       0x10
 *crtbegin.o(.ctors)
 .ctors         0x000000000067fe08        0x8 /usr/lib/gcc/x86_64-linux-gnu/4.6/crtbegin.o
 *crtbegin?.o(.ctors)
 *(EXCLUDE_FILE(*crtend?.o *crtend.o) .ctors)
 *(SORT(.ctors.*))
 *(.ctors)
 .ctors         0x000000000067fe10        0x8 /usr/lib/gcc/x86_64-linux-gnu/4.6/crtend.o

.dtors          0x000000000067fe18       0x10
 *crtbegin.o(.dtors)
 .dtors         0x000000000067fe18        0x8 /usr/lib/gcc/x86_64-linux-gnu/4.6/crtbegin.o
 *crtbegin?.o(.dtors)
 *(EXCLUDE_FILE(*crtend?.o *crtend.o) .dtors)
 *(SORT(.dtors.*))
 *(.dtors)
 .dtors         0x000000000067fe20        0x8 /usr/lib/gcc/x86_64-linux-gnu/4.6/crtend.o
                0x000000000067fe20                __DTOR_END__

.jcr            0x000000000067fe28        0x8
 *(.jcr)
 .jcr           0x000000000067fe28        0x0 /usr/lib/gcc/x86_64-linux-gnu/4.6/crtbegin.o
 .jcr           0x000000000067fe28        0x8 /usr/lib/gcc/x86_64-linux-gnu/4.6/crtend.o

.data.rel.ro
 *(.data.rel.ro.local* .gnu.linkonce.d.rel.ro.local.*)
 *(.data.rel.ro* .gnu.linkonce.d.rel.ro.*)

.dynamic        0x000000000067fe30      0x1b0
 *(.dynamic)
 .dynamic       0x000000000067fe30      0x1b0 /usr/lib/gcc/x86_64-linux-gnu/4.6/../../../x86_64-linux-gnu/crt1.o
                0x000000000067fe30                _DYNAMIC

.got            0x000000000067ffe0        0x8
 *(.got)
 .got           0x000000000067ffe0        0x8 /usr/lib/gcc/x86_64-linux-gnu/4.6/../../../x86_64-linux-gnu/crt1.o
 *(.igot)
                0x000000000067ffe8                . = DATA_SEGMENT_RELRO_END (., 0x18)

.got.plt        0x000000000067ffe8      0x308
 *(.got.plt)
 .got.plt       0x000000000067ffe8      0x308 /usr/lib/gcc/x86_64-linux-gnu/4.6/../../../x86_64-linux-gnu/crt1.o
                0x000000000067ffe8                _GLOBAL_OFFSET_TABLE_
 *(.igot.plt)
 .igot.plt      0x0000000000000000        0x0 /usr/lib/gcc/x86_64-linux-gnu/4.6/../../../x86_64-linux-gnu/crt1.o

.data           0x0000000000680300     0x14d8
 *(.data .data.* .gnu.linkonce.d.*)
 .data          0x0000000000680300        0x4 /usr/lib/gcc/x86_64-linux-gnu/4.6/../../../x86_64-linux-gnu/crt1.o
                0x0000000000680300                data_start
                0x0000000000680300                __data_start
 .data          0x0000000000680304        0x0 /usr/lib/gcc/x86_64-linux-gnu/4.6/../../../x86_64-linux-gnu/crti.o
 *fill*         0x0000000000680304        0x4 00
 .data          0x0000000000680308        0x8 /usr/lib/gcc/x86_64-linux-gnu/4.6/crtbegin.o
                0x0000000000680308                __dso_handle
 .data          0x0000000000680310        0x4 main.o
                0x0000000000680310                is_client
 .data          0x0000000000680314        0x0 common.o
 *fill*         0x0000000000680314        0xc 00
 .data          0x0000000000680320       0x80 server.o
                0x0000000000680320                dst_mac_arr
                0x0000000000680360                src_mac_arr
 .data          0x00000000006803a0        0x0 client.o
 .data          0x00000000006803a0      0x4c8 /usr/lib/gcc/x86_64-linux-gnu/4.6/../../../../lib/librte_pmd_e1000.a(igb_ethdev.o)
 *fill*         0x0000000000680868       0x18 00
 .data          0x0000000000680880       0x28 /usr/lib/gcc/x86_64-linux-gnu/4.6/../../../../lib/librte_pmd_e1000.a(igb_rxtx.o)
 *fill*         0x00000000006808a8       0x18 00
 .data          0x00000000006808c0      0x260 /usr/lib/gcc/x86_64-linux-gnu/4.6/../../../../lib/librte_pmd_e1000.a(em_ethdev.o)
 .data          0x0000000000680b20        0x0 /usr/lib/gcc/x86_64-linux-gnu/4.6/../../../../lib/librte_pmd_e1000.a(em_rxtx.o)
 .data          0x0000000000680b20        0x0 /usr/lib/gcc/x86_64-linux-gnu/4.6/../../../../lib/librte_pmd_e1000.a(igb_pf.o)
 .data          0x0000000000680b20        0x0 /usr/lib/gcc/x86_64-linux-gnu/4.6/../../../../lib/librte_pmd_e1000.a(e1000_82541.o)
 .data          0x0000000000680b20        0x0 /usr/lib/gcc/x86_64-linux-gnu/4.6/../../../../lib/librte_pmd_e1000.a(e1000_82543.o)
 .data          0x0000000000680b20        0x0 /usr/lib/gcc/x86_64-linux-gnu/4.6/../../../../lib/librte_pmd_e1000.a(e1000_82571.o)
 .data          0x0000000000680b20        0x0 /usr/lib/gcc/x86_64-linux-gnu/4.6/../../../../lib/librte_pmd_e1000.a(e1000_82575.o)
 .data          0x0000000000680b20        0x0 /usr/lib/gcc/x86_64-linux-gnu/4.6/../../../../lib/librte_pmd_e1000.a(e1000_i210.o)
 .data          0x0000000000680b20        0x0 /usr/lib/gcc/x86_64-linux-gnu/4.6/../../../../lib/librte_pmd_e1000.a(e1000_api.o)
 .data          0x0000000000680b20        0x0 /usr/lib/gcc/x86_64-linux-gnu/4.6/../../../../lib/librte_pmd_e1000.a(e1000_ich8lan.o)
 .data          0x0000000000680b20        0x0 /usr/lib/gcc/x86_64-linux-gnu/4.6/../../../../lib/librte_pmd_e1000.a(e1000_mac.o)
 .data          0x0000000000680b20        0x0 /usr/lib/gcc/x86_64-linux-gnu/4.6/../../../../lib/librte_pmd_e1000.a(e1000_manage.o)
 .data          0x0000000000680b20        0x0 /usr/lib/gcc/x86_64-linux-gnu/4.6/../../../../lib/librte_pmd_e1000.a(e1000_mbx.o)
 .data          0x0000000000680b20        0x0 /usr/lib/gcc/x86_64-linux-gnu/4.6/../../../../lib/librte_pmd_e1000.a(e1000_nvm.o)
 .data          0x0000000000680b20        0x0 /usr/lib/gcc/x86_64-linux-gnu/4.6/../../../../lib/librte_pmd_e1000.a(e1000_osdep.o)
 .data          0x0000000000680b20        0x0 /usr/lib/gcc/x86_64-linux-gnu/4.6/../../../../lib/librte_pmd_e1000.a(e1000_phy.o)
 .data          0x0000000000680b20        0x0 /usr/lib/gcc/x86_64-linux-gnu/4.6/../../../../lib/librte_pmd_e1000.a(e1000_vf.o)
 .data          0x0000000000680b20        0x0 /usr/lib/gcc/x86_64-linux-gnu/4.6/../../../../lib/librte_pmd_e1000.a(e1000_80003es2lan.o)
 .data          0x0000000000680b20        0x0 /usr/lib/gcc/x86_64-linux-gnu/4.6/../../../../lib/librte_pmd_e1000.a(e1000_82540.o)
 .data          0x0000000000680b20        0x0 /usr/lib/gcc/x86_64-linux-gnu/4.6/../../../../lib/librte_pmd_e1000.a(e1000_82542.o)
 .data          0x0000000000680b20      0x4c8 /usr/lib/gcc/x86_64-linux-gnu/4.6/../../../../lib/librte_pmd_ixgbe.a(ixgbe_ethdev.o)
 .data          0x0000000000680fe8        0x0 /usr/lib/gcc/x86_64-linux-gnu/4.6/../../../../lib/librte_pmd_ixgbe.a(ixgbe_fdir.o)
 .data          0x0000000000680fe8        0x0 /usr/lib/gcc/x86_64-linux-gnu/4.6/../../../../lib/librte_pmd_ixgbe.a(ixgbe_pf.o)
 .data          0x0000000000680fe8        0x0 /usr/lib/gcc/x86_64-linux-gnu/4.6/../../../../lib/librte_pmd_ixgbe.a(ixgbe_common.o)
 .data          0x0000000000680fe8        0x0 /usr/lib/gcc/x86_64-linux-gnu/4.6/../../../../lib/librte_pmd_ixgbe.a(ixgbe_82599.o)
 .data          0x0000000000680fe8        0x0 /usr/lib/gcc/x86_64-linux-gnu/4.6/../../../../lib/librte_pmd_ixgbe.a(ixgbe_phy.o)
 .data          0x0000000000680fe8        0x0 /usr/lib/gcc/x86_64-linux-gnu/4.6/../../../../lib/librte_pmd_ixgbe.a(ixgbe_api.o)
 .data          0x0000000000680fe8        0x0 /usr/lib/gcc/x86_64-linux-gnu/4.6/../../../../lib/librte_pmd_ixgbe.a(ixgbe_vf.o)
 .data          0x0000000000680fe8        0x0 /usr/lib/gcc/x86_64-linux-gnu/4.6/../../../../lib/librte_pmd_ixgbe.a(ixgbe_dcb.o)
 .data          0x0000000000680fe8        0x0 /usr/lib/gcc/x86_64-linux-gnu/4.6/../../../../lib/librte_pmd_ixgbe.a(ixgbe_dcb_82599.o)
 .data          0x0000000000680fe8        0x0 /usr/lib/gcc/x86_64-linux-gnu/4.6/../../../../lib/librte_pmd_ixgbe.a(ixgbe_dcb_82598.o)
 .data          0x0000000000680fe8        0x0 /usr/lib/gcc/x86_64-linux-gnu/4.6/../../../../lib/librte_pmd_ixgbe.a(ixgbe_mbx.o)
 *fill*         0x0000000000680fe8       0x18 00
 .data          0x0000000000681000       0x28 /usr/lib/gcc/x86_64-linux-gnu/4.6/../../../../lib/librte_pmd_ixgbe.a(ixgbe_rxtx.o)
 .data          0x0000000000681028        0x0 /usr/lib/gcc/x86_64-linux-gnu/4.6/../../../../lib/librte_pmd_ixgbe.a(ixgbe_82598.o)
 .data          0x0000000000681028        0x0 /usr/lib/gcc/x86_64-linux-gnu/4.6/../../../../lib/librte_pmd_ixgbe.a(ixgbe_x540.o)
 *fill*         0x0000000000681028       0x18 00
 .data          0x0000000000681040      0x1d0 /usr/lib/gcc/x86_64-linux-gnu/4.6/../../../../lib/librte_pmd_virtio.a(virtio_ethdev.o)
 .data          0x0000000000681210        0x0 /usr/lib/gcc/x86_64-linux-gnu/4.6/../../../../lib/librte_pmd_virtio.a(virtqueue.o)
 .data          0x0000000000681210        0x0 /usr/lib/gcc/x86_64-linux-gnu/4.6/../../../../lib/librte_pmd_virtio.a(virtio_pci.o)
 .data          0x0000000000681210        0x0 /usr/lib/gcc/x86_64-linux-gnu/4.6/../../../../lib/librte_pmd_virtio.a(virtio_rxtx.o)
 .data          0x0000000000681210        0x0 /usr/lib/gcc/x86_64-linux-gnu/4.6/../../../../lib/librte_mbuf.a(rte_mbuf.o)
 .data          0x0000000000681210        0x0 /usr/lib/gcc/x86_64-linux-gnu/4.6/../../../../lib/libethdev.a(rte_ethdev.o)
 .data          0x0000000000681210        0x0 /usr/lib/gcc/x86_64-linux-gnu/4.6/../../../../lib/librte_malloc.a(rte_malloc.o)
 .data          0x0000000000681210        0x0 /usr/lib/gcc/x86_64-linux-gnu/4.6/../../../../lib/librte_malloc.a(malloc_elem.o)
 .data          0x0000000000681210        0x0 /usr/lib/gcc/x86_64-linux-gnu/4.6/../../../../lib/librte_malloc.a(malloc_heap.o)
 .data          0x0000000000681210        0x0 /usr/lib/gcc/x86_64-linux-gnu/4.6/../../../../lib/librte_mempool.a(rte_mempool.o)
 .data          0x0000000000681210        0x0 /usr/lib/gcc/x86_64-linux-gnu/4.6/../../../../lib/librte_ring.a(rte_ring.o)
 *fill*         0x0000000000681210       0x10 00
 .data          0x0000000000681220      0x2e0 /usr/lib/gcc/x86_64-linux-gnu/4.6/../../../../lib/librte_eal.a(eal.o)
 .data          0x0000000000681500        0x0 /usr/lib/gcc/x86_64-linux-gnu/4.6/../../../../lib/librte_eal.a(eal_hugepage_info.o)
 .data          0x0000000000681500        0x0 /usr/lib/gcc/x86_64-linux-gnu/4.6/../../../../lib/librte_eal.a(eal_memory.o)
 .data          0x0000000000681500        0x0 /usr/lib/gcc/x86_64-linux-gnu/4.6/../../../../lib/librte_eal.a(eal_thread.o)
 .data          0x0000000000681500        0x0 /usr/lib/gcc/x86_64-linux-gnu/4.6/../../../../lib/librte_eal.a(eal_log.o)
 .data          0x0000000000681500        0x0 /usr/lib/gcc/x86_64-linux-gnu/4.6/../../../../lib/librte_eal.a(eal_pci.o)
 .data          0x0000000000681500        0x0 /usr/lib/gcc/x86_64-linux-gnu/4.6/../../../../lib/librte_eal.a(eal_debug.o)
 .data          0x0000000000681500        0x0 /usr/lib/gcc/x86_64-linux-gnu/4.6/../../../../lib/librte_eal.a(eal_lcore.o)
 .data          0x0000000000681500        0x4 /usr/lib/gcc/x86_64-linux-gnu/4.6/../../../../lib/librte_eal.a(eal_timer.o)
                0x0000000000681500                eal_timer_source
 .data          0x0000000000681504        0xc /usr/lib/gcc/x86_64-linux-gnu/4.6/../../../../lib/librte_eal.a(eal_interrupts.o)
 .data          0x0000000000681510        0x8 /usr/lib/gcc/x86_64-linux-gnu/4.6/../../../../lib/librte_eal.a(eal_alarm.o)
 .data          0x0000000000681518        0x0 /usr/lib/gcc/x86_64-linux-gnu/4.6/../../../../lib/librte_eal.a(eal_common_memzone.o)
 *fill*         0x0000000000681518        0x8 00
 .data          0x0000000000681520       0x14 /usr/lib/gcc/x86_64-linux-gnu/4.6/../../../../lib/librte_eal.a(eal_common_log.o)
                0x0000000000681520                rte_logs
 .data          0x0000000000681534        0x0 /usr/lib/gcc/x86_64-linux-gnu/4.6/../../../../lib/librte_eal.a(eal_common_launch.o)
 .data          0x0000000000681534        0x0 /usr/lib/gcc/x86_64-linux-gnu/4.6/../../../../lib/librte_eal.a(eal_common_pci.o)
 .data          0x0000000000681534        0x0 /usr/lib/gcc/x86_64-linux-gnu/4.6/../../../../lib/librte_eal.a(eal_common_memory.o)
 *fill*         0x0000000000681534        0xc 00
 .data          0x0000000000681540      0x100 /usr/lib/gcc/x86_64-linux-gnu/4.6/../../../../lib/librte_eal.a(eal_common_tailqs.o)
                0x0000000000681540                rte_tailq_names
 .data          0x0000000000681640        0x0 /usr/lib/gcc/x86_64-linux-gnu/4.6/../../../../lib/librte_eal.a(eal_common_errno.o)
 .data          0x0000000000681640        0x0 /usr/lib/gcc/x86_64-linux-gnu/4.6/../../../../lib/librte_eal.a(eal_common_hexdump.o)
 .data          0x0000000000681640        0x0 /usr/lib/gcc/x86_64-linux-gnu/4.6/../../../../lib/librte_eal.a(eal_common_whitelist.o)
 .data          0x0000000000681640       0x20 /usr/lib/gcc/x86_64-linux-gnu/4.6/../../../../lib/librte_eal.a(eal_common_nonpci_devs.o)
                0x0000000000681640                dev_types
 .data          0x0000000000681660      0x178 /usr/lib/gcc/x86_64-linux-gnu/4.6/../../../../lib/librte_pmd_ring.a(rte_eth_ring.o)
 .data          0x00000000006817d8        0x0 /usr/lib/x86_64-linux-gnu/libc_nonshared.a(elf-init.oS)
 .data          0x00000000006817d8        0x0 /usr/lib/gcc/x86_64-linux-gnu/4.6/crtend.o
 .data          0x00000000006817d8        0x0 /usr/lib/gcc/x86_64-linux-gnu/4.6/../../../x86_64-linux-gnu/crtn.o

.data1
 *(.data1)
                0x00000000006817d8                _edata = .
                0x00000000006817d8                PROVIDE (edata, .)
                0x00000000006817d8                __bss_start = .

.bss            0x0000000000681800    0x392a0
 *(.dynbss)
 .dynbss        0x0000000000681800       0x38 /usr/lib/gcc/x86_64-linux-gnu/4.6/../../../x86_64-linux-gnu/crt1.o
                0x0000000000681800                stdout@@GLIBC_2.2.5
                0x0000000000681820                optind@@GLIBC_2.2.5
                0x0000000000681828                optarg@@GLIBC_2.2.5
                0x0000000000681830                stderr@@GLIBC_2.2.5
 *(.bss .bss.* .gnu.linkonce.b.*)
 .bss           0x0000000000681838        0x0 /usr/lib/gcc/x86_64-linux-gnu/4.6/../../../x86_64-linux-gnu/crt1.o
 .bss           0x0000000000681838        0x0 /usr/lib/gcc/x86_64-linux-gnu/4.6/../../../x86_64-linux-gnu/crti.o
 .bss           0x0000000000681838       0x10 /usr/lib/gcc/x86_64-linux-gnu/4.6/crtbegin.o
 *fill*         0x0000000000681848       0x18 00
 .bss           0x0000000000681860       0xc0 main.o
 .bss           0x0000000000681920        0x0 common.o
 .bss           0x0000000000681920        0x0 server.o
 .bss           0x0000000000681920        0x0 client.o
 .bss           0x0000000000681920        0x0 /usr/lib/gcc/x86_64-linux-gnu/4.6/../../../../lib/librte_pmd_e1000.a(igb_ethdev.o)
 .bss           0x0000000000681920        0x0 /usr/lib/gcc/x86_64-linux-gnu/4.6/../../../../lib/librte_pmd_e1000.a(igb_rxtx.o)
 .bss           0x0000000000681920        0x0 /usr/lib/gcc/x86_64-linux-gnu/4.6/../../../../lib/librte_pmd_e1000.a(em_ethdev.o)
 .bss           0x0000000000681920        0x0 /usr/lib/gcc/x86_64-linux-gnu/4.6/../../../../lib/librte_pmd_e1000.a(em_rxtx.o)
 .bss           0x0000000000681920        0x0 /usr/lib/gcc/x86_64-linux-gnu/4.6/../../../../lib/librte_pmd_e1000.a(igb_pf.o)
 .bss           0x0000000000681920        0x0 /usr/lib/gcc/x86_64-linux-gnu/4.6/../../../../lib/librte_pmd_e1000.a(e1000_82541.o)
 .bss           0x0000000000681920        0x0 /usr/lib/gcc/x86_64-linux-gnu/4.6/../../../../lib/librte_pmd_e1000.a(e1000_82543.o)
 .bss           0x0000000000681920        0x0 /usr/lib/gcc/x86_64-linux-gnu/4.6/../../../../lib/librte_pmd_e1000.a(e1000_82571.o)
 .bss           0x0000000000681920        0x0 /usr/lib/gcc/x86_64-linux-gnu/4.6/../../../../lib/librte_pmd_e1000.a(e1000_82575.o)
 .bss           0x0000000000681920        0x0 /usr/lib/gcc/x86_64-linux-gnu/4.6/../../../../lib/librte_pmd_e1000.a(e1000_i210.o)
 .bss           0x0000000000681920        0x0 /usr/lib/gcc/x86_64-linux-gnu/4.6/../../../../lib/librte_pmd_e1000.a(e1000_api.o)
 .bss           0x0000000000681920        0x0 /usr/lib/gcc/x86_64-linux-gnu/4.6/../../../../lib/librte_pmd_e1000.a(e1000_ich8lan.o)
 .bss           0x0000000000681920        0x0 /usr/lib/gcc/x86_64-linux-gnu/4.6/../../../../lib/librte_pmd_e1000.a(e1000_mac.o)
 .bss           0x0000000000681920        0x0 /usr/lib/gcc/x86_64-linux-gnu/4.6/../../../../lib/librte_pmd_e1000.a(e1000_manage.o)
 .bss           0x0000000000681920        0x0 /usr/lib/gcc/x86_64-linux-gnu/4.6/../../../../lib/librte_pmd_e1000.a(e1000_mbx.o)
 .bss           0x0000000000681920        0x0 /usr/lib/gcc/x86_64-linux-gnu/4.6/../../../../lib/librte_pmd_e1000.a(e1000_nvm.o)
 .bss           0x0000000000681920        0x0 /usr/lib/gcc/x86_64-linux-gnu/4.6/../../../../lib/librte_pmd_e1000.a(e1000_osdep.o)
 .bss           0x0000000000681920        0x0 /usr/lib/gcc/x86_64-linux-gnu/4.6/../../../../lib/librte_pmd_e1000.a(e1000_phy.o)
 .bss           0x0000000000681920        0x0 /usr/lib/gcc/x86_64-linux-gnu/4.6/../../../../lib/librte_pmd_e1000.a(e1000_vf.o)
 .bss           0x0000000000681920        0x0 /usr/lib/gcc/x86_64-linux-gnu/4.6/../../../../lib/librte_pmd_e1000.a(e1000_80003es2lan.o)
 .bss           0x0000000000681920        0x0 /usr/lib/gcc/x86_64-linux-gnu/4.6/../../../../lib/librte_pmd_e1000.a(e1000_82540.o)
 .bss           0x0000000000681920        0x0 /usr/lib/gcc/x86_64-linux-gnu/4.6/../../../../lib/librte_pmd_e1000.a(e1000_82542.o)
 .bss           0x0000000000681920        0x0 /usr/lib/gcc/x86_64-linux-gnu/4.6/../../../../lib/librte_pmd_ixgbe.a(ixgbe_ethdev.o)
 .bss           0x0000000000681920        0x0 /usr/lib/gcc/x86_64-linux-gnu/4.6/../../../../lib/librte_pmd_ixgbe.a(ixgbe_fdir.o)
 .bss           0x0000000000681920        0x0 /usr/lib/gcc/x86_64-linux-gnu/4.6/../../../../lib/librte_pmd_ixgbe.a(ixgbe_pf.o)
 .bss           0x0000000000681920        0x0 /usr/lib/gcc/x86_64-linux-gnu/4.6/../../../../lib/librte_pmd_ixgbe.a(ixgbe_common.o)
 .bss           0x0000000000681920        0x0 /usr/lib/gcc/x86_64-linux-gnu/4.6/../../../../lib/librte_pmd_ixgbe.a(ixgbe_82599.o)
 .bss           0x0000000000681920        0x0 /usr/lib/gcc/x86_64-linux-gnu/4.6/../../../../lib/librte_pmd_ixgbe.a(ixgbe_phy.o)
 .bss           0x0000000000681920        0x0 /usr/lib/gcc/x86_64-linux-gnu/4.6/../../../../lib/librte_pmd_ixgbe.a(ixgbe_api.o)
 .bss           0x0000000000681920        0x0 /usr/lib/gcc/x86_64-linux-gnu/4.6/../../../../lib/librte_pmd_ixgbe.a(ixgbe_vf.o)
 .bss           0x0000000000681920        0x0 /usr/lib/gcc/x86_64-linux-gnu/4.6/../../../../lib/librte_pmd_ixgbe.a(ixgbe_dcb.o)
 .bss           0x0000000000681920        0x0 /usr/lib/gcc/x86_64-linux-gnu/4.6/../../../../lib/librte_pmd_ixgbe.a(ixgbe_dcb_82599.o)
 .bss           0x0000000000681920        0x0 /usr/lib/gcc/x86_64-linux-gnu/4.6/../../../../lib/librte_pmd_ixgbe.a(ixgbe_dcb_82598.o)
 .bss           0x0000000000681920        0x0 /usr/lib/gcc/x86_64-linux-gnu/4.6/../../../../lib/librte_pmd_ixgbe.a(ixgbe_mbx.o)
 .bss           0x0000000000681920        0x0 /usr/lib/gcc/x86_64-linux-gnu/4.6/../../../../lib/librte_pmd_ixgbe.a(ixgbe_rxtx.o)
 .bss           0x0000000000681920        0x0 /usr/lib/gcc/x86_64-linux-gnu/4.6/../../../../lib/librte_pmd_ixgbe.a(ixgbe_82598.o)
 .bss           0x0000000000681920        0x0 /usr/lib/gcc/x86_64-linux-gnu/4.6/../../../../lib/librte_pmd_ixgbe.a(ixgbe_x540.o)
 .bss           0x0000000000681920        0x0 /usr/lib/gcc/x86_64-linux-gnu/4.6/../../../../lib/librte_pmd_virtio.a(virtio_ethdev.o)
 .bss           0x0000000000681920        0x0 /usr/lib/gcc/x86_64-linux-gnu/4.6/../../../../lib/librte_pmd_virtio.a(virtqueue.o)
 .bss           0x0000000000681920        0x0 /usr/lib/gcc/x86_64-linux-gnu/4.6/../../../../lib/librte_pmd_virtio.a(virtio_pci.o)
 .bss           0x0000000000681920        0x0 /usr/lib/gcc/x86_64-linux-gnu/4.6/../../../../lib/librte_pmd_virtio.a(virtio_rxtx.o)
 .bss           0x0000000000681920        0x0 /usr/lib/gcc/x86_64-linux-gnu/4.6/../../../../lib/librte_mbuf.a(rte_mbuf.o)
 .bss           0x0000000000681920       0x24 /usr/lib/gcc/x86_64-linux-gnu/4.6/../../../../lib/libethdev.a(rte_ethdev.o)
 .bss           0x0000000000681944        0x0 /usr/lib/gcc/x86_64-linux-gnu/4.6/../../../../lib/librte_malloc.a(rte_malloc.o)
 .bss           0x0000000000681944        0x0 /usr/lib/gcc/x86_64-linux-gnu/4.6/../../../../lib/librte_malloc.a(malloc_elem.o)
 .bss           0x0000000000681944        0x0 /usr/lib/gcc/x86_64-linux-gnu/4.6/../../../../lib/librte_malloc.a(malloc_heap.o)
 .bss           0x0000000000681944        0x0 /usr/lib/gcc/x86_64-linux-gnu/4.6/../../../../lib/librte_mempool.a(rte_mempool.o)
 .bss           0x0000000000681944        0x0 /usr/lib/gcc/x86_64-linux-gnu/4.6/../../../../lib/librte_ring.a(rte_ring.o)
 *fill*         0x0000000000681944       0x1c 00
 .bss           0x0000000000681960    0x34240 /usr/lib/gcc/x86_64-linux-gnu/4.6/../../../../lib/librte_eal.a(eal.o)
 .bss           0x00000000006b5ba0        0x8 /usr/lib/gcc/x86_64-linux-gnu/4.6/../../../../lib/librte_eal.a(eal_hugepage_info.o)
 *fill*         0x00000000006b5ba8       0x18 00
 .bss           0x00000000006b5bc0     0x1000 /usr/lib/gcc/x86_64-linux-gnu/4.6/../../../../lib/librte_eal.a(eal_memory.o)
 .bss           0x00000000006b6bc0        0x0 /usr/lib/gcc/x86_64-linux-gnu/4.6/../../../../lib/librte_eal.a(eal_thread.o)
 .bss           0x00000000006b6bc0        0x0 /usr/lib/gcc/x86_64-linux-gnu/4.6/../../../../lib/librte_eal.a(eal_log.o)
 .bss           0x00000000006b6bc0        0x8 /usr/lib/gcc/x86_64-linux-gnu/4.6/../../../../lib/librte_eal.a(eal_pci.o)
 .bss           0x00000000006b6bc8        0x0 /usr/lib/gcc/x86_64-linux-gnu/4.6/../../../../lib/librte_eal.a(eal_debug.o)
 .bss           0x00000000006b6bc8        0x0 /usr/lib/gcc/x86_64-linux-gnu/4.6/../../../../lib/librte_eal.a(eal_lcore.o)
 *fill*         0x00000000006b6bc8        0x8 00
 .bss           0x00000000006b6bd0        0x8 /usr/lib/gcc/x86_64-linux-gnu/4.6/../../../../lib/librte_eal.a(eal_timer.o)
 *fill*         0x00000000006b6bd8        0x8 00
 .bss           0x00000000006b6be0       0x30 /usr/lib/gcc/x86_64-linux-gnu/4.6/../../../../lib/librte_eal.a(eal_interrupts.o)
 .bss           0x00000000006b6c10       0x18 /usr/lib/gcc/x86_64-linux-gnu/4.6/../../../../lib/librte_eal.a(eal_alarm.o)
 *fill*         0x00000000006b6c28        0x8 00
 .bss           0x00000000006b6c30        0x8 /usr/lib/gcc/x86_64-linux-gnu/4.6/../../../../lib/librte_eal.a(eal_common_memzone.o)
 *fill*         0x00000000006b6c38        0x8 00
 .bss           0x00000000006b6c40     0x1050 /usr/lib/gcc/x86_64-linux-gnu/4.6/../../../../lib/librte_eal.a(eal_common_log.o)
 .bss           0x00000000006b7c90        0x0 /usr/lib/gcc/x86_64-linux-gnu/4.6/../../../../lib/librte_eal.a(eal_common_launch.o)
 .bss           0x00000000006b7c90       0x14 /usr/lib/gcc/x86_64-linux-gnu/4.6/../../../../lib/librte_eal.a(eal_common_pci.o)
 .bss           0x00000000006b7ca4        0x0 /usr/lib/gcc/x86_64-linux-gnu/4.6/../../../../lib/librte_eal.a(eal_common_memory.o)
 .bss           0x00000000006b7ca4        0x0 /usr/lib/gcc/x86_64-linux-gnu/4.6/../../../../lib/librte_eal.a(eal_common_tailqs.o)
 .bss           0x00000000006b7ca4        0x0 /usr/lib/gcc/x86_64-linux-gnu/4.6/../../../../lib/librte_eal.a(eal_common_errno.o)
 .bss           0x00000000006b7ca4        0x0 /usr/lib/gcc/x86_64-linux-gnu/4.6/../../../../lib/librte_eal.a(eal_common_hexdump.o)
 *fill*         0x00000000006b7ca4       0x1c 00
 .bss           0x00000000006b7cc0     0x1226 /usr/lib/gcc/x86_64-linux-gnu/4.6/../../../../lib/librte_eal.a(eal_common_whitelist.o)
 *fill*         0x00000000006b8ee6        0x2 00
 .bss           0x00000000006b8ee8        0x0 /usr/lib/gcc/x86_64-linux-gnu/4.6/../../../../lib/librte_eal.a(eal_common_nonpci_devs.o)
 .bss           0x00000000006b8ee8        0x6 /usr/lib/gcc/x86_64-linux-gnu/4.6/../../../../lib/librte_pmd_ring.a(rte_eth_ring.o)
 *fill*         0x00000000006b8eee        0x2 00
 .bss           0x00000000006b8ef0        0x0 /usr/lib/x86_64-linux-gnu/libc_nonshared.a(elf-init.oS)
 .bss           0x00000000006b8ef0        0x0 /usr/lib/gcc/x86_64-linux-gnu/4.6/crtend.o
 .bss           0x00000000006b8ef0        0x0 /usr/lib/gcc/x86_64-linux-gnu/4.6/../../../x86_64-linux-gnu/crtn.o
 *(COMMON)
 *fill*         0x00000000006b8ef0       0x10 00
 COMMON         0x00000000006b8f00      0x20c main.o
                0x00000000006b8f00                l2fwd_pktmbuf_pool
                0x00000000006b9100                ht_log
                0x00000000006b9108                client_id
 *fill*         0x00000000006b910c       0x14 00
 COMMON         0x00000000006b9120      0x800 /usr/lib/gcc/x86_64-linux-gnu/4.6/../../../../lib/libethdev.a(rte_ethdev.o)
                0x00000000006b9120                rte_eth_devices
 COMMON         0x00000000006b9920     0x1160 /usr/lib/gcc/x86_64-linux-gnu/4.6/../../../../lib/librte_eal.a(eal.o)
                0x00000000006b9920                rte_cycles_vmware_tsc_map
                0x00000000006b9940                internal_config
                0x00000000006b9a80                lcore_config
 COMMON         0x00000000006baa80       0x20 /usr/lib/gcc/x86_64-linux-gnu/4.6/../../../../lib/librte_eal.a(eal_common_pci.o)
                0x00000000006baa80                driver_list
                0x00000000006baa90                device_list
                0x00000000006baaa0                . = ALIGN ((. != 0x0)?0x8:0x1)

.lbss
 *(.dynlbss)
 *(.lbss .lbss.* .gnu.linkonce.lb.*)
 *(LARGE_COMMON)
                0x00000000006baaa0                . = ALIGN (0x8)

.lrodata
 *(.lrodata .lrodata.* .gnu.linkonce.lr.*)

.ldata          0x0000000000abaaa0        0x0
 *(.ldata .ldata.* .gnu.linkonce.l.*)
                0x0000000000abaaa0                . = ALIGN ((. != 0x0)?0x8:0x1)
                0x0000000000abaaa0                . = ALIGN (0x8)
                0x0000000000abaaa0                _end = .
                0x0000000000abaaa0                PROVIDE (end, .)
                0x0000000000abaaa0                . = DATA_SEGMENT_END (.)

.stab
 *(.stab)

.stabstr
 *(.stabstr)

.stab.excl
 *(.stab.excl)

.stab.exclstr
 *(.stab.exclstr)

.stab.index
 *(.stab.index)

.stab.indexstr
 *(.stab.indexstr)

.comment        0x0000000000000000      0x4f1
 *(.comment)
 .comment       0x0000000000000000       0x2a /usr/lib/gcc/x86_64-linux-gnu/4.6/crtbegin.o
                                         0x2b (size before relaxing)
 .comment       0x0000000000000000       0x2b main.o
 .comment       0x0000000000000000       0x2b common.o
 .comment       0x0000000000000000       0x2b server.o
 .comment       0x0000000000000000       0x2b client.o
 .comment       0x0000000000000000       0x2b /usr/lib/gcc/x86_64-linux-gnu/4.6/../../../../lib/librte_pmd_e1000.a(igb_ethdev.o)
 .comment       0x0000000000000000       0x2b /usr/lib/gcc/x86_64-linux-gnu/4.6/../../../../lib/librte_pmd_e1000.a(igb_rxtx.o)
 .comment       0x0000000000000000       0x2b /usr/lib/gcc/x86_64-linux-gnu/4.6/../../../../lib/librte_pmd_e1000.a(em_ethdev.o)
 .comment       0x0000000000000000       0x2b /usr/lib/gcc/x86_64-linux-gnu/4.6/../../../../lib/librte_pmd_e1000.a(em_rxtx.o)
 .comment       0x0000000000000000       0x2b /usr/lib/gcc/x86_64-linux-gnu/4.6/../../../../lib/librte_pmd_e1000.a(igb_pf.o)
 .comment       0x0000000000000000       0x2b /usr/lib/gcc/x86_64-linux-gnu/4.6/../../../../lib/librte_pmd_e1000.a(e1000_82541.o)
 .comment       0x0000000000000000       0x2b /usr/lib/gcc/x86_64-linux-gnu/4.6/../../../../lib/librte_pmd_e1000.a(e1000_82543.o)
 .comment       0x0000000000000000       0x2b /usr/lib/gcc/x86_64-linux-gnu/4.6/../../../../lib/librte_pmd_e1000.a(e1000_82571.o)
 .comment       0x0000000000000000       0x2b /usr/lib/gcc/x86_64-linux-gnu/4.6/../../../../lib/librte_pmd_e1000.a(e1000_82575.o)
 .comment       0x0000000000000000       0x2b /usr/lib/gcc/x86_64-linux-gnu/4.6/../../../../lib/librte_pmd_e1000.a(e1000_i210.o)
 .comment       0x0000000000000000       0x2b /usr/lib/gcc/x86_64-linux-gnu/4.6/../../../../lib/librte_pmd_e1000.a(e1000_api.o)
 .comment       0x0000000000000000       0x2b /usr/lib/gcc/x86_64-linux-gnu/4.6/../../../../lib/librte_pmd_e1000.a(e1000_ich8lan.o)
 .comment       0x0000000000000000       0x2b /usr/lib/gcc/x86_64-linux-gnu/4.6/../../../../lib/librte_pmd_e1000.a(e1000_mac.o)
 .comment       0x0000000000000000       0x2b /usr/lib/gcc/x86_64-linux-gnu/4.6/../../../../lib/librte_pmd_e1000.a(e1000_manage.o)
 .comment       0x0000000000000000       0x2b /usr/lib/gcc/x86_64-linux-gnu/4.6/../../../../lib/librte_pmd_e1000.a(e1000_mbx.o)
 .comment       0x0000000000000000       0x2b /usr/lib/gcc/x86_64-linux-gnu/4.6/../../../../lib/librte_pmd_e1000.a(e1000_nvm.o)
 .comment       0x0000000000000000       0x2b /usr/lib/gcc/x86_64-linux-gnu/4.6/../../../../lib/librte_pmd_e1000.a(e1000_osdep.o)
 .comment       0x0000000000000000       0x2b /usr/lib/gcc/x86_64-linux-gnu/4.6/../../../../lib/librte_pmd_e1000.a(e1000_phy.o)
 .comment       0x0000000000000000       0x2b /usr/lib/gcc/x86_64-linux-gnu/4.6/../../../../lib/librte_pmd_e1000.a(e1000_vf.o)
 .comment       0x0000000000000000       0x2b /usr/lib/gcc/x86_64-linux-gnu/4.6/../../../../lib/librte_pmd_e1000.a(e1000_80003es2lan.o)
 .comment       0x0000000000000000       0x2b /usr/lib/gcc/x86_64-linux-gnu/4.6/../../../../lib/librte_pmd_e1000.a(e1000_82540.o)
 .comment       0x0000000000000000       0x2b /usr/lib/gcc/x86_64-linux-gnu/4.6/../../../../lib/librte_pmd_e1000.a(e1000_82542.o)
 .comment       0x000000000000002a      0x1af /usr/lib/gcc/x86_64-linux-gnu/4.6/../../../../lib/librte_pmd_ixgbe.a(ixgbe_ethdev.o)
                                        0x1da (size before relaxing)
 .comment       0x0000000000000000      0x1a0 /usr/lib/gcc/x86_64-linux-gnu/4.6/../../../../lib/librte_pmd_ixgbe.a(ixgbe_fdir.o)
 .comment       0x0000000000000000      0x164 /usr/lib/gcc/x86_64-linux-gnu/4.6/../../../../lib/librte_pmd_ixgbe.a(ixgbe_pf.o)
 .comment       0x00000000000001d9       0x7a /usr/lib/gcc/x86_64-linux-gnu/4.6/../../../../lib/librte_pmd_ixgbe.a(ixgbe_common.o)
                                        0x15d (size before relaxing)
 .comment       0x0000000000000253       0x7a /usr/lib/gcc/x86_64-linux-gnu/4.6/../../../../lib/librte_pmd_ixgbe.a(ixgbe_82599.o)
                                        0x198 (size before relaxing)
 .comment       0x00000000000002cd       0x3c /usr/lib/gcc/x86_64-linux-gnu/4.6/../../../../lib/librte_pmd_ixgbe.a(ixgbe_phy.o)
                                        0x15a (size before relaxing)
 .comment       0x0000000000000309       0x3c /usr/lib/gcc/x86_64-linux-gnu/4.6/../../../../lib/librte_pmd_ixgbe.a(ixgbe_api.o)
                                        0x11f (size before relaxing)
 .comment       0x0000000000000345       0x3a /usr/lib/gcc/x86_64-linux-gnu/4.6/../../../../lib/librte_pmd_ixgbe.a(ixgbe_vf.o)
                                        0x118 (size before relaxing)
 .comment       0x000000000000037f       0x3b /usr/lib/gcc/x86_64-linux-gnu/4.6/../../../../lib/librte_pmd_ixgbe.a(ixgbe_dcb.o)
                                        0x160 (size before relaxing)
 .comment       0x00000000000003ba       0x41 /usr/lib/gcc/x86_64-linux-gnu/4.6/../../../../lib/librte_pmd_ixgbe.a(ixgbe_dcb_82599.o)
                                        0x125 (size before relaxing)
 .comment       0x00000000000003fb       0x41 /usr/lib/gcc/x86_64-linux-gnu/4.6/../../../../lib/librte_pmd_ixgbe.a(ixgbe_dcb_82598.o)
                                        0x125 (size before relaxing)
 .comment       0x0000000000000000       0x68 /usr/lib/gcc/x86_64-linux-gnu/4.6/../../../../lib/librte_pmd_ixgbe.a(ixgbe_mbx.o)
 .comment       0x0000000000000000      0x19b /usr/lib/gcc/x86_64-linux-gnu/4.6/../../../../lib/librte_pmd_ixgbe.a(ixgbe_rxtx.o)
 .comment       0x000000000000043c       0x7a /usr/lib/gcc/x86_64-linux-gnu/4.6/../../../../lib/librte_pmd_ixgbe.a(ixgbe_82598.o)
                                        0x198 (size before relaxing)
 .comment       0x00000000000004b6       0x3b /usr/lib/gcc/x86_64-linux-gnu/4.6/../../../../lib/librte_pmd_ixgbe.a(ixgbe_x540.o)
                                        0x159 (size before relaxing)
 .comment       0x0000000000000000       0x2b /usr/lib/gcc/x86_64-linux-gnu/4.6/../../../../lib/librte_pmd_virtio.a(virtio_ethdev.o)
 .comment       0x0000000000000000       0x2b /usr/lib/gcc/x86_64-linux-gnu/4.6/../../../../lib/librte_pmd_virtio.a(virtqueue.o)
 .comment       0x0000000000000000       0x2b /usr/lib/gcc/x86_64-linux-gnu/4.6/../../../../lib/librte_pmd_virtio.a(virtio_pci.o)
 .comment       0x0000000000000000       0x2b /usr/lib/gcc/x86_64-linux-gnu/4.6/../../../../lib/librte_pmd_virtio.a(virtio_rxtx.o)
 .comment       0x0000000000000000       0x2b /usr/lib/gcc/x86_64-linux-gnu/4.6/../../../../lib/librte_mbuf.a(rte_mbuf.o)
 .comment       0x0000000000000000       0x2b /usr/lib/gcc/x86_64-linux-gnu/4.6/../../../../lib/libethdev.a(rte_ethdev.o)
 .comment       0x0000000000000000       0x2b /usr/lib/gcc/x86_64-linux-gnu/4.6/../../../../lib/librte_malloc.a(rte_malloc.o)
 .comment       0x0000000000000000       0x2b /usr/lib/gcc/x86_64-linux-gnu/4.6/../../../../lib/librte_malloc.a(malloc_elem.o)
 .comment       0x0000000000000000       0x2b /usr/lib/gcc/x86_64-linux-gnu/4.6/../../../../lib/librte_malloc.a(malloc_heap.o)
 .comment       0x0000000000000000       0x2b /usr/lib/gcc/x86_64-linux-gnu/4.6/../../../../lib/librte_mempool.a(rte_mempool.o)
 .comment       0x0000000000000000       0x2b /usr/lib/gcc/x86_64-linux-gnu/4.6/../../../../lib/librte_ring.a(rte_ring.o)
 .comment       0x0000000000000000       0x2b /usr/lib/gcc/x86_64-linux-gnu/4.6/../../../../lib/librte_eal.a(eal.o)
 .comment       0x0000000000000000       0x2b /usr/lib/gcc/x86_64-linux-gnu/4.6/../../../../lib/librte_eal.a(eal_hugepage_info.o)
 .comment       0x0000000000000000       0x2b /usr/lib/gcc/x86_64-linux-gnu/4.6/../../../../lib/librte_eal.a(eal_memory.o)
 .comment       0x0000000000000000       0x2b /usr/lib/gcc/x86_64-linux-gnu/4.6/../../../../lib/librte_eal.a(eal_thread.o)
 .comment       0x0000000000000000       0x2b /usr/lib/gcc/x86_64-linux-gnu/4.6/../../../../lib/librte_eal.a(eal_log.o)
 .comment       0x0000000000000000       0x2b /usr/lib/gcc/x86_64-linux-gnu/4.6/../../../../lib/librte_eal.a(eal_pci.o)
 .comment       0x0000000000000000       0x2b /usr/lib/gcc/x86_64-linux-gnu/4.6/../../../../lib/librte_eal.a(eal_debug.o)
 .comment       0x0000000000000000       0x2b /usr/lib/gcc/x86_64-linux-gnu/4.6/../../../../lib/librte_eal.a(eal_lcore.o)
 .comment       0x0000000000000000       0x2b /usr/lib/gcc/x86_64-linux-gnu/4.6/../../../../lib/librte_eal.a(eal_timer.o)
 .comment       0x0000000000000000       0x2b /usr/lib/gcc/x86_64-linux-gnu/4.6/../../../../lib/librte_eal.a(eal_interrupts.o)
 .comment       0x0000000000000000       0x2b /usr/lib/gcc/x86_64-linux-gnu/4.6/../../../../lib/librte_eal.a(eal_alarm.o)
 .comment       0x0000000000000000       0x2b /usr/lib/gcc/x86_64-linux-gnu/4.6/../../../../lib/librte_eal.a(eal_common_memzone.o)
 .comment       0x0000000000000000       0x2b /usr/lib/gcc/x86_64-linux-gnu/4.6/../../../../lib/librte_eal.a(eal_common_log.o)
 .comment       0x0000000000000000       0x2b /usr/lib/gcc/x86_64-linux-gnu/4.6/../../../../lib/librte_eal.a(eal_common_launch.o)
 .comment       0x0000000000000000       0x2b /usr/lib/gcc/x86_64-linux-gnu/4.6/../../../../lib/librte_eal.a(eal_common_pci.o)
 .comment       0x0000000000000000       0x2b /usr/lib/gcc/x86_64-linux-gnu/4.6/../../../../lib/librte_eal.a(eal_common_memory.o)
 .comment       0x0000000000000000       0x2b /usr/lib/gcc/x86_64-linux-gnu/4.6/../../../../lib/librte_eal.a(eal_common_tailqs.o)
 .comment       0x0000000000000000       0x2b /usr/lib/gcc/x86_64-linux-gnu/4.6/../../../../lib/librte_eal.a(eal_common_errno.o)
 .comment       0x0000000000000000       0x2b /usr/lib/gcc/x86_64-linux-gnu/4.6/../../../../lib/librte_eal.a(eal_common_hexdump.o)
 .comment       0x0000000000000000       0x2b /usr/lib/gcc/x86_64-linux-gnu/4.6/../../../../lib/librte_eal.a(eal_common_whitelist.o)
 .comment       0x0000000000000000       0x2b /usr/lib/gcc/x86_64-linux-gnu/4.6/../../../../lib/librte_eal.a(eal_common_nonpci_devs.o)
 .comment       0x0000000000000000       0x2b /usr/lib/gcc/x86_64-linux-gnu/4.6/../../../../lib/librte_pmd_ring.a(rte_eth_ring.o)
 .comment       0x0000000000000000       0x2b /usr/lib/x86_64-linux-gnu/libc_nonshared.a(elf-init.oS)
 .comment       0x0000000000000000       0x2b /usr/lib/gcc/x86_64-linux-gnu/4.6/crtend.o

.debug
 *(.debug)

.line
 *(.line)

.debug_srcinfo
 *(.debug_srcinfo)

.debug_sfnames
 *(.debug_sfnames)

.debug_aranges
 *(.debug_aranges)

.debug_pubnames
 *(.debug_pubnames)

.debug_info
 *(.debug_info .gnu.linkonce.wi.*)

.debug_abbrev
 *(.debug_abbrev)

.debug_line
 *(.debug_line)

.debug_frame
 *(.debug_frame)

.debug_str
 *(.debug_str)

.debug_loc
 *(.debug_loc)

.debug_macinfo
 *(.debug_macinfo)

.debug_weaknames
 *(.debug_weaknames)

.debug_funcnames
 *(.debug_funcnames)

.debug_typenames
 *(.debug_typenames)

.debug_varnames
 *(.debug_varnames)

.debug_pubtypes
 *(.debug_pubtypes)

.debug_ranges
 *(.debug_ranges)

.gnu.attributes
 *(.gnu.attributes)

/DISCARD/
 *(.note.GNU-stack)
 *(.gnu_debuglink)
 *(.gnu.lto_*)
OUTPUT(l2fwd elf64-x86-64)

Cross Reference Table

Symbol                                            File
GLIBC_2.10                                        /lib/x86_64-linux-gnu/libc.so.6
GLIBC_2.11                                        /lib/x86_64-linux-gnu/libpthread.so.0
                                                  /lib/x86_64-linux-gnu/libc.so.6
GLIBC_2.12                                        /lib/x86_64-linux-gnu/libpthread.so.0
                                                  /lib/x86_64-linux-gnu/libc.so.6
GLIBC_2.13                                        /lib/x86_64-linux-gnu/libc.so.6
GLIBC_2.14                                        /lib/x86_64-linux-gnu/libc.so.6
GLIBC_2.15                                        /lib/x86_64-linux-gnu/libc.so.6
GLIBC_2.2.5                                       /usr/lib/gcc/x86_64-linux-gnu/4.6/../../../x86_64-linux-gnu/librt.so
                                                  /lib/x86_64-linux-gnu/ld-linux-x86-64.so.2
                                                  /lib/x86_64-linux-gnu/libc.so.6
                                                  /lib/x86_64-linux-gnu/libpthread.so.0
GLIBC_2.2.6                                       /lib/x86_64-linux-gnu/libpthread.so.0
                                                  /lib/x86_64-linux-gnu/libc.so.6
GLIBC_2.3                                         /lib/x86_64-linux-gnu/libc.so.6
                                                  /lib/x86_64-linux-gnu/ld-linux-x86-64.so.2
GLIBC_2.3.2                                       /lib/x86_64-linux-gnu/libpthread.so.0
                                                  /lib/x86_64-linux-gnu/libc.so.6
GLIBC_2.3.3                                       /usr/lib/gcc/x86_64-linux-gnu/4.6/../../../x86_64-linux-gnu/librt.so
                                                  /lib/x86_64-linux-gnu/libc.so.6
                                                  /lib/x86_64-linux-gnu/libpthread.so.0
GLIBC_2.3.4                                       /usr/lib/gcc/x86_64-linux-gnu/4.6/../../../x86_64-linux-gnu/librt.so
                                                  /lib/x86_64-linux-gnu/libc.so.6
                                                  /lib/x86_64-linux-gnu/libpthread.so.0
GLIBC_2.4                                         /usr/lib/gcc/x86_64-linux-gnu/4.6/../../../x86_64-linux-gnu/librt.so
                                                  /lib/x86_64-linux-gnu/ld-linux-x86-64.so.2
                                                  /lib/x86_64-linux-gnu/libc.so.6
                                                  /lib/x86_64-linux-gnu/libpthread.so.0
GLIBC_2.5                                         /lib/x86_64-linux-gnu/libc.so.6
GLIBC_2.6                                         /lib/x86_64-linux-gnu/libc.so.6
GLIBC_2.7                                         /usr/lib/gcc/x86_64-linux-gnu/4.6/../../../x86_64-linux-gnu/librt.so
                                                  /lib/x86_64-linux-gnu/libc.so.6
GLIBC_2.8                                         /lib/x86_64-linux-gnu/libc.so.6
GLIBC_2.9                                         /lib/x86_64-linux-gnu/libc.so.6
GLIBC_PRIVATE                                     /lib/x86_64-linux-gnu/libpthread.so.0
                                                  /lib/x86_64-linux-gnu/ld-linux-x86-64.so.2
                                                  /lib/x86_64-linux-gnu/libc.so.6
_DYNAMIC                                          /usr/lib/gcc/x86_64-linux-gnu/4.6/../../../x86_64-linux-gnu/crt1.o
_Exit                                             /lib/x86_64-linux-gnu/libc.so.6
_Exit@@GLIBC_2.2.5                                /lib/x86_64-linux-gnu/libc.so.6
_Exit@GLIBC_2.2.5                                 /lib/x86_64-linux-gnu/libc.so.6
_GLOBAL_OFFSET_TABLE_                             /usr/lib/gcc/x86_64-linux-gnu/4.6/../../../x86_64-linux-gnu/crt1.o
                                                  /usr/lib/x86_64-linux-gnu/libc_nonshared.a(elf-init.oS)
                                                  /usr/lib/gcc/x86_64-linux-gnu/4.6/../../../../lib/librte_pmd_ring.a(rte_eth_ring.o)
                                                  /usr/lib/gcc/x86_64-linux-gnu/4.6/../../../../lib/librte_eal.a(eal_common_errno.o)
                                                  /usr/lib/gcc/x86_64-linux-gnu/4.6/../../../../lib/librte_eal.a(eal_common_log.o)
                                                  /usr/lib/gcc/x86_64-linux-gnu/4.6/../../../../lib/librte_eal.a(eal_common_memzone.o)
                                                  /usr/lib/gcc/x86_64-linux-gnu/4.6/../../../../lib/librte_eal.a(eal_alarm.o)
                                                  /usr/lib/gcc/x86_64-linux-gnu/4.6/../../../../lib/librte_eal.a(eal_thread.o)
                                                  /usr/lib/gcc/x86_64-linux-gnu/4.6/../../../../lib/librte_ring.a(rte_ring.o)
                                                  /usr/lib/gcc/x86_64-linux-gnu/4.6/../../../../lib/librte_mempool.a(rte_mempool.o)
                                                  /usr/lib/gcc/x86_64-linux-gnu/4.6/../../../../lib/librte_malloc.a(rte_malloc.o)
                                                  /usr/lib/gcc/x86_64-linux-gnu/4.6/../../../../lib/libethdev.a(rte_ethdev.o)
                                                  /usr/lib/gcc/x86_64-linux-gnu/4.6/../../../../lib/librte_pmd_virtio.a(virtio_rxtx.o)
                                                  /usr/lib/gcc/x86_64-linux-gnu/4.6/../../../../lib/librte_pmd_virtio.a(virtio_ethdev.o)
                                                  /usr/lib/gcc/x86_64-linux-gnu/4.6/../../../../lib/librte_pmd_ixgbe.a(ixgbe_rxtx.o)
                                                  /usr/lib/gcc/x86_64-linux-gnu/4.6/../../../../lib/librte_pmd_e1000.a(em_rxtx.o)
                                                  /usr/lib/gcc/x86_64-linux-gnu/4.6/../../../../lib/librte_pmd_e1000.a(igb_rxtx.o)
                                                  client.o
                                                  server.o
                                                  /usr/lib/gcc/x86_64-linux-gnu/4.6/../../../x86_64-linux-gnu/crti.o
_IO_fprintf                                       /lib/x86_64-linux-gnu/libc.so.6
_IO_fprintf@@GLIBC_2.2.5                          /lib/x86_64-linux-gnu/libc.so.6
_IO_fprintf@GLIBC_2.2.5                           /lib/x86_64-linux-gnu/libc.so.6
_IO_stdin_used                                    /usr/lib/gcc/x86_64-linux-gnu/4.6/../../../x86_64-linux-gnu/crt1.o
_Jv_RegisterClasses                               /lib/x86_64-linux-gnu/libpthread.so.0
                                                  /usr/lib/gcc/x86_64-linux-gnu/4.6/../../../x86_64-linux-gnu/librt.so
                                                  /usr/lib/gcc/x86_64-linux-gnu/4.6/crtbegin.o
__DTOR_END__                                      /usr/lib/gcc/x86_64-linux-gnu/4.6/crtend.o
                                                  /usr/lib/gcc/x86_64-linux-gnu/4.6/crtbegin.o
__after_morecore_hook                             /lib/x86_64-linux-gnu/libc.so.6
__after_morecore_hook@@GLIBC_2.2.5                /lib/x86_64-linux-gnu/libc.so.6
__after_morecore_hook@GLIBC_2.2.5                 /lib/x86_64-linux-gnu/libc.so.6
__assert_fail                                     /lib/x86_64-linux-gnu/libc.so.6
                                                  server.o
                                                  common.o
__assert_fail@@GLIBC_2.2.5                        /lib/x86_64-linux-gnu/libc.so.6
__assert_fail@GLIBC_2.2.5                         /lib/x86_64-linux-gnu/libc.so.6
                                                  /lib/x86_64-linux-gnu/libpthread.so.0
                                                  /usr/lib/gcc/x86_64-linux-gnu/4.6/../../../x86_64-linux-gnu/librt.so
__close                                           /lib/x86_64-linux-gnu/libpthread.so.0
__close@@GLIBC_2.2.5                              /lib/x86_64-linux-gnu/libpthread.so.0
                                                  /lib/x86_64-linux-gnu/libc.so.6
__close@GLIBC_2.2.5                               /lib/x86_64-linux-gnu/libpthread.so.0
__connect                                         /lib/x86_64-linux-gnu/libpthread.so.0
__connect@@GLIBC_2.2.5                            /lib/x86_64-linux-gnu/libpthread.so.0
                                                  /lib/x86_64-linux-gnu/libc.so.6
__connect@GLIBC_2.2.5                             /lib/x86_64-linux-gnu/libpthread.so.0
__ctype_b_loc                                     /lib/x86_64-linux-gnu/libc.so.6
                                                  /usr/lib/gcc/x86_64-linux-gnu/4.6/../../../../lib/librte_eal.a(eal_hugepage_info.o)
                                                  /usr/lib/gcc/x86_64-linux-gnu/4.6/../../../../lib/librte_eal.a(eal.o)
                                                  /usr/lib/gcc/x86_64-linux-gnu/4.6/../../../../lib/librte_malloc.a(malloc_heap.o)
__ctype_b_loc@@GLIBC_2.3                          /lib/x86_64-linux-gnu/libc.so.6
__ctype_b_loc@GLIBC_2.3                           /lib/x86_64-linux-gnu/libc.so.6
__ctype_get_mb_cur_max                            /lib/x86_64-linux-gnu/libc.so.6
__ctype_get_mb_cur_max@@GLIBC_2.2.5               /lib/x86_64-linux-gnu/libc.so.6
__ctype_get_mb_cur_max@GLIBC_2.2.5                /lib/x86_64-linux-gnu/libc.so.6
__ctype_tolower_loc                               /lib/x86_64-linux-gnu/libc.so.6
                                                  /usr/lib/gcc/x86_64-linux-gnu/4.6/../../../../lib/librte_eal.a(eal_common_whitelist.o)
__ctype_tolower_loc@@GLIBC_2.3                    /lib/x86_64-linux-gnu/libc.so.6
__ctype_tolower_loc@GLIBC_2.3                     /lib/x86_64-linux-gnu/libc.so.6
__data_start                                      /usr/lib/gcc/x86_64-linux-gnu/4.6/../../../x86_64-linux-gnu/crt1.o
__dso_handle                                      /usr/lib/gcc/x86_64-linux-gnu/4.6/crtbegin.o
__errno_location                                  /lib/x86_64-linux-gnu/libpthread.so.0
                                                  /usr/lib/gcc/x86_64-linux-gnu/4.6/../../../../lib/librte_pmd_ring.a(rte_eth_ring.o)
                                                  /usr/lib/gcc/x86_64-linux-gnu/4.6/../../../../lib/librte_eal.a(eal_common_nonpci_devs.o)
                                                  /usr/lib/gcc/x86_64-linux-gnu/4.6/../../../../lib/librte_eal.a(eal_common_whitelist.o)
                                                  /usr/lib/gcc/x86_64-linux-gnu/4.6/../../../../lib/librte_eal.a(eal_common_hexdump.o)
                                                  /usr/lib/gcc/x86_64-linux-gnu/4.6/../../../../lib/librte_eal.a(eal_common_errno.o)
                                                  /usr/lib/gcc/x86_64-linux-gnu/4.6/../../../../lib/librte_eal.a(eal_common_pci.o)
                                                  /usr/lib/gcc/x86_64-linux-gnu/4.6/../../../../lib/librte_eal.a(eal_common_memzone.o)
                                                  /usr/lib/gcc/x86_64-linux-gnu/4.6/../../../../lib/librte_eal.a(eal_alarm.o)
                                                  /usr/lib/gcc/x86_64-linux-gnu/4.6/../../../../lib/librte_eal.a(eal_interrupts.o)
                                                  /usr/lib/gcc/x86_64-linux-gnu/4.6/../../../../lib/librte_eal.a(eal_lcore.o)
                                                  /usr/lib/gcc/x86_64-linux-gnu/4.6/../../../../lib/librte_eal.a(eal_pci.o)
                                                  /usr/lib/gcc/x86_64-linux-gnu/4.6/../../../../lib/librte_eal.a(eal_thread.o)
                                                  /usr/lib/gcc/x86_64-linux-gnu/4.6/../../../../lib/librte_eal.a(eal_memory.o)
                                                  /usr/lib/gcc/x86_64-linux-gnu/4.6/../../../../lib/librte_eal.a(eal_hugepage_info.o)
                                                  /usr/lib/gcc/x86_64-linux-gnu/4.6/../../../../lib/librte_eal.a(eal.o)
                                                  /usr/lib/gcc/x86_64-linux-gnu/4.6/../../../../lib/librte_ring.a(rte_ring.o)
                                                  /usr/lib/gcc/x86_64-linux-gnu/4.6/../../../../lib/librte_mempool.a(rte_mempool.o)
                                                  /usr/lib/gcc/x86_64-linux-gnu/4.6/../../../../lib/librte_malloc.a(malloc_heap.o)
                                                  /usr/lib/gcc/x86_64-linux-gnu/4.6/../../../../lib/librte_pmd_virtio.a(virtio_rxtx.o)
                                                  /usr/lib/gcc/x86_64-linux-gnu/4.6/../../../../lib/librte_pmd_virtio.a(virtio_ethdev.o)
                                                  /usr/lib/gcc/x86_64-linux-gnu/4.6/../../../../lib/librte_pmd_ixgbe.a(ixgbe_rxtx.o)
                                                  /usr/lib/gcc/x86_64-linux-gnu/4.6/../../../../lib/librte_pmd_e1000.a(em_rxtx.o)
                                                  /usr/lib/gcc/x86_64-linux-gnu/4.6/../../../../lib/librte_pmd_e1000.a(igb_rxtx.o)
__errno_location@@GLIBC_2.2.5                     /lib/x86_64-linux-gnu/libpthread.so.0
                                                  /lib/x86_64-linux-gnu/libc.so.6
__errno_location@GLIBC_2.2.5                      /lib/x86_64-linux-gnu/libpthread.so.0
__fcntl                                           /lib/x86_64-linux-gnu/libpthread.so.0
__fcntl@@GLIBC_2.2.5                              /lib/x86_64-linux-gnu/libpthread.so.0
                                                  /lib/x86_64-linux-gnu/libc.so.6
__fcntl@GLIBC_2.2.5                               /lib/x86_64-linux-gnu/libpthread.so.0
__fprintf_chk                                     /lib/x86_64-linux-gnu/libc.so.6
                                                  common.o
__fprintf_chk@@GLIBC_2.3.4                        /lib/x86_64-linux-gnu/libc.so.6
__fprintf_chk@GLIBC_2.3.4                         /lib/x86_64-linux-gnu/libc.so.6
__free_hook                                       /lib/x86_64-linux-gnu/libc.so.6
__free_hook@@GLIBC_2.2.5                          /lib/x86_64-linux-gnu/libc.so.6
__free_hook@GLIBC_2.2.5                           /lib/x86_64-linux-gnu/libc.so.6
__fxstat                                          /lib/x86_64-linux-gnu/libc.so.6
                                                  /usr/lib/gcc/x86_64-linux-gnu/4.6/../../../../lib/librte_eal.a(eal_memory.o)
__fxstat@@GLIBC_2.2.5                             /lib/x86_64-linux-gnu/libc.so.6
__fxstat@GLIBC_2.2.5                              /lib/x86_64-linux-gnu/libc.so.6
__getdelim                                        /lib/x86_64-linux-gnu/libc.so.6
__getdelim@@GLIBC_2.2.5                           /lib/x86_64-linux-gnu/libc.so.6
__getdelim@GLIBC_2.2.5                            /lib/x86_64-linux-gnu/libc.so.6
                                                  /lib/x86_64-linux-gnu/libpthread.so.0
__gmon_start__                                    /usr/lib/gcc/x86_64-linux-gnu/4.6/../../../x86_64-linux-gnu/librt.so
                                                  /usr/lib/gcc/x86_64-linux-gnu/4.6/../../../x86_64-linux-gnu/crti.o
__init_array_end                                  /usr/lib/x86_64-linux-gnu/libc_nonshared.a(elf-init.oS)
__init_array_start                                /usr/lib/x86_64-linux-gnu/libc_nonshared.a(elf-init.oS)
__isascii_l                                       /lib/x86_64-linux-gnu/libc.so.6
__isascii_l@@GLIBC_2.2.5                          /lib/x86_64-linux-gnu/libc.so.6
__isascii_l@GLIBC_2.2.5                           /lib/x86_64-linux-gnu/libc.so.6
__libc_csu_fini                                   /usr/lib/x86_64-linux-gnu/libc_nonshared.a(elf-init.oS)
                                                  /usr/lib/gcc/x86_64-linux-gnu/4.6/../../../x86_64-linux-gnu/crt1.o
__libc_csu_init                                   /usr/lib/x86_64-linux-gnu/libc_nonshared.a(elf-init.oS)
                                                  /usr/lib/gcc/x86_64-linux-gnu/4.6/../../../x86_64-linux-gnu/crt1.o
__libc_start_main                                 /lib/x86_64-linux-gnu/libc.so.6
                                                  /usr/lib/gcc/x86_64-linux-gnu/4.6/../../../x86_64-linux-gnu/crt1.o
__libc_start_main@@GLIBC_2.2.5                    /lib/x86_64-linux-gnu/libc.so.6
__libc_start_main@GLIBC_2.2.5                     /lib/x86_64-linux-gnu/libc.so.6
__lseek                                           /lib/x86_64-linux-gnu/libpthread.so.0
__lseek@@GLIBC_2.2.5                              /lib/x86_64-linux-gnu/libpthread.so.0
                                                  /lib/x86_64-linux-gnu/libc.so.6
__lseek@GLIBC_2.2.5                               /lib/x86_64-linux-gnu/libpthread.so.0
__malloc_hook                                     /lib/x86_64-linux-gnu/libc.so.6
__malloc_hook@@GLIBC_2.2.5                        /lib/x86_64-linux-gnu/libc.so.6
__malloc_hook@GLIBC_2.2.5                         /lib/x86_64-linux-gnu/libc.so.6
__malloc_initialize_hook                          /lib/x86_64-linux-gnu/libc.so.6
__malloc_initialize_hook@@GLIBC_2.2.5             /lib/x86_64-linux-gnu/libc.so.6
__malloc_initialize_hook@GLIBC_2.2.5              /lib/x86_64-linux-gnu/libc.so.6
__memalign_hook                                   /lib/x86_64-linux-gnu/libc.so.6
__memalign_hook@@GLIBC_2.2.5                      /lib/x86_64-linux-gnu/libc.so.6
__memalign_hook@GLIBC_2.2.5                       /lib/x86_64-linux-gnu/libc.so.6
__memcpy_chk                                      /lib/x86_64-linux-gnu/libc.so.6
                                                  /usr/lib/gcc/x86_64-linux-gnu/4.6/../../../../lib/librte_eal.a(eal_log.o)
__memcpy_chk@@GLIBC_2.3.4                         /lib/x86_64-linux-gnu/libc.so.6
__memcpy_chk@GLIBC_2.3.4                          /lib/x86_64-linux-gnu/libc.so.6
__nanosleep                                       /lib/x86_64-linux-gnu/libpthread.so.0
__nanosleep@@GLIBC_2.2.6                          /lib/x86_64-linux-gnu/libpthread.so.0
                                                  /lib/x86_64-linux-gnu/libc.so.6
__nanosleep@GLIBC_2.2.6                           /lib/x86_64-linux-gnu/libpthread.so.0
__open                                            /lib/x86_64-linux-gnu/libpthread.so.0
__open64                                          /lib/x86_64-linux-gnu/libpthread.so.0
__open64@@GLIBC_2.2.5                             /lib/x86_64-linux-gnu/libpthread.so.0
                                                  /lib/x86_64-linux-gnu/libc.so.6
__open64@GLIBC_2.2.5                              /lib/x86_64-linux-gnu/libpthread.so.0
__open@@GLIBC_2.2.5                               /lib/x86_64-linux-gnu/libpthread.so.0
                                                  /lib/x86_64-linux-gnu/libc.so.6
__open@GLIBC_2.2.5                                /lib/x86_64-linux-gnu/libpthread.so.0
__openat64_2                                      /lib/x86_64-linux-gnu/libc.so.6
__openat64_2@@GLIBC_2.7                           /lib/x86_64-linux-gnu/libc.so.6
__openat64_2@GLIBC_2.7                            /lib/x86_64-linux-gnu/libc.so.6
__pread64                                         /lib/x86_64-linux-gnu/libpthread.so.0
__pread64@@GLIBC_2.2.5                            /lib/x86_64-linux-gnu/libpthread.so.0
                                                  /lib/x86_64-linux-gnu/libc.so.6
__pread64@GLIBC_2.2.5                             /lib/x86_64-linux-gnu/libpthread.so.0
__printf_chk                                      /lib/x86_64-linux-gnu/libc.so.6
                                                  /usr/lib/gcc/x86_64-linux-gnu/4.6/../../../../lib/librte_eal.a(eal_common_hexdump.o)
                                                  /usr/lib/gcc/x86_64-linux-gnu/4.6/../../../../lib/librte_eal.a(eal_common_tailqs.o)
                                                  /usr/lib/gcc/x86_64-linux-gnu/4.6/../../../../lib/librte_eal.a(eal_common_memory.o)
                                                  /usr/lib/gcc/x86_64-linux-gnu/4.6/../../../../lib/librte_eal.a(eal_common_pci.o)
                                                  /usr/lib/gcc/x86_64-linux-gnu/4.6/../../../../lib/librte_eal.a(eal_common_memzone.o)
                                                  /usr/lib/gcc/x86_64-linux-gnu/4.6/../../../../lib/librte_eal.a(eal.o)
                                                  /usr/lib/gcc/x86_64-linux-gnu/4.6/../../../../lib/librte_ring.a(rte_ring.o)
                                                  /usr/lib/gcc/x86_64-linux-gnu/4.6/../../../../lib/librte_mempool.a(rte_mempool.o)
                                                  /usr/lib/gcc/x86_64-linux-gnu/4.6/../../../../lib/librte_malloc.a(rte_malloc.o)
                                                  /usr/lib/gcc/x86_64-linux-gnu/4.6/../../../../lib/librte_mbuf.a(rte_mbuf.o)
                                                  client.o
                                                  server.o
                                                  common.o
                                                  main.o
__printf_chk@@GLIBC_2.3.4                         /lib/x86_64-linux-gnu/libc.so.6
__printf_chk@GLIBC_2.3.4                          /lib/x86_64-linux-gnu/libc.so.6
__pwrite64                                        /lib/x86_64-linux-gnu/libpthread.so.0
__pwrite64@@GLIBC_2.2.5                           /lib/x86_64-linux-gnu/libpthread.so.0
                                                  /lib/x86_64-linux-gnu/libc.so.6
__pwrite64@GLIBC_2.2.5                            /lib/x86_64-linux-gnu/libpthread.so.0
__read                                            /lib/x86_64-linux-gnu/libpthread.so.0
__read@@GLIBC_2.2.5                               /lib/x86_64-linux-gnu/libpthread.so.0
                                                  /lib/x86_64-linux-gnu/libc.so.6
__read@GLIBC_2.2.5                                /lib/x86_64-linux-gnu/libpthread.so.0
__read_chk                                        /lib/x86_64-linux-gnu/libc.so.6
                                                  /usr/lib/gcc/x86_64-linux-gnu/4.6/../../../../lib/librte_eal.a(eal_interrupts.o)
__read_chk@@GLIBC_2.4                             /lib/x86_64-linux-gnu/libc.so.6
__read_chk@GLIBC_2.4                              /lib/x86_64-linux-gnu/libc.so.6
__realloc_hook                                    /lib/x86_64-linux-gnu/libc.so.6
__realloc_hook@@GLIBC_2.2.5                       /lib/x86_64-linux-gnu/libc.so.6
__realloc_hook@GLIBC_2.2.5                        /lib/x86_64-linux-gnu/libc.so.6
__rte_panic                                       /usr/lib/gcc/x86_64-linux-gnu/4.6/../../../../lib/librte_eal.a(eal_debug.o)
                                                  /usr/lib/gcc/x86_64-linux-gnu/4.6/../../../../lib/librte_eal.a(eal_common_whitelist.o)
                                                  /usr/lib/gcc/x86_64-linux-gnu/4.6/../../../../lib/librte_eal.a(eal_interrupts.o)
                                                  /usr/lib/gcc/x86_64-linux-gnu/4.6/../../../../lib/librte_eal.a(eal_timer.o)
                                                  /usr/lib/gcc/x86_64-linux-gnu/4.6/../../../../lib/librte_eal.a(eal_lcore.o)
                                                  /usr/lib/gcc/x86_64-linux-gnu/4.6/../../../../lib/librte_eal.a(eal_thread.o)
                                                  /usr/lib/gcc/x86_64-linux-gnu/4.6/../../../../lib/librte_eal.a(eal_hugepage_info.o)
                                                  /usr/lib/gcc/x86_64-linux-gnu/4.6/../../../../lib/librte_eal.a(eal.o)
                                                  /usr/lib/gcc/x86_64-linux-gnu/4.6/../../../../lib/librte_mempool.a(rte_mempool.o)
                                                  /usr/lib/gcc/x86_64-linux-gnu/4.6/../../../../lib/librte_malloc.a(malloc_elem.o)
                                                  /usr/lib/gcc/x86_64-linux-gnu/4.6/../../../../lib/librte_malloc.a(rte_malloc.o)
                                                  /usr/lib/gcc/x86_64-linux-gnu/4.6/../../../../lib/libethdev.a(rte_ethdev.o)
                                                  /usr/lib/gcc/x86_64-linux-gnu/4.6/../../../../lib/librte_mbuf.a(rte_mbuf.o)
                                                  /usr/lib/gcc/x86_64-linux-gnu/4.6/../../../../lib/librte_pmd_ixgbe.a(ixgbe_dcb_82599.o)
                                                  /usr/lib/gcc/x86_64-linux-gnu/4.6/../../../../lib/librte_pmd_ixgbe.a(ixgbe_vf.o)
                                                  /usr/lib/gcc/x86_64-linux-gnu/4.6/../../../../lib/librte_pmd_ixgbe.a(ixgbe_common.o)
                                                  /usr/lib/gcc/x86_64-linux-gnu/4.6/../../../../lib/librte_pmd_ixgbe.a(ixgbe_pf.o)
                                                  /usr/lib/gcc/x86_64-linux-gnu/4.6/../../../../lib/librte_pmd_e1000.a(e1000_ich8lan.o)
                                                  /usr/lib/gcc/x86_64-linux-gnu/4.6/../../../../lib/librte_pmd_e1000.a(igb_pf.o)
__sched_cpualloc                                  /lib/x86_64-linux-gnu/libc.so.6
                                                  /usr/lib/gcc/x86_64-linux-gnu/4.6/../../../../lib/librte_eal.a(eal_thread.o)
__sched_cpualloc@@GLIBC_2.7                       /lib/x86_64-linux-gnu/libc.so.6
__sched_cpualloc@GLIBC_2.7                        /lib/x86_64-linux-gnu/libc.so.6
__sched_cpufree                                   /lib/x86_64-linux-gnu/libc.so.6
                                                  /usr/lib/gcc/x86_64-linux-gnu/4.6/../../../../lib/librte_eal.a(eal_thread.o)
__sched_cpufree@@GLIBC_2.7                        /lib/x86_64-linux-gnu/libc.so.6
__sched_cpufree@GLIBC_2.7                         /lib/x86_64-linux-gnu/libc.so.6
__send                                            /lib/x86_64-linux-gnu/libpthread.so.0
__send@@GLIBC_2.2.5                               /lib/x86_64-linux-gnu/libpthread.so.0
                                                  /lib/x86_64-linux-gnu/libc.so.6
__send@GLIBC_2.2.5                                /lib/x86_64-linux-gnu/libpthread.so.0
__snprintf_chk                                    /lib/x86_64-linux-gnu/libc.so.6
                                                  common.o
__snprintf_chk@@GLIBC_2.3.4                       /lib/x86_64-linux-gnu/libc.so.6
__snprintf_chk@GLIBC_2.3.4                        /lib/x86_64-linux-gnu/libc.so.6
__sprintf_chk                                     /lib/x86_64-linux-gnu/libc.so.6
                                                  main.o
__sprintf_chk@@GLIBC_2.3.4                        /lib/x86_64-linux-gnu/libc.so.6
__sprintf_chk@GLIBC_2.3.4                         /lib/x86_64-linux-gnu/libc.so.6
__stack_chk_fail                                  /lib/x86_64-linux-gnu/libc.so.6
                                                  /usr/lib/gcc/x86_64-linux-gnu/4.6/../../../../lib/librte_pmd_ring.a(rte_eth_ring.o)
                                                  /usr/lib/gcc/x86_64-linux-gnu/4.6/../../../../lib/librte_eal.a(eal_common_nonpci_devs.o)
                                                  /usr/lib/gcc/x86_64-linux-gnu/4.6/../../../../lib/librte_eal.a(eal_common_whitelist.o)
                                                  /usr/lib/gcc/x86_64-linux-gnu/4.6/../../../../lib/librte_eal.a(eal_common_hexdump.o)
                                                  /usr/lib/gcc/x86_64-linux-gnu/4.6/../../../../lib/librte_eal.a(eal_common_pci.o)
                                                  /usr/lib/gcc/x86_64-linux-gnu/4.6/../../../../lib/librte_eal.a(eal_interrupts.o)
                                                  /usr/lib/gcc/x86_64-linux-gnu/4.6/../../../../lib/librte_eal.a(eal_lcore.o)
                                                  /usr/lib/gcc/x86_64-linux-gnu/4.6/../../../../lib/librte_eal.a(eal_pci.o)
                                                  /usr/lib/gcc/x86_64-linux-gnu/4.6/../../../../lib/librte_eal.a(eal_log.o)
                                                  /usr/lib/gcc/x86_64-linux-gnu/4.6/../../../../lib/librte_eal.a(eal_memory.o)
                                                  /usr/lib/gcc/x86_64-linux-gnu/4.6/../../../../lib/librte_eal.a(eal_hugepage_info.o)
                                                  /usr/lib/gcc/x86_64-linux-gnu/4.6/../../../../lib/librte_eal.a(eal.o)
                                                  /usr/lib/gcc/x86_64-linux-gnu/4.6/../../../../lib/librte_ring.a(rte_ring.o)
                                                  /usr/lib/gcc/x86_64-linux-gnu/4.6/../../../../lib/librte_mempool.a(rte_mempool.o)
                                                  /usr/lib/gcc/x86_64-linux-gnu/4.6/../../../../lib/librte_malloc.a(malloc_heap.o)
                                                  /usr/lib/gcc/x86_64-linux-gnu/4.6/../../../../lib/libethdev.a(rte_ethdev.o)
                                                  /usr/lib/gcc/x86_64-linux-gnu/4.6/../../../../lib/librte_pmd_virtio.a(virtio_rxtx.o)
                                                  /usr/lib/gcc/x86_64-linux-gnu/4.6/../../../../lib/librte_pmd_virtio.a(virtio_ethdev.o)
                                                  /usr/lib/gcc/x86_64-linux-gnu/4.6/../../../../lib/librte_pmd_ixgbe.a(ixgbe_rxtx.o)
                                                  /usr/lib/gcc/x86_64-linux-gnu/4.6/../../../../lib/librte_pmd_ixgbe.a(ixgbe_dcb.o)
                                                  /usr/lib/gcc/x86_64-linux-gnu/4.6/../../../../lib/librte_pmd_ixgbe.a(ixgbe_pf.o)
                                                  /usr/lib/gcc/x86_64-linux-gnu/4.6/../../../../lib/librte_pmd_ixgbe.a(ixgbe_ethdev.o)
                                                  /usr/lib/gcc/x86_64-linux-gnu/4.6/../../../../lib/librte_pmd_e1000.a(e1000_mac.o)
                                                  /usr/lib/gcc/x86_64-linux-gnu/4.6/../../../../lib/librte_pmd_e1000.a(igb_pf.o)
                                                  /usr/lib/gcc/x86_64-linux-gnu/4.6/../../../../lib/librte_pmd_e1000.a(em_rxtx.o)
                                                  /usr/lib/gcc/x86_64-linux-gnu/4.6/../../../../lib/librte_pmd_e1000.a(em_ethdev.o)
                                                  /usr/lib/gcc/x86_64-linux-gnu/4.6/../../../../lib/librte_pmd_e1000.a(igb_rxtx.o)
                                                  /usr/lib/gcc/x86_64-linux-gnu/4.6/../../../../lib/librte_pmd_e1000.a(igb_ethdev.o)
                                                  common.o
                                                  main.o
__stack_chk_fail@@GLIBC_2.4                       /lib/x86_64-linux-gnu/libc.so.6
__stack_chk_fail@GLIBC_2.4                        /lib/x86_64-linux-gnu/libc.so.6
__strdup                                          /lib/x86_64-linux-gnu/libc.so.6
                                                  /usr/lib/gcc/x86_64-linux-gnu/4.6/../../../../lib/librte_eal.a(eal_hugepage_info.o)
__strdup@@GLIBC_2.2.5                             /lib/x86_64-linux-gnu/libc.so.6
__strdup@GLIBC_2.2.5                              /lib/x86_64-linux-gnu/libc.so.6
__strtoll_l                                       /lib/x86_64-linux-gnu/libc.so.6
__strtoll_l@@GLIBC_2.2.5                          /lib/x86_64-linux-gnu/libc.so.6
__strtoll_l@GLIBC_2.2.5                           /lib/x86_64-linux-gnu/libc.so.6
__strtoull_l                                      /lib/x86_64-linux-gnu/libc.so.6
__strtoull_l@@GLIBC_2.2.5                         /lib/x86_64-linux-gnu/libc.so.6
__strtoull_l@GLIBC_2.2.5                          /lib/x86_64-linux-gnu/libc.so.6
__syslog_chk                                      /lib/x86_64-linux-gnu/libc.so.6
                                                  /usr/lib/gcc/x86_64-linux-gnu/4.6/../../../../lib/librte_eal.a(eal_log.o)
__syslog_chk@@GLIBC_2.4                           /lib/x86_64-linux-gnu/libc.so.6
__syslog_chk@GLIBC_2.4                            /lib/x86_64-linux-gnu/libc.so.6
__toascii_l                                       /lib/x86_64-linux-gnu/libc.so.6
__toascii_l@@GLIBC_2.2.5                          /lib/x86_64-linux-gnu/libc.so.6
__toascii_l@GLIBC_2.2.5                           /lib/x86_64-linux-gnu/libc.so.6
__vfprintf_chk                                    /lib/x86_64-linux-gnu/libc.so.6
                                                  /usr/lib/gcc/x86_64-linux-gnu/4.6/../../../../lib/librte_eal.a(eal_common_log.o)
__vfprintf_chk@@GLIBC_2.3.4                       /lib/x86_64-linux-gnu/libc.so.6
__vfprintf_chk@GLIBC_2.3.4                        /lib/x86_64-linux-gnu/libc.so.6
__vsnprintf                                       /lib/x86_64-linux-gnu/libc.so.6
__vsnprintf@@GLIBC_2.2.5                          /lib/x86_64-linux-gnu/libc.so.6
__vsnprintf@GLIBC_2.2.5                           /lib/x86_64-linux-gnu/libc.so.6
__vsnprintf_chk                                   /lib/x86_64-linux-gnu/libc.so.6
                                                  /usr/lib/gcc/x86_64-linux-gnu/4.6/../../../../lib/librte_pmd_ring.a(rte_eth_ring.o)
                                                  /usr/lib/gcc/x86_64-linux-gnu/4.6/../../../../lib/librte_eal.a(eal_common_nonpci_devs.o)
                                                  /usr/lib/gcc/x86_64-linux-gnu/4.6/../../../../lib/librte_eal.a(eal_common_whitelist.o)
                                                  /usr/lib/gcc/x86_64-linux-gnu/4.6/../../../../lib/librte_eal.a(eal_common_hexdump.o)
                                                  /usr/lib/gcc/x86_64-linux-gnu/4.6/../../../../lib/librte_eal.a(eal_common_errno.o)
                                                  /usr/lib/gcc/x86_64-linux-gnu/4.6/../../../../lib/librte_eal.a(eal_common_pci.o)
                                                  /usr/lib/gcc/x86_64-linux-gnu/4.6/../../../../lib/librte_eal.a(eal_common_memzone.o)
                                                  /usr/lib/gcc/x86_64-linux-gnu/4.6/../../../../lib/librte_eal.a(eal_lcore.o)
                                                  /usr/lib/gcc/x86_64-linux-gnu/4.6/../../../../lib/librte_eal.a(eal_pci.o)
                                                  /usr/lib/gcc/x86_64-linux-gnu/4.6/../../../../lib/librte_eal.a(eal_memory.o)
                                                  /usr/lib/gcc/x86_64-linux-gnu/4.6/../../../../lib/librte_eal.a(eal_hugepage_info.o)
                                                  /usr/lib/gcc/x86_64-linux-gnu/4.6/../../../../lib/librte_eal.a(eal.o)
                                                  /usr/lib/gcc/x86_64-linux-gnu/4.6/../../../../lib/librte_ring.a(rte_ring.o)
                                                  /usr/lib/gcc/x86_64-linux-gnu/4.6/../../../../lib/librte_mempool.a(rte_mempool.o)
                                                  /usr/lib/gcc/x86_64-linux-gnu/4.6/../../../../lib/librte_malloc.a(malloc_heap.o)
                                                  /usr/lib/gcc/x86_64-linux-gnu/4.6/../../../../lib/librte_pmd_virtio.a(virtio_rxtx.o)
                                                  /usr/lib/gcc/x86_64-linux-gnu/4.6/../../../../lib/librte_pmd_virtio.a(virtio_ethdev.o)
                                                  /usr/lib/gcc/x86_64-linux-gnu/4.6/../../../../lib/librte_pmd_ixgbe.a(ixgbe_rxtx.o)
                                                  /usr/lib/gcc/x86_64-linux-gnu/4.6/../../../../lib/librte_pmd_e1000.a(em_rxtx.o)
                                                  /usr/lib/gcc/x86_64-linux-gnu/4.6/../../../../lib/librte_pmd_e1000.a(igb_rxtx.o)
                                                  common.o
__vsnprintf_chk@@GLIBC_2.3.4                      /lib/x86_64-linux-gnu/libc.so.6
__vsnprintf_chk@GLIBC_2.3.4                       /lib/x86_64-linux-gnu/libc.so.6
__vsscanf                                         /lib/x86_64-linux-gnu/libc.so.6
__vsscanf@@GLIBC_2.2.5                            /lib/x86_64-linux-gnu/libc.so.6
__vsscanf@GLIBC_2.2.5                             /lib/x86_64-linux-gnu/libc.so.6
__wait                                            /lib/x86_64-linux-gnu/libpthread.so.0
__wait@@GLIBC_2.2.5                               /lib/x86_64-linux-gnu/libpthread.so.0
                                                  /lib/x86_64-linux-gnu/libc.so.6
__wait@GLIBC_2.2.5                                /lib/x86_64-linux-gnu/libpthread.so.0
__waitpid                                         /lib/x86_64-linux-gnu/libc.so.6
__waitpid@@GLIBC_2.2.5                            /lib/x86_64-linux-gnu/libc.so.6
__waitpid@GLIBC_2.2.5                             /lib/x86_64-linux-gnu/libc.so.6
__wcstoll_l                                       /lib/x86_64-linux-gnu/libc.so.6
__wcstoll_l@@GLIBC_2.2.5                          /lib/x86_64-linux-gnu/libc.so.6
__wcstoll_l@GLIBC_2.2.5                           /lib/x86_64-linux-gnu/libc.so.6
__wcstoull_l                                      /lib/x86_64-linux-gnu/libc.so.6
__wcstoull_l@@GLIBC_2.2.5                         /lib/x86_64-linux-gnu/libc.so.6
__wcstoull_l@GLIBC_2.2.5                          /lib/x86_64-linux-gnu/libc.so.6
__write                                           /lib/x86_64-linux-gnu/libpthread.so.0
__write@@GLIBC_2.2.5                              /lib/x86_64-linux-gnu/libpthread.so.0
                                                  /lib/x86_64-linux-gnu/libc.so.6
__write@GLIBC_2.2.5                               /lib/x86_64-linux-gnu/libpthread.so.0
__xpg_sigpause                                    /lib/x86_64-linux-gnu/libc.so.6
__xpg_sigpause@@GLIBC_2.2.5                       /lib/x86_64-linux-gnu/libc.so.6
__xpg_sigpause@GLIBC_2.2.5                        /lib/x86_64-linux-gnu/libc.so.6
__xpg_strerror_r                                  /lib/x86_64-linux-gnu/libc.so.6
                                                  /usr/lib/gcc/x86_64-linux-gnu/4.6/../../../../lib/librte_eal.a(eal_common_errno.o)
__xpg_strerror_r@@GLIBC_2.3.4                     /lib/x86_64-linux-gnu/libc.so.6
__xpg_strerror_r@GLIBC_2.3.4                      /lib/x86_64-linux-gnu/libc.so.6
_dl_starting_up                                   /lib/x86_64-linux-gnu/libc.so.6
_environ                                          /lib/x86_64-linux-gnu/libc.so.6
_environ@@GLIBC_2.2.5                             /lib/x86_64-linux-gnu/libc.so.6
_environ@GLIBC_2.2.5                              /lib/x86_64-linux-gnu/libc.so.6
_fini                                             /usr/lib/gcc/x86_64-linux-gnu/4.6/../../../x86_64-linux-gnu/crti.o
_flushlbf                                         /lib/x86_64-linux-gnu/libc.so.6
_flushlbf@@GLIBC_2.2.5                            /lib/x86_64-linux-gnu/libc.so.6
_flushlbf@GLIBC_2.2.5                             /lib/x86_64-linux-gnu/libc.so.6
_init                                             /usr/lib/gcc/x86_64-linux-gnu/4.6/../../../x86_64-linux-gnu/crti.o
                                                  /usr/lib/x86_64-linux-gnu/libc_nonshared.a(elf-init.oS)
_longjmp                                          /lib/x86_64-linux-gnu/libc.so.6
_longjmp@@GLIBC_2.2.5                             /lib/x86_64-linux-gnu/libc.so.6
_longjmp@GLIBC_2.2.5                              /lib/x86_64-linux-gnu/libc.so.6
_rte_eth_dev_callback_process                     /usr/lib/gcc/x86_64-linux-gnu/4.6/../../../../lib/libethdev.a(rte_ethdev.o)
                                                  /usr/lib/gcc/x86_64-linux-gnu/4.6/../../../../lib/librte_pmd_ixgbe.a(ixgbe_ethdev.o)
                                                  /usr/lib/gcc/x86_64-linux-gnu/4.6/../../../../lib/librte_pmd_e1000.a(em_ethdev.o)
                                                  /usr/lib/gcc/x86_64-linux-gnu/4.6/../../../../lib/librte_pmd_e1000.a(igb_ethdev.o)
_start                                            /usr/lib/gcc/x86_64-linux-gnu/4.6/../../../x86_64-linux-gnu/crt1.o
abort                                             /lib/x86_64-linux-gnu/libc.so.6
                                                  /usr/lib/gcc/x86_64-linux-gnu/4.6/../../../../lib/librte_eal.a(eal_debug.o)
abort@@GLIBC_2.2.5                                /lib/x86_64-linux-gnu/libc.so.6
abort@GLIBC_2.2.5                                 /lib/x86_64-linux-gnu/libc.so.6
                                                  /lib/x86_64-linux-gnu/libpthread.so.0
accept                                            /lib/x86_64-linux-gnu/libpthread.so.0
accept@@GLIBC_2.2.5                               /lib/x86_64-linux-gnu/libpthread.so.0
                                                  /lib/x86_64-linux-gnu/libc.so.6
accept@GLIBC_2.2.5                                /lib/x86_64-linux-gnu/libpthread.so.0
access                                            /lib/x86_64-linux-gnu/libc.so.6
                                                  /usr/lib/gcc/x86_64-linux-gnu/4.6/../../../../lib/librte_eal.a(eal_lcore.o)
                                                  /usr/lib/gcc/x86_64-linux-gnu/4.6/../../../../lib/librte_eal.a(eal_pci.o)
access@@GLIBC_2.2.5                               /lib/x86_64-linux-gnu/libc.so.6
access@GLIBC_2.2.5                                /lib/x86_64-linux-gnu/libc.so.6
addmntent                                         /lib/x86_64-linux-gnu/libc.so.6
addmntent@@GLIBC_2.2.5                            /lib/x86_64-linux-gnu/libc.so.6
addmntent@GLIBC_2.2.5                             /lib/x86_64-linux-gnu/libc.so.6
adjtime                                           /lib/x86_64-linux-gnu/libc.so.6
adjtime@@GLIBC_2.2.5                              /lib/x86_64-linux-gnu/libc.so.6
adjtime@GLIBC_2.2.5                               /lib/x86_64-linux-gnu/libc.so.6
adjtimex                                          /lib/x86_64-linux-gnu/libc.so.6
adjtimex@@GLIBC_2.2.5                             /lib/x86_64-linux-gnu/libc.so.6
adjtimex@GLIBC_2.2.5                              /lib/x86_64-linux-gnu/libc.so.6
advance                                           /lib/x86_64-linux-gnu/libc.so.6
advance@@GLIBC_2.2.5                              /lib/x86_64-linux-gnu/libc.so.6
advance@GLIBC_2.2.5                               /lib/x86_64-linux-gnu/libc.so.6
aio_cancel64                                      /usr/lib/gcc/x86_64-linux-gnu/4.6/../../../x86_64-linux-gnu/librt.so
aio_cancel64@@GLIBC_2.2.5                         /usr/lib/gcc/x86_64-linux-gnu/4.6/../../../x86_64-linux-gnu/librt.so
aio_cancel64@GLIBC_2.2.5                          /usr/lib/gcc/x86_64-linux-gnu/4.6/../../../x86_64-linux-gnu/librt.so
aio_error64                                       /usr/lib/gcc/x86_64-linux-gnu/4.6/../../../x86_64-linux-gnu/librt.so
aio_error64@@GLIBC_2.2.5                          /usr/lib/gcc/x86_64-linux-gnu/4.6/../../../x86_64-linux-gnu/librt.so
aio_error64@GLIBC_2.2.5                           /usr/lib/gcc/x86_64-linux-gnu/4.6/../../../x86_64-linux-gnu/librt.so
aio_fsync64                                       /usr/lib/gcc/x86_64-linux-gnu/4.6/../../../x86_64-linux-gnu/librt.so
aio_fsync64@@GLIBC_2.2.5                          /usr/lib/gcc/x86_64-linux-gnu/4.6/../../../x86_64-linux-gnu/librt.so
aio_fsync64@GLIBC_2.2.5                           /usr/lib/gcc/x86_64-linux-gnu/4.6/../../../x86_64-linux-gnu/librt.so
aio_init                                          /usr/lib/gcc/x86_64-linux-gnu/4.6/../../../x86_64-linux-gnu/librt.so
aio_init@@GLIBC_2.2.5                             /usr/lib/gcc/x86_64-linux-gnu/4.6/../../../x86_64-linux-gnu/librt.so
aio_init@GLIBC_2.2.5                              /usr/lib/gcc/x86_64-linux-gnu/4.6/../../../x86_64-linux-gnu/librt.so
aio_read64                                        /usr/lib/gcc/x86_64-linux-gnu/4.6/../../../x86_64-linux-gnu/librt.so
aio_read64@@GLIBC_2.2.5                           /usr/lib/gcc/x86_64-linux-gnu/4.6/../../../x86_64-linux-gnu/librt.so
aio_read64@GLIBC_2.2.5                            /usr/lib/gcc/x86_64-linux-gnu/4.6/../../../x86_64-linux-gnu/librt.so
aio_return64                                      /usr/lib/gcc/x86_64-linux-gnu/4.6/../../../x86_64-linux-gnu/librt.so
aio_return64@@GLIBC_2.2.5                         /usr/lib/gcc/x86_64-linux-gnu/4.6/../../../x86_64-linux-gnu/librt.so
aio_return64@GLIBC_2.2.5                          /usr/lib/gcc/x86_64-linux-gnu/4.6/../../../x86_64-linux-gnu/librt.so
aio_suspend64                                     /usr/lib/gcc/x86_64-linux-gnu/4.6/../../../x86_64-linux-gnu/librt.so
aio_suspend64@@GLIBC_2.2.5                        /usr/lib/gcc/x86_64-linux-gnu/4.6/../../../x86_64-linux-gnu/librt.so
aio_suspend64@GLIBC_2.2.5                         /usr/lib/gcc/x86_64-linux-gnu/4.6/../../../x86_64-linux-gnu/librt.so
aio_write64                                       /usr/lib/gcc/x86_64-linux-gnu/4.6/../../../x86_64-linux-gnu/librt.so
aio_write64@@GLIBC_2.2.5                          /usr/lib/gcc/x86_64-linux-gnu/4.6/../../../x86_64-linux-gnu/librt.so
aio_write64@GLIBC_2.2.5                           /usr/lib/gcc/x86_64-linux-gnu/4.6/../../../x86_64-linux-gnu/librt.so
alphasort64                                       /lib/x86_64-linux-gnu/libc.so.6
alphasort64@@GLIBC_2.2.5                          /lib/x86_64-linux-gnu/libc.so.6
alphasort64@GLIBC_2.2.5                           /lib/x86_64-linux-gnu/libc.so.6
arch_prctl                                        /lib/x86_64-linux-gnu/libc.so.6
arch_prctl@@GLIBC_2.2.5                           /lib/x86_64-linux-gnu/libc.so.6
arch_prctl@GLIBC_2.2.5                            /lib/x86_64-linux-gnu/libc.so.6
argp_error                                        /lib/x86_64-linux-gnu/libc.so.6
argp_error@@GLIBC_2.2.5                           /lib/x86_64-linux-gnu/libc.so.6
argp_error@GLIBC_2.2.5                            /lib/x86_64-linux-gnu/libc.so.6
argp_failure                                      /lib/x86_64-linux-gnu/libc.so.6
argp_failure@@GLIBC_2.2.5                         /lib/x86_64-linux-gnu/libc.so.6
argp_failure@GLIBC_2.2.5                          /lib/x86_64-linux-gnu/libc.so.6
argp_help                                         /lib/x86_64-linux-gnu/libc.so.6
argp_help@@GLIBC_2.2.5                            /lib/x86_64-linux-gnu/libc.so.6
argp_help@GLIBC_2.2.5                             /lib/x86_64-linux-gnu/libc.so.6
argp_parse                                        /lib/x86_64-linux-gnu/libc.so.6
argp_parse@@GLIBC_2.2.5                           /lib/x86_64-linux-gnu/libc.so.6
argp_parse@GLIBC_2.2.5                            /lib/x86_64-linux-gnu/libc.so.6
argp_state_help                                   /lib/x86_64-linux-gnu/libc.so.6
argp_state_help@@GLIBC_2.2.5                      /lib/x86_64-linux-gnu/libc.so.6
argp_state_help@GLIBC_2.2.5                       /lib/x86_64-linux-gnu/libc.so.6
argp_usage                                        /lib/x86_64-linux-gnu/libc.so.6
argp_usage@@GLIBC_2.2.5                           /lib/x86_64-linux-gnu/libc.so.6
argp_usage@GLIBC_2.2.5                            /lib/x86_64-linux-gnu/libc.so.6
argz_add                                          /lib/x86_64-linux-gnu/libc.so.6
argz_add@@GLIBC_2.2.5                             /lib/x86_64-linux-gnu/libc.so.6
argz_add@GLIBC_2.2.5                              /lib/x86_64-linux-gnu/libc.so.6
argz_add_sep                                      /lib/x86_64-linux-gnu/libc.so.6
argz_add_sep@@GLIBC_2.2.5                         /lib/x86_64-linux-gnu/libc.so.6
argz_add_sep@GLIBC_2.2.5                          /lib/x86_64-linux-gnu/libc.so.6
argz_append                                       /lib/x86_64-linux-gnu/libc.so.6
argz_append@@GLIBC_2.2.5                          /lib/x86_64-linux-gnu/libc.so.6
argz_append@GLIBC_2.2.5                           /lib/x86_64-linux-gnu/libc.so.6
argz_count                                        /lib/x86_64-linux-gnu/libc.so.6
argz_count@@GLIBC_2.2.5                           /lib/x86_64-linux-gnu/libc.so.6
argz_count@GLIBC_2.2.5                            /lib/x86_64-linux-gnu/libc.so.6
argz_create                                       /lib/x86_64-linux-gnu/libc.so.6
argz_create@@GLIBC_2.2.5                          /lib/x86_64-linux-gnu/libc.so.6
argz_create@GLIBC_2.2.5                           /lib/x86_64-linux-gnu/libc.so.6
argz_create_sep                                   /lib/x86_64-linux-gnu/libc.so.6
argz_create_sep@@GLIBC_2.2.5                      /lib/x86_64-linux-gnu/libc.so.6
argz_create_sep@GLIBC_2.2.5                       /lib/x86_64-linux-gnu/libc.so.6
argz_extract                                      /lib/x86_64-linux-gnu/libc.so.6
argz_extract@@GLIBC_2.2.5                         /lib/x86_64-linux-gnu/libc.so.6
argz_extract@GLIBC_2.2.5                          /lib/x86_64-linux-gnu/libc.so.6
argz_insert                                       /lib/x86_64-linux-gnu/libc.so.6
argz_insert@@GLIBC_2.2.5                          /lib/x86_64-linux-gnu/libc.so.6
argz_insert@GLIBC_2.2.5                           /lib/x86_64-linux-gnu/libc.so.6
argz_next                                         /lib/x86_64-linux-gnu/libc.so.6
argz_next@@GLIBC_2.2.5                            /lib/x86_64-linux-gnu/libc.so.6
argz_next@GLIBC_2.2.5                             /lib/x86_64-linux-gnu/libc.so.6
argz_replace                                      /lib/x86_64-linux-gnu/libc.so.6
argz_replace@@GLIBC_2.2.5                         /lib/x86_64-linux-gnu/libc.so.6
argz_replace@GLIBC_2.2.5                          /lib/x86_64-linux-gnu/libc.so.6
argz_stringify                                    /lib/x86_64-linux-gnu/libc.so.6
argz_stringify@@GLIBC_2.2.5                       /lib/x86_64-linux-gnu/libc.so.6
argz_stringify@GLIBC_2.2.5                        /lib/x86_64-linux-gnu/libc.so.6
asctime_r                                         /lib/x86_64-linux-gnu/libc.so.6
asctime_r@@GLIBC_2.2.5                            /lib/x86_64-linux-gnu/libc.so.6
asctime_r@GLIBC_2.2.5                             /lib/x86_64-linux-gnu/libc.so.6
asprintf                                          /lib/x86_64-linux-gnu/libc.so.6
asprintf@@GLIBC_2.2.5                             /lib/x86_64-linux-gnu/libc.so.6
asprintf@GLIBC_2.2.5                              /lib/x86_64-linux-gnu/libc.so.6
backtrace                                         /lib/x86_64-linux-gnu/libc.so.6
                                                  /usr/lib/gcc/x86_64-linux-gnu/4.6/../../../../lib/librte_eal.a(eal_debug.o)
backtrace@@GLIBC_2.2.5                            /lib/x86_64-linux-gnu/libc.so.6
backtrace@GLIBC_2.2.5                             /lib/x86_64-linux-gnu/libc.so.6
backtrace_symbols                                 /lib/x86_64-linux-gnu/libc.so.6
                                                  /usr/lib/gcc/x86_64-linux-gnu/4.6/../../../../lib/librte_eal.a(eal_debug.o)
backtrace_symbols@@GLIBC_2.2.5                    /lib/x86_64-linux-gnu/libc.so.6
backtrace_symbols@GLIBC_2.2.5                     /lib/x86_64-linux-gnu/libc.so.6
backtrace_symbols_fd                              /lib/x86_64-linux-gnu/libc.so.6
backtrace_symbols_fd@@GLIBC_2.2.5                 /lib/x86_64-linux-gnu/libc.so.6
backtrace_symbols_fd@GLIBC_2.2.5                  /lib/x86_64-linux-gnu/libc.so.6
bcmp                                              /lib/x86_64-linux-gnu/libc.so.6
bcmp@@GLIBC_2.2.5                                 /lib/x86_64-linux-gnu/libc.so.6
bcmp@GLIBC_2.2.5                                  /lib/x86_64-linux-gnu/libc.so.6
bdflush                                           /lib/x86_64-linux-gnu/libc.so.6
bdflush@@GLIBC_2.2.5                              /lib/x86_64-linux-gnu/libc.so.6
bdflush@GLIBC_2.2.5                               /lib/x86_64-linux-gnu/libc.so.6
bind                                              /lib/x86_64-linux-gnu/libc.so.6
bind@@GLIBC_2.2.5                                 /lib/x86_64-linux-gnu/libc.so.6
bind@GLIBC_2.2.5                                  /lib/x86_64-linux-gnu/libc.so.6
bind_textdomain_codeset                           /lib/x86_64-linux-gnu/libc.so.6
bind_textdomain_codeset@@GLIBC_2.2.5              /lib/x86_64-linux-gnu/libc.so.6
bind_textdomain_codeset@GLIBC_2.2.5               /lib/x86_64-linux-gnu/libc.so.6
bindtextdomain                                    /lib/x86_64-linux-gnu/libc.so.6
bindtextdomain@@GLIBC_2.2.5                       /lib/x86_64-linux-gnu/libc.so.6
bindtextdomain@GLIBC_2.2.5                        /lib/x86_64-linux-gnu/libc.so.6
bitcount                                          common.o
                                                  server.o
brk                                               /lib/x86_64-linux-gnu/libc.so.6
brk@@GLIBC_2.2.5                                  /lib/x86_64-linux-gnu/libc.so.6
brk@GLIBC_2.2.5                                   /lib/x86_64-linux-gnu/libc.so.6
bsd_signal                                        /lib/x86_64-linux-gnu/libc.so.6
bsd_signal@@GLIBC_2.2.5                           /lib/x86_64-linux-gnu/libc.so.6
bsd_signal@GLIBC_2.2.5                            /lib/x86_64-linux-gnu/libc.so.6
btowc                                             /lib/x86_64-linux-gnu/libc.so.6
btowc@@GLIBC_2.2.5                                /lib/x86_64-linux-gnu/libc.so.6
btowc@GLIBC_2.2.5                                 /lib/x86_64-linux-gnu/libc.so.6
bzero                                             /lib/x86_64-linux-gnu/libc.so.6
bzero@@GLIBC_2.2.5                                /lib/x86_64-linux-gnu/libc.so.6
bzero@GLIBC_2.2.5                                 /lib/x86_64-linux-gnu/libc.so.6
calloc                                            /lib/x86_64-linux-gnu/libc.so.6
calloc@@GLIBC_2.2.5                               /lib/x86_64-linux-gnu/libc.so.6
                                                  /lib/x86_64-linux-gnu/ld-linux-x86-64.so.2
calloc@GLIBC_2.2.5                                /lib/x86_64-linux-gnu/libc.so.6
                                                  /lib/x86_64-linux-gnu/libpthread.so.0
                                                  /usr/lib/gcc/x86_64-linux-gnu/4.6/../../../x86_64-linux-gnu/librt.so
canonicalize_file_name                            /lib/x86_64-linux-gnu/libc.so.6
canonicalize_file_name@@GLIBC_2.2.5               /lib/x86_64-linux-gnu/libc.so.6
canonicalize_file_name@GLIBC_2.2.5                /lib/x86_64-linux-gnu/libc.so.6
cfree                                             /lib/x86_64-linux-gnu/libc.so.6
cfree@@GLIBC_2.2.5                                /lib/x86_64-linux-gnu/libc.so.6
cfree@GLIBC_2.2.5                                 /lib/x86_64-linux-gnu/libc.so.6
chdir                                             /lib/x86_64-linux-gnu/libc.so.6
chdir@@GLIBC_2.2.5                                /lib/x86_64-linux-gnu/libc.so.6
chdir@GLIBC_2.2.5                                 /lib/x86_64-linux-gnu/libc.so.6
check_all_ports_link_status                       common.o
                                                  main.o
chmod                                             /lib/x86_64-linux-gnu/libc.so.6
chmod@@GLIBC_2.2.5                                /lib/x86_64-linux-gnu/libc.so.6
chmod@GLIBC_2.2.5                                 /lib/x86_64-linux-gnu/libc.so.6
chown                                             /lib/x86_64-linux-gnu/libc.so.6
chown@@GLIBC_2.2.5                                /lib/x86_64-linux-gnu/libc.so.6
chown@GLIBC_2.2.5                                 /lib/x86_64-linux-gnu/libc.so.6
clearenv                                          /lib/x86_64-linux-gnu/libc.so.6
clearenv@@GLIBC_2.2.5                             /lib/x86_64-linux-gnu/libc.so.6
clearenv@GLIBC_2.2.5                              /lib/x86_64-linux-gnu/libc.so.6
client_id                                         main.o
client_port_queue_to_lcore                        common.o
                                                  main.o
clock_gettime                                     /usr/lib/gcc/x86_64-linux-gnu/4.6/../../../x86_64-linux-gnu/librt.so
                                                  /usr/lib/gcc/x86_64-linux-gnu/4.6/../../../../lib/librte_eal.a(eal_timer.o)
clock_gettime@@GLIBC_2.2.5                        /usr/lib/gcc/x86_64-linux-gnu/4.6/../../../x86_64-linux-gnu/librt.so
clock_gettime@GLIBC_2.2.5                         /usr/lib/gcc/x86_64-linux-gnu/4.6/../../../x86_64-linux-gnu/librt.so
clone                                             /lib/x86_64-linux-gnu/libc.so.6
clone@@GLIBC_2.2.5                                /lib/x86_64-linux-gnu/libc.so.6
clone@GLIBC_2.2.5                                 /lib/x86_64-linux-gnu/libc.so.6
close                                             /lib/x86_64-linux-gnu/libpthread.so.0
                                                  /usr/lib/gcc/x86_64-linux-gnu/4.6/../../../../lib/librte_eal.a(eal_interrupts.o)
                                                  /usr/lib/gcc/x86_64-linux-gnu/4.6/../../../../lib/librte_eal.a(eal_pci.o)
                                                  /usr/lib/gcc/x86_64-linux-gnu/4.6/../../../../lib/librte_eal.a(eal_memory.o)
                                                  /usr/lib/gcc/x86_64-linux-gnu/4.6/../../../../lib/librte_eal.a(eal_hugepage_info.o)
                                                  /usr/lib/gcc/x86_64-linux-gnu/4.6/../../../../lib/librte_eal.a(eal.o)
close@@GLIBC_2.2.5                                /lib/x86_64-linux-gnu/libpthread.so.0
                                                  /lib/x86_64-linux-gnu/libc.so.6
close@GLIBC_2.2.5                                 /lib/x86_64-linux-gnu/libpthread.so.0
                                                  /usr/lib/gcc/x86_64-linux-gnu/4.6/../../../x86_64-linux-gnu/librt.so
closedir                                          /lib/x86_64-linux-gnu/libc.so.6
                                                  /usr/lib/gcc/x86_64-linux-gnu/4.6/../../../../lib/librte_eal.a(eal_lcore.o)
                                                  /usr/lib/gcc/x86_64-linux-gnu/4.6/../../../../lib/librte_eal.a(eal_pci.o)
                                                  /usr/lib/gcc/x86_64-linux-gnu/4.6/../../../../lib/librte_eal.a(eal_hugepage_info.o)
closedir@@GLIBC_2.2.5                             /lib/x86_64-linux-gnu/libc.so.6
closedir@GLIBC_2.2.5                              /lib/x86_64-linux-gnu/libc.so.6
connect                                           /lib/x86_64-linux-gnu/libpthread.so.0
connect@@GLIBC_2.2.5                              /lib/x86_64-linux-gnu/libpthread.so.0
                                                  /lib/x86_64-linux-gnu/libc.so.6
connect@GLIBC_2.2.5                               /lib/x86_64-linux-gnu/libpthread.so.0
copysign                                          /lib/x86_64-linux-gnu/libc.so.6
copysign@@GLIBC_2.2.5                             /lib/x86_64-linux-gnu/libc.so.6
copysign@GLIBC_2.2.5                              /lib/x86_64-linux-gnu/libc.so.6
copysignf                                         /lib/x86_64-linux-gnu/libc.so.6
copysignf@@GLIBC_2.2.5                            /lib/x86_64-linux-gnu/libc.so.6
copysignf@GLIBC_2.2.5                             /lib/x86_64-linux-gnu/libc.so.6
copysignl                                         /lib/x86_64-linux-gnu/libc.so.6
copysignl@@GLIBC_2.2.5                            /lib/x86_64-linux-gnu/libc.so.6
copysignl@GLIBC_2.2.5                             /lib/x86_64-linux-gnu/libc.so.6
count_active_lcores                               common.o
count_active_lcores_on_socket                     common.o
                                                  main.o
creat                                             /lib/x86_64-linux-gnu/libc.so.6
creat64                                           /lib/x86_64-linux-gnu/libc.so.6
creat64@@GLIBC_2.2.5                              /lib/x86_64-linux-gnu/libc.so.6
creat64@GLIBC_2.2.5                               /lib/x86_64-linux-gnu/libc.so.6
creat@@GLIBC_2.2.5                                /lib/x86_64-linux-gnu/libc.so.6
creat@GLIBC_2.2.5                                 /lib/x86_64-linux-gnu/libc.so.6
data_start                                        /usr/lib/gcc/x86_64-linux-gnu/4.6/../../../x86_64-linux-gnu/crt1.o
daylight                                          /lib/x86_64-linux-gnu/libc.so.6
daylight@@GLIBC_2.2.5                             /lib/x86_64-linux-gnu/libc.so.6
daylight@GLIBC_2.2.5                              /lib/x86_64-linux-gnu/libc.so.6
dcgettext                                         /lib/x86_64-linux-gnu/libc.so.6
dcgettext@@GLIBC_2.2.5                            /lib/x86_64-linux-gnu/libc.so.6
dcgettext@GLIBC_2.2.5                             /lib/x86_64-linux-gnu/libc.so.6
dcngettext                                        /lib/x86_64-linux-gnu/libc.so.6
dcngettext@@GLIBC_2.2.5                           /lib/x86_64-linux-gnu/libc.so.6
dcngettext@GLIBC_2.2.5                            /lib/x86_64-linux-gnu/libc.so.6
dev_types                                         /usr/lib/gcc/x86_64-linux-gnu/4.6/../../../../lib/librte_eal.a(eal_common_nonpci_devs.o)
device_list                                       /usr/lib/gcc/x86_64-linux-gnu/4.6/../../../../lib/librte_eal.a(eal_common_pci.o)
                                                  /usr/lib/gcc/x86_64-linux-gnu/4.6/../../../../lib/librte_eal.a(eal_pci.o)
dgettext                                          /lib/x86_64-linux-gnu/libc.so.6
dgettext@@GLIBC_2.2.5                             /lib/x86_64-linux-gnu/libc.so.6
dgettext@GLIBC_2.2.5                              /lib/x86_64-linux-gnu/libc.so.6
dirfd                                             /lib/x86_64-linux-gnu/libc.so.6
                                                  /usr/lib/gcc/x86_64-linux-gnu/4.6/../../../../lib/librte_eal.a(eal_hugepage_info.o)
dirfd@@GLIBC_2.2.5                                /lib/x86_64-linux-gnu/libc.so.6
dirfd@GLIBC_2.2.5                                 /lib/x86_64-linux-gnu/libc.so.6
dl_iterate_phdr                                   /lib/x86_64-linux-gnu/libc.so.6
dl_iterate_phdr@@GLIBC_2.2.5                      /lib/x86_64-linux-gnu/libc.so.6
dl_iterate_phdr@GLIBC_2.2.5                       /lib/x86_64-linux-gnu/libc.so.6
dngettext                                         /lib/x86_64-linux-gnu/libc.so.6
dngettext@@GLIBC_2.2.5                            /lib/x86_64-linux-gnu/libc.so.6
dngettext@GLIBC_2.2.5                             /lib/x86_64-linux-gnu/libc.so.6
driver_list                                       /usr/lib/gcc/x86_64-linux-gnu/4.6/../../../../lib/librte_eal.a(eal_common_pci.o)
                                                  /usr/lib/gcc/x86_64-linux-gnu/4.6/../../../../lib/librte_eal.a(eal_pci.o)
dst_mac_arr                                       server.o
dup                                               /lib/x86_64-linux-gnu/libc.so.6
dup2                                              /lib/x86_64-linux-gnu/libc.so.6
dup2@@GLIBC_2.2.5                                 /lib/x86_64-linux-gnu/libc.so.6
dup2@GLIBC_2.2.5                                  /lib/x86_64-linux-gnu/libc.so.6
dup@@GLIBC_2.2.5                                  /lib/x86_64-linux-gnu/libc.so.6
dup@GLIBC_2.2.5                                   /lib/x86_64-linux-gnu/libc.so.6
duplocale                                         /lib/x86_64-linux-gnu/libc.so.6
duplocale@@GLIBC_2.3                              /lib/x86_64-linux-gnu/libc.so.6
duplocale@GLIBC_2.3                               /lib/x86_64-linux-gnu/libc.so.6
e1000_acquire_nvm_generic                         /usr/lib/gcc/x86_64-linux-gnu/4.6/../../../../lib/librte_pmd_e1000.a(e1000_nvm.o)
                                                  /usr/lib/gcc/x86_64-linux-gnu/4.6/../../../../lib/librte_pmd_e1000.a(e1000_82540.o)
                                                  /usr/lib/gcc/x86_64-linux-gnu/4.6/../../../../lib/librte_pmd_e1000.a(e1000_80003es2lan.o)
                                                  /usr/lib/gcc/x86_64-linux-gnu/4.6/../../../../lib/librte_pmd_e1000.a(e1000_82575.o)
                                                  /usr/lib/gcc/x86_64-linux-gnu/4.6/../../../../lib/librte_pmd_e1000.a(e1000_82571.o)
                                                  /usr/lib/gcc/x86_64-linux-gnu/4.6/../../../../lib/librte_pmd_e1000.a(e1000_82541.o)
e1000_acquire_phy                                 /usr/lib/gcc/x86_64-linux-gnu/4.6/../../../../lib/librte_pmd_e1000.a(e1000_api.o)
e1000_acquire_swfw_sync_i210                      /usr/lib/gcc/x86_64-linux-gnu/4.6/../../../../lib/librte_pmd_e1000.a(e1000_i210.o)
                                                  /usr/lib/gcc/x86_64-linux-gnu/4.6/../../../../lib/librte_pmd_e1000.a(e1000_82575.o)
e1000_blink_led                                   /usr/lib/gcc/x86_64-linux-gnu/4.6/../../../../lib/librte_pmd_e1000.a(e1000_api.o)
e1000_blink_led_generic                           /usr/lib/gcc/x86_64-linux-gnu/4.6/../../../../lib/librte_pmd_e1000.a(e1000_mac.o)
                                                  /usr/lib/gcc/x86_64-linux-gnu/4.6/../../../../lib/librte_pmd_e1000.a(e1000_80003es2lan.o)
                                                  /usr/lib/gcc/x86_64-linux-gnu/4.6/../../../../lib/librte_pmd_e1000.a(e1000_ich8lan.o)
                                                  /usr/lib/gcc/x86_64-linux-gnu/4.6/../../../../lib/librte_pmd_e1000.a(e1000_82575.o)
                                                  /usr/lib/gcc/x86_64-linux-gnu/4.6/../../../../lib/librte_pmd_e1000.a(e1000_82571.o)
e1000_calculate_checksum                          /usr/lib/gcc/x86_64-linux-gnu/4.6/../../../../lib/librte_pmd_e1000.a(e1000_manage.o)
e1000_cfg_on_link_up                              /usr/lib/gcc/x86_64-linux-gnu/4.6/../../../../lib/librte_pmd_e1000.a(e1000_api.o)
e1000_check_alt_mac_addr_generic                  /usr/lib/gcc/x86_64-linux-gnu/4.6/../../../../lib/librte_pmd_e1000.a(e1000_mac.o)
                                                  /usr/lib/gcc/x86_64-linux-gnu/4.6/../../../../lib/librte_pmd_e1000.a(e1000_80003es2lan.o)
                                                  /usr/lib/gcc/x86_64-linux-gnu/4.6/../../../../lib/librte_pmd_e1000.a(e1000_82575.o)
                                                  /usr/lib/gcc/x86_64-linux-gnu/4.6/../../../../lib/librte_pmd_e1000.a(e1000_82571.o)
e1000_check_downshift_generic                     /usr/lib/gcc/x86_64-linux-gnu/4.6/../../../../lib/librte_pmd_e1000.a(e1000_phy.o)
                                                  /usr/lib/gcc/x86_64-linux-gnu/4.6/../../../../lib/librte_pmd_e1000.a(e1000_mac.o)
                                                  /usr/lib/gcc/x86_64-linux-gnu/4.6/../../../../lib/librte_pmd_e1000.a(e1000_ich8lan.o)
                                                  /usr/lib/gcc/x86_64-linux-gnu/4.6/../../../../lib/librte_pmd_e1000.a(e1000_82543.o)
                                                  /usr/lib/gcc/x86_64-linux-gnu/4.6/../../../../lib/librte_pmd_e1000.a(e1000_82541.o)
e1000_check_for_ack                               /usr/lib/gcc/x86_64-linux-gnu/4.6/../../../../lib/librte_pmd_e1000.a(e1000_mbx.o)
                                                  /usr/lib/gcc/x86_64-linux-gnu/4.6/../../../../lib/librte_pmd_e1000.a(igb_pf.o)
e1000_check_for_copper_link_generic               /usr/lib/gcc/x86_64-linux-gnu/4.6/../../../../lib/librte_pmd_e1000.a(e1000_mac.o)
                                                  /usr/lib/gcc/x86_64-linux-gnu/4.6/../../../../lib/librte_pmd_e1000.a(e1000_82540.o)
                                                  /usr/lib/gcc/x86_64-linux-gnu/4.6/../../../../lib/librte_pmd_e1000.a(e1000_80003es2lan.o)
                                                  /usr/lib/gcc/x86_64-linux-gnu/4.6/../../../../lib/librte_pmd_e1000.a(e1000_82575.o)
                                                  /usr/lib/gcc/x86_64-linux-gnu/4.6/../../../../lib/librte_pmd_e1000.a(e1000_82571.o)
e1000_check_for_fiber_link_generic                /usr/lib/gcc/x86_64-linux-gnu/4.6/../../../../lib/librte_pmd_e1000.a(e1000_mac.o)
                                                  /usr/lib/gcc/x86_64-linux-gnu/4.6/../../../../lib/librte_pmd_e1000.a(e1000_82542.o)
                                                  /usr/lib/gcc/x86_64-linux-gnu/4.6/../../../../lib/librte_pmd_e1000.a(e1000_82540.o)
                                                  /usr/lib/gcc/x86_64-linux-gnu/4.6/../../../../lib/librte_pmd_e1000.a(e1000_82571.o)
e1000_check_for_link                              /usr/lib/gcc/x86_64-linux-gnu/4.6/../../../../lib/librte_pmd_e1000.a(e1000_api.o)
                                                  /usr/lib/gcc/x86_64-linux-gnu/4.6/../../../../lib/librte_pmd_e1000.a(em_ethdev.o)
                                                  /usr/lib/gcc/x86_64-linux-gnu/4.6/../../../../lib/librte_pmd_e1000.a(igb_ethdev.o)
e1000_check_for_msg                               /usr/lib/gcc/x86_64-linux-gnu/4.6/../../../../lib/librte_pmd_e1000.a(e1000_mbx.o)
                                                  /usr/lib/gcc/x86_64-linux-gnu/4.6/../../../../lib/librte_pmd_e1000.a(igb_pf.o)
e1000_check_for_rst                               /usr/lib/gcc/x86_64-linux-gnu/4.6/../../../../lib/librte_pmd_e1000.a(e1000_mbx.o)
                                                  /usr/lib/gcc/x86_64-linux-gnu/4.6/../../../../lib/librte_pmd_e1000.a(igb_pf.o)
                                                  /usr/lib/gcc/x86_64-linux-gnu/4.6/../../../../lib/librte_pmd_e1000.a(igb_ethdev.o)
e1000_check_for_serdes_link_generic               /usr/lib/gcc/x86_64-linux-gnu/4.6/../../../../lib/librte_pmd_e1000.a(e1000_mac.o)
                                                  /usr/lib/gcc/x86_64-linux-gnu/4.6/../../../../lib/librte_pmd_e1000.a(e1000_82540.o)
                                                  /usr/lib/gcc/x86_64-linux-gnu/4.6/../../../../lib/librte_pmd_e1000.a(e1000_80003es2lan.o)
e1000_check_mng_mode                              /usr/lib/gcc/x86_64-linux-gnu/4.6/../../../../lib/librte_pmd_e1000.a(e1000_api.o)
e1000_check_mng_mode_generic                      /usr/lib/gcc/x86_64-linux-gnu/4.6/../../../../lib/librte_pmd_e1000.a(e1000_manage.o)
                                                  /usr/lib/gcc/x86_64-linux-gnu/4.6/../../../../lib/librte_pmd_e1000.a(e1000_80003es2lan.o)
                                                  /usr/lib/gcc/x86_64-linux-gnu/4.6/../../../../lib/librte_pmd_e1000.a(e1000_82571.o)
e1000_check_phy_82574                             /usr/lib/gcc/x86_64-linux-gnu/4.6/../../../../lib/librte_pmd_e1000.a(e1000_82571.o)
e1000_check_polarity_82577                        /usr/lib/gcc/x86_64-linux-gnu/4.6/../../../../lib/librte_pmd_e1000.a(e1000_phy.o)
                                                  /usr/lib/gcc/x86_64-linux-gnu/4.6/../../../../lib/librte_pmd_e1000.a(e1000_ich8lan.o)
                                                  /usr/lib/gcc/x86_64-linux-gnu/4.6/../../../../lib/librte_pmd_e1000.a(e1000_82575.o)
e1000_check_polarity_ife                          /usr/lib/gcc/x86_64-linux-gnu/4.6/../../../../lib/librte_pmd_e1000.a(e1000_phy.o)
                                                  /usr/lib/gcc/x86_64-linux-gnu/4.6/../../../../lib/librte_pmd_e1000.a(e1000_ich8lan.o)
e1000_check_polarity_igp                          /usr/lib/gcc/x86_64-linux-gnu/4.6/../../../../lib/librte_pmd_e1000.a(e1000_phy.o)
                                                  /usr/lib/gcc/x86_64-linux-gnu/4.6/../../../../lib/librte_pmd_e1000.a(e1000_ich8lan.o)
                                                  /usr/lib/gcc/x86_64-linux-gnu/4.6/../../../../lib/librte_pmd_e1000.a(e1000_82575.o)
                                                  /usr/lib/gcc/x86_64-linux-gnu/4.6/../../../../lib/librte_pmd_e1000.a(e1000_82571.o)
                                                  /usr/lib/gcc/x86_64-linux-gnu/4.6/../../../../lib/librte_pmd_e1000.a(e1000_82541.o)
e1000_check_polarity_m88                          /usr/lib/gcc/x86_64-linux-gnu/4.6/../../../../lib/librte_pmd_e1000.a(e1000_phy.o)
                                                  /usr/lib/gcc/x86_64-linux-gnu/4.6/../../../../lib/librte_pmd_e1000.a(e1000_82540.o)
                                                  /usr/lib/gcc/x86_64-linux-gnu/4.6/../../../../lib/librte_pmd_e1000.a(e1000_80003es2lan.o)
                                                  /usr/lib/gcc/x86_64-linux-gnu/4.6/../../../../lib/librte_pmd_e1000.a(e1000_ich8lan.o)
                                                  /usr/lib/gcc/x86_64-linux-gnu/4.6/../../../../lib/librte_pmd_e1000.a(e1000_82575.o)
                                                  /usr/lib/gcc/x86_64-linux-gnu/4.6/../../../../lib/librte_pmd_e1000.a(e1000_82571.o)
                                                  /usr/lib/gcc/x86_64-linux-gnu/4.6/../../../../lib/librte_pmd_e1000.a(e1000_82543.o)
e1000_check_reset_block                           /usr/lib/gcc/x86_64-linux-gnu/4.6/../../../../lib/librte_pmd_e1000.a(e1000_api.o)
                                                  /usr/lib/gcc/x86_64-linux-gnu/4.6/../../../../lib/librte_pmd_e1000.a(em_ethdev.o)
                                                  /usr/lib/gcc/x86_64-linux-gnu/4.6/../../../../lib/librte_pmd_e1000.a(igb_ethdev.o)
e1000_check_reset_block_generic                   /usr/lib/gcc/x86_64-linux-gnu/4.6/../../../../lib/librte_pmd_e1000.a(e1000_phy.o)
                                                  /usr/lib/gcc/x86_64-linux-gnu/4.6/../../../../lib/librte_pmd_e1000.a(e1000_80003es2lan.o)
                                                  /usr/lib/gcc/x86_64-linux-gnu/4.6/../../../../lib/librte_pmd_e1000.a(e1000_82575.o)
                                                  /usr/lib/gcc/x86_64-linux-gnu/4.6/../../../../lib/librte_pmd_e1000.a(e1000_82571.o)
e1000_cleanup_led                                 /usr/lib/gcc/x86_64-linux-gnu/4.6/../../../../lib/librte_pmd_e1000.a(e1000_api.o)
e1000_cleanup_led_generic                         /usr/lib/gcc/x86_64-linux-gnu/4.6/../../../../lib/librte_pmd_e1000.a(e1000_mac.o)
                                                  /usr/lib/gcc/x86_64-linux-gnu/4.6/../../../../lib/librte_pmd_e1000.a(e1000_82540.o)
                                                  /usr/lib/gcc/x86_64-linux-gnu/4.6/../../../../lib/librte_pmd_e1000.a(e1000_80003es2lan.o)
                                                  /usr/lib/gcc/x86_64-linux-gnu/4.6/../../../../lib/librte_pmd_e1000.a(e1000_82575.o)
                                                  /usr/lib/gcc/x86_64-linux-gnu/4.6/../../../../lib/librte_pmd_e1000.a(e1000_82571.o)
e1000_clear_hw_cntrs_base_generic                 /usr/lib/gcc/x86_64-linux-gnu/4.6/../../../../lib/librte_pmd_e1000.a(e1000_mac.o)
                                                  /usr/lib/gcc/x86_64-linux-gnu/4.6/../../../../lib/librte_pmd_e1000.a(e1000_82542.o)
                                                  /usr/lib/gcc/x86_64-linux-gnu/4.6/../../../../lib/librte_pmd_e1000.a(e1000_82540.o)
                                                  /usr/lib/gcc/x86_64-linux-gnu/4.6/../../../../lib/librte_pmd_e1000.a(e1000_80003es2lan.o)
                                                  /usr/lib/gcc/x86_64-linux-gnu/4.6/../../../../lib/librte_pmd_e1000.a(e1000_ich8lan.o)
                                                  /usr/lib/gcc/x86_64-linux-gnu/4.6/../../../../lib/librte_pmd_e1000.a(e1000_82575.o)
                                                  /usr/lib/gcc/x86_64-linux-gnu/4.6/../../../../lib/librte_pmd_e1000.a(e1000_82571.o)
                                                  /usr/lib/gcc/x86_64-linux-gnu/4.6/../../../../lib/librte_pmd_e1000.a(e1000_82543.o)
                                                  /usr/lib/gcc/x86_64-linux-gnu/4.6/../../../../lib/librte_pmd_e1000.a(e1000_82541.o)
                                                  /usr/lib/gcc/x86_64-linux-gnu/4.6/../../../../lib/librte_pmd_e1000.a(em_ethdev.o)
                                                  /usr/lib/gcc/x86_64-linux-gnu/4.6/../../../../lib/librte_pmd_e1000.a(igb_ethdev.o)
e1000_clear_vfta                                  /usr/lib/gcc/x86_64-linux-gnu/4.6/../../../../lib/librte_pmd_e1000.a(e1000_api.o)
e1000_clear_vfta_generic                          /usr/lib/gcc/x86_64-linux-gnu/4.6/../../../../lib/librte_pmd_e1000.a(e1000_mac.o)
                                                  /usr/lib/gcc/x86_64-linux-gnu/4.6/../../../../lib/librte_pmd_e1000.a(e1000_82542.o)
                                                  /usr/lib/gcc/x86_64-linux-gnu/4.6/../../../../lib/librte_pmd_e1000.a(e1000_82540.o)
                                                  /usr/lib/gcc/x86_64-linux-gnu/4.6/../../../../lib/librte_pmd_e1000.a(e1000_80003es2lan.o)
                                                  /usr/lib/gcc/x86_64-linux-gnu/4.6/../../../../lib/librte_pmd_e1000.a(e1000_82575.o)
                                                  /usr/lib/gcc/x86_64-linux-gnu/4.6/../../../../lib/librte_pmd_e1000.a(e1000_82543.o)
                                                  /usr/lib/gcc/x86_64-linux-gnu/4.6/../../../../lib/librte_pmd_e1000.a(e1000_82541.o)
e1000_commit_fc_settings_generic                  /usr/lib/gcc/x86_64-linux-gnu/4.6/../../../../lib/librte_pmd_e1000.a(e1000_mac.o)
                                                  /usr/lib/gcc/x86_64-linux-gnu/4.6/../../../../lib/librte_pmd_e1000.a(e1000_82543.o)
e1000_config_collision_dist                       /usr/lib/gcc/x86_64-linux-gnu/4.6/../../../../lib/librte_pmd_e1000.a(e1000_api.o)
                                                  /usr/lib/gcc/x86_64-linux-gnu/4.6/../../../../lib/librte_pmd_e1000.a(igb_rxtx.o)
e1000_config_fc_after_link_up_generic             /usr/lib/gcc/x86_64-linux-gnu/4.6/../../../../lib/librte_pmd_e1000.a(e1000_mac.o)
                                                  /usr/lib/gcc/x86_64-linux-gnu/4.6/../../../../lib/librte_pmd_e1000.a(e1000_phy.o)
                                                  /usr/lib/gcc/x86_64-linux-gnu/4.6/../../../../lib/librte_pmd_e1000.a(e1000_ich8lan.o)
                                                  /usr/lib/gcc/x86_64-linux-gnu/4.6/../../../../lib/librte_pmd_e1000.a(e1000_82575.o)
                                                  /usr/lib/gcc/x86_64-linux-gnu/4.6/../../../../lib/librte_pmd_e1000.a(e1000_82571.o)
                                                  /usr/lib/gcc/x86_64-linux-gnu/4.6/../../../../lib/librte_pmd_e1000.a(e1000_82543.o)
                                                  /usr/lib/gcc/x86_64-linux-gnu/4.6/../../../../lib/librte_pmd_e1000.a(e1000_82541.o)
e1000_configure_k1_ich8lan                        /usr/lib/gcc/x86_64-linux-gnu/4.6/../../../../lib/librte_pmd_e1000.a(e1000_ich8lan.o)
e1000_copper_link_autoneg                         /usr/lib/gcc/x86_64-linux-gnu/4.6/../../../../lib/librte_pmd_e1000.a(e1000_phy.o)
                                                  /usr/lib/gcc/x86_64-linux-gnu/4.6/../../../../lib/librte_pmd_e1000.a(e1000_82543.o)
e1000_copper_link_setup_82577                     /usr/lib/gcc/x86_64-linux-gnu/4.6/../../../../lib/librte_pmd_e1000.a(e1000_phy.o)
                                                  /usr/lib/gcc/x86_64-linux-gnu/4.6/../../../../lib/librte_pmd_e1000.a(e1000_ich8lan.o)
                                                  /usr/lib/gcc/x86_64-linux-gnu/4.6/../../../../lib/librte_pmd_e1000.a(e1000_82575.o)
e1000_copper_link_setup_igp                       /usr/lib/gcc/x86_64-linux-gnu/4.6/../../../../lib/librte_pmd_e1000.a(e1000_phy.o)
                                                  /usr/lib/gcc/x86_64-linux-gnu/4.6/../../../../lib/librte_pmd_e1000.a(e1000_ich8lan.o)
                                                  /usr/lib/gcc/x86_64-linux-gnu/4.6/../../../../lib/librte_pmd_e1000.a(e1000_82575.o)
                                                  /usr/lib/gcc/x86_64-linux-gnu/4.6/../../../../lib/librte_pmd_e1000.a(e1000_82571.o)
                                                  /usr/lib/gcc/x86_64-linux-gnu/4.6/../../../../lib/librte_pmd_e1000.a(e1000_82541.o)
e1000_copper_link_setup_m88                       /usr/lib/gcc/x86_64-linux-gnu/4.6/../../../../lib/librte_pmd_e1000.a(e1000_phy.o)
                                                  /usr/lib/gcc/x86_64-linux-gnu/4.6/../../../../lib/librte_pmd_e1000.a(e1000_82540.o)
                                                  /usr/lib/gcc/x86_64-linux-gnu/4.6/../../../../lib/librte_pmd_e1000.a(e1000_ich8lan.o)
                                                  /usr/lib/gcc/x86_64-linux-gnu/4.6/../../../../lib/librte_pmd_e1000.a(e1000_82575.o)
                                                  /usr/lib/gcc/x86_64-linux-gnu/4.6/../../../../lib/librte_pmd_e1000.a(e1000_82571.o)
                                                  /usr/lib/gcc/x86_64-linux-gnu/4.6/../../../../lib/librte_pmd_e1000.a(e1000_82543.o)
e1000_copper_link_setup_m88_gen2                  /usr/lib/gcc/x86_64-linux-gnu/4.6/../../../../lib/librte_pmd_e1000.a(e1000_phy.o)
                                                  /usr/lib/gcc/x86_64-linux-gnu/4.6/../../../../lib/librte_pmd_e1000.a(e1000_82575.o)
e1000_copy_rx_addrs_to_phy_ich8lan                /usr/lib/gcc/x86_64-linux-gnu/4.6/../../../../lib/librte_pmd_e1000.a(e1000_ich8lan.o)
e1000_determine_phy_address                       /usr/lib/gcc/x86_64-linux-gnu/4.6/../../../../lib/librte_pmd_e1000.a(e1000_phy.o)
                                                  /usr/lib/gcc/x86_64-linux-gnu/4.6/../../../../lib/librte_pmd_e1000.a(e1000_ich8lan.o)
e1000_disable_pcie_master                         /usr/lib/gcc/x86_64-linux-gnu/4.6/../../../../lib/librte_pmd_e1000.a(e1000_api.o)
e1000_disable_pcie_master_generic                 /usr/lib/gcc/x86_64-linux-gnu/4.6/../../../../lib/librte_pmd_e1000.a(e1000_mac.o)
                                                  /usr/lib/gcc/x86_64-linux-gnu/4.6/../../../../lib/librte_pmd_e1000.a(e1000_80003es2lan.o)
                                                  /usr/lib/gcc/x86_64-linux-gnu/4.6/../../../../lib/librte_pmd_e1000.a(e1000_ich8lan.o)
                                                  /usr/lib/gcc/x86_64-linux-gnu/4.6/../../../../lib/librte_pmd_e1000.a(e1000_api.o)
                                                  /usr/lib/gcc/x86_64-linux-gnu/4.6/../../../../lib/librte_pmd_e1000.a(e1000_82575.o)
                                                  /usr/lib/gcc/x86_64-linux-gnu/4.6/../../../../lib/librte_pmd_e1000.a(e1000_82571.o)
e1000_disable_phy_wakeup_reg_access_bm            /usr/lib/gcc/x86_64-linux-gnu/4.6/../../../../lib/librte_pmd_e1000.a(e1000_phy.o)
                                                  /usr/lib/gcc/x86_64-linux-gnu/4.6/../../../../lib/librte_pmd_e1000.a(e1000_ich8lan.o)
e1000_enable_mng_pass_thru                        /usr/lib/gcc/x86_64-linux-gnu/4.6/../../../../lib/librte_pmd_e1000.a(e1000_manage.o)
                                                  /usr/lib/gcc/x86_64-linux-gnu/4.6/../../../../lib/librte_pmd_e1000.a(e1000_82575.o)
                                                  /usr/lib/gcc/x86_64-linux-gnu/4.6/../../../../lib/librte_pmd_e1000.a(em_ethdev.o)
                                                  /usr/lib/gcc/x86_64-linux-gnu/4.6/../../../../lib/librte_pmd_e1000.a(igb_ethdev.o)
e1000_enable_phy_wakeup_reg_access_bm             /usr/lib/gcc/x86_64-linux-gnu/4.6/../../../../lib/librte_pmd_e1000.a(e1000_phy.o)
                                                  /usr/lib/gcc/x86_64-linux-gnu/4.6/../../../../lib/librte_pmd_e1000.a(e1000_ich8lan.o)
e1000_enable_tx_pkt_filtering                     /usr/lib/gcc/x86_64-linux-gnu/4.6/../../../../lib/librte_pmd_e1000.a(e1000_api.o)
e1000_enable_tx_pkt_filtering_generic             /usr/lib/gcc/x86_64-linux-gnu/4.6/../../../../lib/librte_pmd_e1000.a(e1000_manage.o)
                                                  /usr/lib/gcc/x86_64-linux-gnu/4.6/../../../../lib/librte_pmd_e1000.a(e1000_api.o)
                                                  /usr/lib/gcc/x86_64-linux-gnu/4.6/../../../../lib/librte_pmd_e1000.a(e1000_82571.o)
e1000_force_mac_fc                                /usr/lib/gcc/x86_64-linux-gnu/4.6/../../../../lib/librte_pmd_e1000.a(e1000_api.o)
e1000_force_mac_fc_generic                        /usr/lib/gcc/x86_64-linux-gnu/4.6/../../../../lib/librte_pmd_e1000.a(e1000_mac.o)
                                                  /usr/lib/gcc/x86_64-linux-gnu/4.6/../../../../lib/librte_pmd_e1000.a(e1000_api.o)
                                                  /usr/lib/gcc/x86_64-linux-gnu/4.6/../../../../lib/librte_pmd_e1000.a(e1000_82575.o)
e1000_get_auto_rd_done_generic                    /usr/lib/gcc/x86_64-linux-gnu/4.6/../../../../lib/librte_pmd_e1000.a(e1000_mac.o)
                                                  /usr/lib/gcc/x86_64-linux-gnu/4.6/../../../../lib/librte_pmd_e1000.a(e1000_80003es2lan.o)
                                                  /usr/lib/gcc/x86_64-linux-gnu/4.6/../../../../lib/librte_pmd_e1000.a(e1000_ich8lan.o)
                                                  /usr/lib/gcc/x86_64-linux-gnu/4.6/../../../../lib/librte_pmd_e1000.a(e1000_82575.o)
                                                  /usr/lib/gcc/x86_64-linux-gnu/4.6/../../../../lib/librte_pmd_e1000.a(e1000_82571.o)
e1000_get_bus_info                                /usr/lib/gcc/x86_64-linux-gnu/4.6/../../../../lib/librte_pmd_e1000.a(e1000_api.o)
                                                  /usr/lib/gcc/x86_64-linux-gnu/4.6/../../../../lib/librte_pmd_e1000.a(em_ethdev.o)
                                                  /usr/lib/gcc/x86_64-linux-gnu/4.6/../../../../lib/librte_pmd_e1000.a(igb_ethdev.o)
e1000_get_bus_info_pci_generic                    /usr/lib/gcc/x86_64-linux-gnu/4.6/../../../../lib/librte_pmd_e1000.a(e1000_mac.o)
                                                  /usr/lib/gcc/x86_64-linux-gnu/4.6/../../../../lib/librte_pmd_e1000.a(e1000_82540.o)
                                                  /usr/lib/gcc/x86_64-linux-gnu/4.6/../../../../lib/librte_pmd_e1000.a(e1000_82543.o)
                                                  /usr/lib/gcc/x86_64-linux-gnu/4.6/../../../../lib/librte_pmd_e1000.a(e1000_82541.o)
e1000_get_bus_info_pcie_generic                   /usr/lib/gcc/x86_64-linux-gnu/4.6/../../../../lib/librte_pmd_e1000.a(e1000_mac.o)
                                                  /usr/lib/gcc/x86_64-linux-gnu/4.6/../../../../lib/librte_pmd_e1000.a(e1000_80003es2lan.o)
                                                  /usr/lib/gcc/x86_64-linux-gnu/4.6/../../../../lib/librte_pmd_e1000.a(e1000_ich8lan.o)
                                                  /usr/lib/gcc/x86_64-linux-gnu/4.6/../../../../lib/librte_pmd_e1000.a(e1000_82575.o)
                                                  /usr/lib/gcc/x86_64-linux-gnu/4.6/../../../../lib/librte_pmd_e1000.a(e1000_82571.o)
e1000_get_cable_length                            /usr/lib/gcc/x86_64-linux-gnu/4.6/../../../../lib/librte_pmd_e1000.a(e1000_api.o)
e1000_get_cable_length_82577                      /usr/lib/gcc/x86_64-linux-gnu/4.6/../../../../lib/librte_pmd_e1000.a(e1000_phy.o)
                                                  /usr/lib/gcc/x86_64-linux-gnu/4.6/../../../../lib/librte_pmd_e1000.a(e1000_ich8lan.o)
                                                  /usr/lib/gcc/x86_64-linux-gnu/4.6/../../../../lib/librte_pmd_e1000.a(e1000_82575.o)
e1000_get_cable_length_igp_2                      /usr/lib/gcc/x86_64-linux-gnu/4.6/../../../../lib/librte_pmd_e1000.a(e1000_phy.o)
                                                  /usr/lib/gcc/x86_64-linux-gnu/4.6/../../../../lib/librte_pmd_e1000.a(e1000_ich8lan.o)
                                                  /usr/lib/gcc/x86_64-linux-gnu/4.6/../../../../lib/librte_pmd_e1000.a(e1000_82575.o)
                                                  /usr/lib/gcc/x86_64-linux-gnu/4.6/../../../../lib/librte_pmd_e1000.a(e1000_82571.o)
e1000_get_cable_length_m88                        /usr/lib/gcc/x86_64-linux-gnu/4.6/../../../../lib/librte_pmd_e1000.a(e1000_phy.o)
                                                  /usr/lib/gcc/x86_64-linux-gnu/4.6/../../../../lib/librte_pmd_e1000.a(e1000_82540.o)
                                                  /usr/lib/gcc/x86_64-linux-gnu/4.6/../../../../lib/librte_pmd_e1000.a(e1000_ich8lan.o)
                                                  /usr/lib/gcc/x86_64-linux-gnu/4.6/../../../../lib/librte_pmd_e1000.a(e1000_82575.o)
                                                  /usr/lib/gcc/x86_64-linux-gnu/4.6/../../../../lib/librte_pmd_e1000.a(e1000_82571.o)
                                                  /usr/lib/gcc/x86_64-linux-gnu/4.6/../../../../lib/librte_pmd_e1000.a(e1000_82543.o)
e1000_get_cable_length_m88_gen2                   /usr/lib/gcc/x86_64-linux-gnu/4.6/../../../../lib/librte_pmd_e1000.a(e1000_phy.o)
                                                  /usr/lib/gcc/x86_64-linux-gnu/4.6/../../../../lib/librte_pmd_e1000.a(e1000_82575.o)
e1000_get_cfg_done_generic                        /usr/lib/gcc/x86_64-linux-gnu/4.6/../../../../lib/librte_pmd_e1000.a(e1000_phy.o)
                                                  /usr/lib/gcc/x86_64-linux-gnu/4.6/../../../../lib/librte_pmd_e1000.a(e1000_82540.o)
                                                  /usr/lib/gcc/x86_64-linux-gnu/4.6/../../../../lib/librte_pmd_e1000.a(e1000_ich8lan.o)
                                                  /usr/lib/gcc/x86_64-linux-gnu/4.6/../../../../lib/librte_pmd_e1000.a(e1000_82571.o)
                                                  /usr/lib/gcc/x86_64-linux-gnu/4.6/../../../../lib/librte_pmd_e1000.a(e1000_82543.o)
                                                  /usr/lib/gcc/x86_64-linux-gnu/4.6/../../../../lib/librte_pmd_e1000.a(e1000_82541.o)
e1000_get_fw_version                              /usr/lib/gcc/x86_64-linux-gnu/4.6/../../../../lib/librte_pmd_e1000.a(e1000_nvm.o)
e1000_get_hw_semaphore_generic                    /usr/lib/gcc/x86_64-linux-gnu/4.6/../../../../lib/librte_pmd_e1000.a(e1000_mac.o)
                                                  /usr/lib/gcc/x86_64-linux-gnu/4.6/../../../../lib/librte_pmd_e1000.a(e1000_80003es2lan.o)
                                                  /usr/lib/gcc/x86_64-linux-gnu/4.6/../../../../lib/librte_pmd_e1000.a(e1000_82575.o)
e1000_get_laa_state_82571                         /usr/lib/gcc/x86_64-linux-gnu/4.6/../../../../lib/librte_pmd_e1000.a(e1000_82571.o)
e1000_get_pba_block_size                          /usr/lib/gcc/x86_64-linux-gnu/4.6/../../../../lib/librte_pmd_e1000.a(e1000_nvm.o)
e1000_get_phy_id                                  /usr/lib/gcc/x86_64-linux-gnu/4.6/../../../../lib/librte_pmd_e1000.a(e1000_phy.o)
                                                  /usr/lib/gcc/x86_64-linux-gnu/4.6/../../../../lib/librte_pmd_e1000.a(e1000_82540.o)
                                                  /usr/lib/gcc/x86_64-linux-gnu/4.6/../../../../lib/librte_pmd_e1000.a(e1000_80003es2lan.o)
                                                  /usr/lib/gcc/x86_64-linux-gnu/4.6/../../../../lib/librte_pmd_e1000.a(e1000_ich8lan.o)
                                                  /usr/lib/gcc/x86_64-linux-gnu/4.6/../../../../lib/librte_pmd_e1000.a(e1000_82575.o)
                                                  /usr/lib/gcc/x86_64-linux-gnu/4.6/../../../../lib/librte_pmd_e1000.a(e1000_82571.o)
                                                  /usr/lib/gcc/x86_64-linux-gnu/4.6/../../../../lib/librte_pmd_e1000.a(e1000_82543.o)
                                                  /usr/lib/gcc/x86_64-linux-gnu/4.6/../../../../lib/librte_pmd_e1000.a(e1000_82541.o)
e1000_get_phy_info                                /usr/lib/gcc/x86_64-linux-gnu/4.6/../../../../lib/librte_pmd_e1000.a(e1000_api.o)
                                                  /usr/lib/gcc/x86_64-linux-gnu/4.6/../../../../lib/librte_pmd_e1000.a(igb_ethdev.o)
e1000_get_phy_info_82577                          /usr/lib/gcc/x86_64-linux-gnu/4.6/../../../../lib/librte_pmd_e1000.a(e1000_phy.o)
                                                  /usr/lib/gcc/x86_64-linux-gnu/4.6/../../../../lib/librte_pmd_e1000.a(e1000_ich8lan.o)
                                                  /usr/lib/gcc/x86_64-linux-gnu/4.6/../../../../lib/librte_pmd_e1000.a(e1000_82575.o)
e1000_get_phy_info_ife                            /usr/lib/gcc/x86_64-linux-gnu/4.6/../../../../lib/librte_pmd_e1000.a(e1000_phy.o)
                                                  /usr/lib/gcc/x86_64-linux-gnu/4.6/../../../../lib/librte_pmd_e1000.a(e1000_ich8lan.o)
e1000_get_phy_info_igp                            /usr/lib/gcc/x86_64-linux-gnu/4.6/../../../../lib/librte_pmd_e1000.a(e1000_phy.o)
                                                  /usr/lib/gcc/x86_64-linux-gnu/4.6/../../../../lib/librte_pmd_e1000.a(e1000_ich8lan.o)
                                                  /usr/lib/gcc/x86_64-linux-gnu/4.6/../../../../lib/librte_pmd_e1000.a(e1000_82575.o)
                                                  /usr/lib/gcc/x86_64-linux-gnu/4.6/../../../../lib/librte_pmd_e1000.a(e1000_82571.o)
                                                  /usr/lib/gcc/x86_64-linux-gnu/4.6/../../../../lib/librte_pmd_e1000.a(e1000_82541.o)
e1000_get_phy_info_m88                            /usr/lib/gcc/x86_64-linux-gnu/4.6/../../../../lib/librte_pmd_e1000.a(e1000_phy.o)
                                                  /usr/lib/gcc/x86_64-linux-gnu/4.6/../../../../lib/librte_pmd_e1000.a(e1000_82540.o)
                                                  /usr/lib/gcc/x86_64-linux-gnu/4.6/../../../../lib/librte_pmd_e1000.a(e1000_80003es2lan.o)
                                                  /usr/lib/gcc/x86_64-linux-gnu/4.6/../../../../lib/librte_pmd_e1000.a(e1000_ich8lan.o)
                                                  /usr/lib/gcc/x86_64-linux-gnu/4.6/../../../../lib/librte_pmd_e1000.a(e1000_82575.o)
                                                  /usr/lib/gcc/x86_64-linux-gnu/4.6/../../../../lib/librte_pmd_e1000.a(e1000_82571.o)
                                                  /usr/lib/gcc/x86_64-linux-gnu/4.6/../../../../lib/librte_pmd_e1000.a(e1000_82543.o)
e1000_get_phy_type_from_id                        /usr/lib/gcc/x86_64-linux-gnu/4.6/../../../../lib/librte_pmd_e1000.a(e1000_phy.o)
                                                  /usr/lib/gcc/x86_64-linux-gnu/4.6/../../../../lib/librte_pmd_e1000.a(e1000_ich8lan.o)
e1000_get_speed_and_duplex                        /usr/lib/gcc/x86_64-linux-gnu/4.6/../../../../lib/librte_pmd_e1000.a(e1000_api.o)
e1000_get_speed_and_duplex_copper_generic         /usr/lib/gcc/x86_64-linux-gnu/4.6/../../../../lib/librte_pmd_e1000.a(e1000_mac.o)
                                                  /usr/lib/gcc/x86_64-linux-gnu/4.6/../../../../lib/librte_pmd_e1000.a(e1000_82540.o)
                                                  /usr/lib/gcc/x86_64-linux-gnu/4.6/../../../../lib/librte_pmd_e1000.a(e1000_80003es2lan.o)
                                                  /usr/lib/gcc/x86_64-linux-gnu/4.6/../../../../lib/librte_pmd_e1000.a(e1000_ich8lan.o)
                                                  /usr/lib/gcc/x86_64-linux-gnu/4.6/../../../../lib/librte_pmd_e1000.a(e1000_82575.o)
                                                  /usr/lib/gcc/x86_64-linux-gnu/4.6/../../../../lib/librte_pmd_e1000.a(e1000_82571.o)
                                                  /usr/lib/gcc/x86_64-linux-gnu/4.6/../../../../lib/librte_pmd_e1000.a(e1000_82543.o)
                                                  /usr/lib/gcc/x86_64-linux-gnu/4.6/../../../../lib/librte_pmd_e1000.a(e1000_82541.o)
e1000_get_speed_and_duplex_fiber_serdes_generic   /usr/lib/gcc/x86_64-linux-gnu/4.6/../../../../lib/librte_pmd_e1000.a(e1000_mac.o)
                                                  /usr/lib/gcc/x86_64-linux-gnu/4.6/../../../../lib/librte_pmd_e1000.a(e1000_82542.o)
                                                  /usr/lib/gcc/x86_64-linux-gnu/4.6/../../../../lib/librte_pmd_e1000.a(e1000_82540.o)
                                                  /usr/lib/gcc/x86_64-linux-gnu/4.6/../../../../lib/librte_pmd_e1000.a(e1000_80003es2lan.o)
                                                  /usr/lib/gcc/x86_64-linux-gnu/4.6/../../../../lib/librte_pmd_e1000.a(e1000_82571.o)
                                                  /usr/lib/gcc/x86_64-linux-gnu/4.6/../../../../lib/librte_pmd_e1000.a(e1000_82543.o)
e1000_gig_downshift_workaround_ich8lan            /usr/lib/gcc/x86_64-linux-gnu/4.6/../../../../lib/librte_pmd_e1000.a(e1000_ich8lan.o)
e1000_hash_mc_addr                                /usr/lib/gcc/x86_64-linux-gnu/4.6/../../../../lib/librte_pmd_e1000.a(e1000_api.o)
e1000_hash_mc_addr_generic                        /usr/lib/gcc/x86_64-linux-gnu/4.6/../../../../lib/librte_pmd_e1000.a(e1000_mac.o)
                                                  /usr/lib/gcc/x86_64-linux-gnu/4.6/../../../../lib/librte_pmd_e1000.a(e1000_api.o)
e1000_host_interface_command                      /usr/lib/gcc/x86_64-linux-gnu/4.6/../../../../lib/librte_pmd_e1000.a(e1000_manage.o)
e1000_i2c_bus_clear                               /usr/lib/gcc/x86_64-linux-gnu/4.6/../../../../lib/librte_pmd_e1000.a(e1000_82575.o)
e1000_id_led_init                                 /usr/lib/gcc/x86_64-linux-gnu/4.6/../../../../lib/librte_pmd_e1000.a(e1000_api.o)
e1000_id_led_init_generic                         /usr/lib/gcc/x86_64-linux-gnu/4.6/../../../../lib/librte_pmd_e1000.a(e1000_mac.o)
                                                  /usr/lib/gcc/x86_64-linux-gnu/4.6/../../../../lib/librte_pmd_e1000.a(e1000_82540.o)
                                                  /usr/lib/gcc/x86_64-linux-gnu/4.6/../../../../lib/librte_pmd_e1000.a(e1000_80003es2lan.o)
                                                  /usr/lib/gcc/x86_64-linux-gnu/4.6/../../../../lib/librte_pmd_e1000.a(e1000_ich8lan.o)
                                                  /usr/lib/gcc/x86_64-linux-gnu/4.6/../../../../lib/librte_pmd_e1000.a(e1000_82575.o)
                                                  /usr/lib/gcc/x86_64-linux-gnu/4.6/../../../../lib/librte_pmd_e1000.a(e1000_82571.o)
                                                  /usr/lib/gcc/x86_64-linux-gnu/4.6/../../../../lib/librte_pmd_e1000.a(e1000_82541.o)
e1000_igp3_phy_powerdown_workaround_ich8lan       /usr/lib/gcc/x86_64-linux-gnu/4.6/../../../../lib/librte_pmd_e1000.a(e1000_ich8lan.o)
e1000_init_function_pointers_80003es2lan          /usr/lib/gcc/x86_64-linux-gnu/4.6/../../../../lib/librte_pmd_e1000.a(e1000_80003es2lan.o)
                                                  /usr/lib/gcc/x86_64-linux-gnu/4.6/../../../../lib/librte_pmd_e1000.a(e1000_api.o)
e1000_init_function_pointers_82540                /usr/lib/gcc/x86_64-linux-gnu/4.6/../../../../lib/librte_pmd_e1000.a(e1000_82540.o)
                                                  /usr/lib/gcc/x86_64-linux-gnu/4.6/../../../../lib/librte_pmd_e1000.a(e1000_api.o)
e1000_init_function_pointers_82541                /usr/lib/gcc/x86_64-linux-gnu/4.6/../../../../lib/librte_pmd_e1000.a(e1000_82541.o)
                                                  /usr/lib/gcc/x86_64-linux-gnu/4.6/../../../../lib/librte_pmd_e1000.a(e1000_api.o)
e1000_init_function_pointers_82542                /usr/lib/gcc/x86_64-linux-gnu/4.6/../../../../lib/librte_pmd_e1000.a(e1000_82542.o)
                                                  /usr/lib/gcc/x86_64-linux-gnu/4.6/../../../../lib/librte_pmd_e1000.a(e1000_api.o)
e1000_init_function_pointers_82543                /usr/lib/gcc/x86_64-linux-gnu/4.6/../../../../lib/librte_pmd_e1000.a(e1000_82543.o)
                                                  /usr/lib/gcc/x86_64-linux-gnu/4.6/../../../../lib/librte_pmd_e1000.a(e1000_api.o)
e1000_init_function_pointers_82571                /usr/lib/gcc/x86_64-linux-gnu/4.6/../../../../lib/librte_pmd_e1000.a(e1000_82571.o)
                                                  /usr/lib/gcc/x86_64-linux-gnu/4.6/../../../../lib/librte_pmd_e1000.a(e1000_api.o)
e1000_init_function_pointers_82575                /usr/lib/gcc/x86_64-linux-gnu/4.6/../../../../lib/librte_pmd_e1000.a(e1000_82575.o)
                                                  /usr/lib/gcc/x86_64-linux-gnu/4.6/../../../../lib/librte_pmd_e1000.a(e1000_api.o)
                                                  /usr/lib/gcc/x86_64-linux-gnu/4.6/../../../../lib/librte_pmd_e1000.a(e1000_i210.o)
e1000_init_function_pointers_i210                 /usr/lib/gcc/x86_64-linux-gnu/4.6/../../../../lib/librte_pmd_e1000.a(e1000_i210.o)
                                                  /usr/lib/gcc/x86_64-linux-gnu/4.6/../../../../lib/librte_pmd_e1000.a(e1000_api.o)
e1000_init_function_pointers_ich8lan              /usr/lib/gcc/x86_64-linux-gnu/4.6/../../../../lib/librte_pmd_e1000.a(e1000_ich8lan.o)
                                                  /usr/lib/gcc/x86_64-linux-gnu/4.6/../../../../lib/librte_pmd_e1000.a(e1000_api.o)
e1000_init_function_pointers_vf                   /usr/lib/gcc/x86_64-linux-gnu/4.6/../../../../lib/librte_pmd_e1000.a(e1000_vf.o)
                                                  /usr/lib/gcc/x86_64-linux-gnu/4.6/../../../../lib/librte_pmd_e1000.a(e1000_api.o)
e1000_init_hw                                     /usr/lib/gcc/x86_64-linux-gnu/4.6/../../../../lib/librte_pmd_e1000.a(e1000_api.o)
                                                  /usr/lib/gcc/x86_64-linux-gnu/4.6/../../../../lib/librte_pmd_e1000.a(em_ethdev.o)
                                                  /usr/lib/gcc/x86_64-linux-gnu/4.6/../../../../lib/librte_pmd_e1000.a(igb_ethdev.o)
e1000_init_mac_ops_generic                        /usr/lib/gcc/x86_64-linux-gnu/4.6/../../../../lib/librte_pmd_e1000.a(e1000_mac.o)
                                                  /usr/lib/gcc/x86_64-linux-gnu/4.6/../../../../lib/librte_pmd_e1000.a(e1000_api.o)
e1000_init_mac_params                             /usr/lib/gcc/x86_64-linux-gnu/4.6/../../../../lib/librte_pmd_e1000.a(e1000_api.o)
e1000_init_mbx_ops_generic                        /usr/lib/gcc/x86_64-linux-gnu/4.6/../../../../lib/librte_pmd_e1000.a(e1000_mbx.o)
                                                  /usr/lib/gcc/x86_64-linux-gnu/4.6/../../../../lib/librte_pmd_e1000.a(e1000_api.o)
e1000_init_mbx_params                             /usr/lib/gcc/x86_64-linux-gnu/4.6/../../../../lib/librte_pmd_e1000.a(e1000_api.o)
e1000_init_mbx_params_pf                          /usr/lib/gcc/x86_64-linux-gnu/4.6/../../../../lib/librte_pmd_e1000.a(e1000_mbx.o)
                                                  /usr/lib/gcc/x86_64-linux-gnu/4.6/../../../../lib/librte_pmd_e1000.a(e1000_82575.o)
e1000_init_mbx_params_vf                          /usr/lib/gcc/x86_64-linux-gnu/4.6/../../../../lib/librte_pmd_e1000.a(e1000_mbx.o)
                                                  /usr/lib/gcc/x86_64-linux-gnu/4.6/../../../../lib/librte_pmd_e1000.a(e1000_vf.o)
e1000_init_nvm_ops_generic                        /usr/lib/gcc/x86_64-linux-gnu/4.6/../../../../lib/librte_pmd_e1000.a(e1000_nvm.o)
                                                  /usr/lib/gcc/x86_64-linux-gnu/4.6/../../../../lib/librte_pmd_e1000.a(e1000_api.o)
e1000_init_nvm_params                             /usr/lib/gcc/x86_64-linux-gnu/4.6/../../../../lib/librte_pmd_e1000.a(e1000_api.o)
e1000_init_nvm_params_82575                       /usr/lib/gcc/x86_64-linux-gnu/4.6/../../../../lib/librte_pmd_e1000.a(e1000_82575.o)
                                                  /usr/lib/gcc/x86_64-linux-gnu/4.6/../../../../lib/librte_pmd_e1000.a(e1000_i210.o)
e1000_init_phy_ops_generic                        /usr/lib/gcc/x86_64-linux-gnu/4.6/../../../../lib/librte_pmd_e1000.a(e1000_phy.o)
                                                  /usr/lib/gcc/x86_64-linux-gnu/4.6/../../../../lib/librte_pmd_e1000.a(e1000_api.o)
e1000_init_phy_params                             /usr/lib/gcc/x86_64-linux-gnu/4.6/../../../../lib/librte_pmd_e1000.a(e1000_api.o)
e1000_init_rx_addrs_generic                       /usr/lib/gcc/x86_64-linux-gnu/4.6/../../../../lib/librte_pmd_e1000.a(e1000_mac.o)
                                                  /usr/lib/gcc/x86_64-linux-gnu/4.6/../../../../lib/librte_pmd_e1000.a(e1000_82542.o)
                                                  /usr/lib/gcc/x86_64-linux-gnu/4.6/../../../../lib/librte_pmd_e1000.a(e1000_82540.o)
                                                  /usr/lib/gcc/x86_64-linux-gnu/4.6/../../../../lib/librte_pmd_e1000.a(e1000_80003es2lan.o)
                                                  /usr/lib/gcc/x86_64-linux-gnu/4.6/../../../../lib/librte_pmd_e1000.a(e1000_ich8lan.o)
                                                  /usr/lib/gcc/x86_64-linux-gnu/4.6/../../../../lib/librte_pmd_e1000.a(e1000_82575.o)
                                                  /usr/lib/gcc/x86_64-linux-gnu/4.6/../../../../lib/librte_pmd_e1000.a(e1000_82571.o)
                                                  /usr/lib/gcc/x86_64-linux-gnu/4.6/../../../../lib/librte_pmd_e1000.a(e1000_82543.o)
                                                  /usr/lib/gcc/x86_64-linux-gnu/4.6/../../../../lib/librte_pmd_e1000.a(e1000_82541.o)
e1000_init_script_state_82541                     /usr/lib/gcc/x86_64-linux-gnu/4.6/../../../../lib/librte_pmd_e1000.a(e1000_82541.o)
                                                  /usr/lib/gcc/x86_64-linux-gnu/4.6/../../../../lib/librte_pmd_e1000.a(em_ethdev.o)
e1000_led_off                                     /usr/lib/gcc/x86_64-linux-gnu/4.6/../../../../lib/librte_pmd_e1000.a(e1000_api.o)
                                                  /usr/lib/gcc/x86_64-linux-gnu/4.6/../../../../lib/librte_pmd_e1000.a(em_ethdev.o)
                                                  /usr/lib/gcc/x86_64-linux-gnu/4.6/../../../../lib/librte_pmd_e1000.a(igb_ethdev.o)
e1000_led_off_generic                             /usr/lib/gcc/x86_64-linux-gnu/4.6/../../../../lib/librte_pmd_e1000.a(e1000_mac.o)
                                                  /usr/lib/gcc/x86_64-linux-gnu/4.6/../../../../lib/librte_pmd_e1000.a(e1000_82540.o)
                                                  /usr/lib/gcc/x86_64-linux-gnu/4.6/../../../../lib/librte_pmd_e1000.a(e1000_80003es2lan.o)
                                                  /usr/lib/gcc/x86_64-linux-gnu/4.6/../../../../lib/librte_pmd_e1000.a(e1000_82575.o)
                                                  /usr/lib/gcc/x86_64-linux-gnu/4.6/../../../../lib/librte_pmd_e1000.a(e1000_82571.o)
                                                  /usr/lib/gcc/x86_64-linux-gnu/4.6/../../../../lib/librte_pmd_e1000.a(e1000_82541.o)
e1000_led_on                                      /usr/lib/gcc/x86_64-linux-gnu/4.6/../../../../lib/librte_pmd_e1000.a(e1000_api.o)
                                                  /usr/lib/gcc/x86_64-linux-gnu/4.6/../../../../lib/librte_pmd_e1000.a(em_ethdev.o)
                                                  /usr/lib/gcc/x86_64-linux-gnu/4.6/../../../../lib/librte_pmd_e1000.a(igb_ethdev.o)
e1000_led_on_generic                              /usr/lib/gcc/x86_64-linux-gnu/4.6/../../../../lib/librte_pmd_e1000.a(e1000_mac.o)
                                                  /usr/lib/gcc/x86_64-linux-gnu/4.6/../../../../lib/librte_pmd_e1000.a(e1000_82540.o)
                                                  /usr/lib/gcc/x86_64-linux-gnu/4.6/../../../../lib/librte_pmd_e1000.a(e1000_80003es2lan.o)
                                                  /usr/lib/gcc/x86_64-linux-gnu/4.6/../../../../lib/librte_pmd_e1000.a(e1000_82575.o)
                                                  /usr/lib/gcc/x86_64-linux-gnu/4.6/../../../../lib/librte_pmd_e1000.a(e1000_82571.o)
                                                  /usr/lib/gcc/x86_64-linux-gnu/4.6/../../../../lib/librte_pmd_e1000.a(e1000_82541.o)
e1000_link_stall_workaround_hv                    /usr/lib/gcc/x86_64-linux-gnu/4.6/../../../../lib/librte_pmd_e1000.a(e1000_phy.o)
                                                  /usr/lib/gcc/x86_64-linux-gnu/4.6/../../../../lib/librte_pmd_e1000.a(e1000_ich8lan.o)
e1000_load_firmware                               /usr/lib/gcc/x86_64-linux-gnu/4.6/../../../../lib/librte_pmd_e1000.a(e1000_manage.o)
e1000_lv_jumbo_workaround_ich8lan                 /usr/lib/gcc/x86_64-linux-gnu/4.6/../../../../lib/librte_pmd_e1000.a(e1000_ich8lan.o)
                                                  /usr/lib/gcc/x86_64-linux-gnu/4.6/../../../../lib/librte_pmd_e1000.a(em_rxtx.o)
e1000_mng_enable_host_if                          /usr/lib/gcc/x86_64-linux-gnu/4.6/../../../../lib/librte_pmd_e1000.a(e1000_api.o)
e1000_mng_enable_host_if_generic                  /usr/lib/gcc/x86_64-linux-gnu/4.6/../../../../lib/librte_pmd_e1000.a(e1000_manage.o)
                                                  /usr/lib/gcc/x86_64-linux-gnu/4.6/../../../../lib/librte_pmd_e1000.a(e1000_mac.o)
e1000_mng_host_if_write                           /usr/lib/gcc/x86_64-linux-gnu/4.6/../../../../lib/librte_pmd_e1000.a(e1000_api.o)
e1000_mng_host_if_write_generic                   /usr/lib/gcc/x86_64-linux-gnu/4.6/../../../../lib/librte_pmd_e1000.a(e1000_manage.o)
                                                  /usr/lib/gcc/x86_64-linux-gnu/4.6/../../../../lib/librte_pmd_e1000.a(e1000_mac.o)
e1000_mng_write_cmd_header                        /usr/lib/gcc/x86_64-linux-gnu/4.6/../../../../lib/librte_pmd_e1000.a(e1000_api.o)
e1000_mng_write_cmd_header_generic                /usr/lib/gcc/x86_64-linux-gnu/4.6/../../../../lib/librte_pmd_e1000.a(e1000_manage.o)
                                                  /usr/lib/gcc/x86_64-linux-gnu/4.6/../../../../lib/librte_pmd_e1000.a(e1000_mac.o)
e1000_mng_write_dhcp_info                         /usr/lib/gcc/x86_64-linux-gnu/4.6/../../../../lib/librte_pmd_e1000.a(e1000_api.o)
e1000_mng_write_dhcp_info_generic                 /usr/lib/gcc/x86_64-linux-gnu/4.6/../../../../lib/librte_pmd_e1000.a(e1000_manage.o)
                                                  /usr/lib/gcc/x86_64-linux-gnu/4.6/../../../../lib/librte_pmd_e1000.a(e1000_api.o)
e1000_null_led_default                            /usr/lib/gcc/x86_64-linux-gnu/4.6/../../../../lib/librte_pmd_e1000.a(e1000_nvm.o)
e1000_null_link_info                              /usr/lib/gcc/x86_64-linux-gnu/4.6/../../../../lib/librte_pmd_e1000.a(e1000_mac.o)
e1000_null_lplu_state                             /usr/lib/gcc/x86_64-linux-gnu/4.6/../../../../lib/librte_pmd_e1000.a(e1000_phy.o)
e1000_null_mac_generic                            /usr/lib/gcc/x86_64-linux-gnu/4.6/../../../../lib/librte_pmd_e1000.a(e1000_mac.o)
e1000_null_mng_mode                               /usr/lib/gcc/x86_64-linux-gnu/4.6/../../../../lib/librte_pmd_e1000.a(e1000_mac.o)
e1000_null_nvm_generic                            /usr/lib/gcc/x86_64-linux-gnu/4.6/../../../../lib/librte_pmd_e1000.a(e1000_nvm.o)
e1000_null_ops_generic                            /usr/lib/gcc/x86_64-linux-gnu/4.6/../../../../lib/librte_pmd_e1000.a(e1000_mac.o)
                                                  /usr/lib/gcc/x86_64-linux-gnu/4.6/../../../../lib/librte_pmd_e1000.a(e1000_phy.o)
                                                  /usr/lib/gcc/x86_64-linux-gnu/4.6/../../../../lib/librte_pmd_e1000.a(e1000_nvm.o)
                                                  /usr/lib/gcc/x86_64-linux-gnu/4.6/../../../../lib/librte_pmd_e1000.a(e1000_mbx.o)
                                                  /usr/lib/gcc/x86_64-linux-gnu/4.6/../../../../lib/librte_pmd_e1000.a(e1000_i210.o)
e1000_null_phy_generic                            /usr/lib/gcc/x86_64-linux-gnu/4.6/../../../../lib/librte_pmd_e1000.a(e1000_phy.o)
e1000_null_rar_set                                /usr/lib/gcc/x86_64-linux-gnu/4.6/../../../../lib/librte_pmd_e1000.a(e1000_mac.o)
e1000_null_read_nvm                               /usr/lib/gcc/x86_64-linux-gnu/4.6/../../../../lib/librte_pmd_e1000.a(e1000_nvm.o)
                                                  /usr/lib/gcc/x86_64-linux-gnu/4.6/../../../../lib/librte_pmd_e1000.a(e1000_82575.o)
e1000_null_read_reg                               /usr/lib/gcc/x86_64-linux-gnu/4.6/../../../../lib/librte_pmd_e1000.a(e1000_phy.o)
e1000_null_set_page                               /usr/lib/gcc/x86_64-linux-gnu/4.6/../../../../lib/librte_pmd_e1000.a(e1000_phy.o)
e1000_null_update_mc                              /usr/lib/gcc/x86_64-linux-gnu/4.6/../../../../lib/librte_pmd_e1000.a(e1000_mac.o)
e1000_null_write_nvm                              /usr/lib/gcc/x86_64-linux-gnu/4.6/../../../../lib/librte_pmd_e1000.a(e1000_nvm.o)
                                                  /usr/lib/gcc/x86_64-linux-gnu/4.6/../../../../lib/librte_pmd_e1000.a(e1000_i210.o)
e1000_null_write_reg                              /usr/lib/gcc/x86_64-linux-gnu/4.6/../../../../lib/librte_pmd_e1000.a(e1000_phy.o)
e1000_null_write_vfta                             /usr/lib/gcc/x86_64-linux-gnu/4.6/../../../../lib/librte_pmd_e1000.a(e1000_mac.o)
e1000_pci_clear_mwi                               /usr/lib/gcc/x86_64-linux-gnu/4.6/../../../../lib/librte_pmd_e1000.a(e1000_osdep.o)
                                                  /usr/lib/gcc/x86_64-linux-gnu/4.6/../../../../lib/librte_pmd_e1000.a(e1000_82542.o)
e1000_pci_set_mwi                                 /usr/lib/gcc/x86_64-linux-gnu/4.6/../../../../lib/librte_pmd_e1000.a(e1000_osdep.o)
                                                  /usr/lib/gcc/x86_64-linux-gnu/4.6/../../../../lib/librte_pmd_e1000.a(e1000_82542.o)
e1000_pcix_mmrbc_workaround_generic               /usr/lib/gcc/x86_64-linux-gnu/4.6/../../../../lib/librte_pmd_e1000.a(e1000_mac.o)
                                                  /usr/lib/gcc/x86_64-linux-gnu/4.6/../../../../lib/librte_pmd_e1000.a(e1000_82540.o)
                                                  /usr/lib/gcc/x86_64-linux-gnu/4.6/../../../../lib/librte_pmd_e1000.a(e1000_82543.o)
e1000_phy_commit                                  /usr/lib/gcc/x86_64-linux-gnu/4.6/../../../../lib/librte_pmd_e1000.a(e1000_api.o)
e1000_phy_force_speed_duplex_82577                /usr/lib/gcc/x86_64-linux-gnu/4.6/../../../../lib/librte_pmd_e1000.a(e1000_phy.o)
                                                  /usr/lib/gcc/x86_64-linux-gnu/4.6/../../../../lib/librte_pmd_e1000.a(e1000_ich8lan.o)
                                                  /usr/lib/gcc/x86_64-linux-gnu/4.6/../../../../lib/librte_pmd_e1000.a(e1000_82575.o)
e1000_phy_force_speed_duplex_ife                  /usr/lib/gcc/x86_64-linux-gnu/4.6/../../../../lib/librte_pmd_e1000.a(e1000_phy.o)
                                                  /usr/lib/gcc/x86_64-linux-gnu/4.6/../../../../lib/librte_pmd_e1000.a(e1000_ich8lan.o)
e1000_phy_force_speed_duplex_igp                  /usr/lib/gcc/x86_64-linux-gnu/4.6/../../../../lib/librte_pmd_e1000.a(e1000_phy.o)
                                                  /usr/lib/gcc/x86_64-linux-gnu/4.6/../../../../lib/librte_pmd_e1000.a(e1000_ich8lan.o)
                                                  /usr/lib/gcc/x86_64-linux-gnu/4.6/../../../../lib/librte_pmd_e1000.a(e1000_82575.o)
                                                  /usr/lib/gcc/x86_64-linux-gnu/4.6/../../../../lib/librte_pmd_e1000.a(e1000_82571.o)
                                                  /usr/lib/gcc/x86_64-linux-gnu/4.6/../../../../lib/librte_pmd_e1000.a(e1000_82541.o)
e1000_phy_force_speed_duplex_m88                  /usr/lib/gcc/x86_64-linux-gnu/4.6/../../../../lib/librte_pmd_e1000.a(e1000_phy.o)
                                                  /usr/lib/gcc/x86_64-linux-gnu/4.6/../../../../lib/librte_pmd_e1000.a(e1000_82540.o)
                                                  /usr/lib/gcc/x86_64-linux-gnu/4.6/../../../../lib/librte_pmd_e1000.a(e1000_ich8lan.o)
                                                  /usr/lib/gcc/x86_64-linux-gnu/4.6/../../../../lib/librte_pmd_e1000.a(e1000_82575.o)
                                                  /usr/lib/gcc/x86_64-linux-gnu/4.6/../../../../lib/librte_pmd_e1000.a(e1000_82571.o)
                                                  /usr/lib/gcc/x86_64-linux-gnu/4.6/../../../../lib/librte_pmd_e1000.a(e1000_82543.o)
e1000_phy_force_speed_duplex_setup                /usr/lib/gcc/x86_64-linux-gnu/4.6/../../../../lib/librte_pmd_e1000.a(e1000_phy.o)
                                                  /usr/lib/gcc/x86_64-linux-gnu/4.6/../../../../lib/librte_pmd_e1000.a(e1000_80003es2lan.o)
e1000_phy_has_link_generic                        /usr/lib/gcc/x86_64-linux-gnu/4.6/../../../../lib/librte_pmd_e1000.a(e1000_phy.o)
                                                  /usr/lib/gcc/x86_64-linux-gnu/4.6/../../../../lib/librte_pmd_e1000.a(e1000_80003es2lan.o)
                                                  /usr/lib/gcc/x86_64-linux-gnu/4.6/../../../../lib/librte_pmd_e1000.a(e1000_mac.o)
                                                  /usr/lib/gcc/x86_64-linux-gnu/4.6/../../../../lib/librte_pmd_e1000.a(e1000_ich8lan.o)
                                                  /usr/lib/gcc/x86_64-linux-gnu/4.6/../../../../lib/librte_pmd_e1000.a(e1000_82543.o)
                                                  /usr/lib/gcc/x86_64-linux-gnu/4.6/../../../../lib/librte_pmd_e1000.a(e1000_82541.o)
e1000_phy_hw_reset                                /usr/lib/gcc/x86_64-linux-gnu/4.6/../../../../lib/librte_pmd_e1000.a(e1000_api.o)
                                                  /usr/lib/gcc/x86_64-linux-gnu/4.6/../../../../lib/librte_pmd_e1000.a(em_ethdev.o)
                                                  /usr/lib/gcc/x86_64-linux-gnu/4.6/../../../../lib/librte_pmd_e1000.a(igb_ethdev.o)
e1000_phy_hw_reset_generic                        /usr/lib/gcc/x86_64-linux-gnu/4.6/../../../../lib/librte_pmd_e1000.a(e1000_phy.o)
                                                  /usr/lib/gcc/x86_64-linux-gnu/4.6/../../../../lib/librte_pmd_e1000.a(e1000_82540.o)
                                                  /usr/lib/gcc/x86_64-linux-gnu/4.6/../../../../lib/librte_pmd_e1000.a(e1000_80003es2lan.o)
                                                  /usr/lib/gcc/x86_64-linux-gnu/4.6/../../../../lib/librte_pmd_e1000.a(e1000_ich8lan.o)
                                                  /usr/lib/gcc/x86_64-linux-gnu/4.6/../../../../lib/librte_pmd_e1000.a(e1000_82575.o)
                                                  /usr/lib/gcc/x86_64-linux-gnu/4.6/../../../../lib/librte_pmd_e1000.a(e1000_82571.o)
                                                  /usr/lib/gcc/x86_64-linux-gnu/4.6/../../../../lib/librte_pmd_e1000.a(e1000_82543.o)
                                                  /usr/lib/gcc/x86_64-linux-gnu/4.6/../../../../lib/librte_pmd_e1000.a(e1000_82541.o)
e1000_phy_init_script_igp3                        /usr/lib/gcc/x86_64-linux-gnu/4.6/../../../../lib/librte_pmd_e1000.a(e1000_phy.o)
                                                  /usr/lib/gcc/x86_64-linux-gnu/4.6/../../../../lib/librte_pmd_e1000.a(e1000_ich8lan.o)
                                                  /usr/lib/gcc/x86_64-linux-gnu/4.6/../../../../lib/librte_pmd_e1000.a(e1000_82575.o)
e1000_phy_reset_dsp_generic                       /usr/lib/gcc/x86_64-linux-gnu/4.6/../../../../lib/librte_pmd_e1000.a(e1000_phy.o)
                                                  /usr/lib/gcc/x86_64-linux-gnu/4.6/../../../../lib/librte_pmd_e1000.a(e1000_80003es2lan.o)
e1000_phy_setup_autoneg                           /usr/lib/gcc/x86_64-linux-gnu/4.6/../../../../lib/librte_pmd_e1000.a(e1000_phy.o)
e1000_phy_sw_reset_generic                        /usr/lib/gcc/x86_64-linux-gnu/4.6/../../../../lib/librte_pmd_e1000.a(e1000_phy.o)
                                                  /usr/lib/gcc/x86_64-linux-gnu/4.6/../../../../lib/librte_pmd_e1000.a(e1000_82540.o)
                                                  /usr/lib/gcc/x86_64-linux-gnu/4.6/../../../../lib/librte_pmd_e1000.a(e1000_80003es2lan.o)
                                                  /usr/lib/gcc/x86_64-linux-gnu/4.6/../../../../lib/librte_pmd_e1000.a(e1000_ich8lan.o)
                                                  /usr/lib/gcc/x86_64-linux-gnu/4.6/../../../../lib/librte_pmd_e1000.a(e1000_82575.o)
                                                  /usr/lib/gcc/x86_64-linux-gnu/4.6/../../../../lib/librte_pmd_e1000.a(e1000_82571.o)
                                                  /usr/lib/gcc/x86_64-linux-gnu/4.6/../../../../lib/librte_pmd_e1000.a(e1000_82543.o)
e1000_poll_eerd_eewr_done                         /usr/lib/gcc/x86_64-linux-gnu/4.6/../../../../lib/librte_pmd_e1000.a(e1000_nvm.o)
                                                  /usr/lib/gcc/x86_64-linux-gnu/4.6/../../../../lib/librte_pmd_e1000.a(e1000_82571.o)
e1000_poll_fiber_serdes_link_generic              /usr/lib/gcc/x86_64-linux-gnu/4.6/../../../../lib/librte_pmd_e1000.a(e1000_mac.o)
                                                  /usr/lib/gcc/x86_64-linux-gnu/4.6/../../../../lib/librte_pmd_e1000.a(e1000_82543.o)
e1000_power_down_phy                              /usr/lib/gcc/x86_64-linux-gnu/4.6/../../../../lib/librte_pmd_e1000.a(e1000_api.o)
                                                  /usr/lib/gcc/x86_64-linux-gnu/4.6/../../../../lib/librte_pmd_e1000.a(em_ethdev.o)
                                                  /usr/lib/gcc/x86_64-linux-gnu/4.6/../../../../lib/librte_pmd_e1000.a(igb_ethdev.o)
e1000_power_down_phy_copper                       /usr/lib/gcc/x86_64-linux-gnu/4.6/../../../../lib/librte_pmd_e1000.a(e1000_phy.o)
                                                  /usr/lib/gcc/x86_64-linux-gnu/4.6/../../../../lib/librte_pmd_e1000.a(e1000_82540.o)
                                                  /usr/lib/gcc/x86_64-linux-gnu/4.6/../../../../lib/librte_pmd_e1000.a(e1000_80003es2lan.o)
                                                  /usr/lib/gcc/x86_64-linux-gnu/4.6/../../../../lib/librte_pmd_e1000.a(e1000_ich8lan.o)
                                                  /usr/lib/gcc/x86_64-linux-gnu/4.6/../../../../lib/librte_pmd_e1000.a(e1000_82575.o)
                                                  /usr/lib/gcc/x86_64-linux-gnu/4.6/../../../../lib/librte_pmd_e1000.a(e1000_82571.o)
                                                  /usr/lib/gcc/x86_64-linux-gnu/4.6/../../../../lib/librte_pmd_e1000.a(e1000_82543.o)
                                                  /usr/lib/gcc/x86_64-linux-gnu/4.6/../../../../lib/librte_pmd_e1000.a(e1000_82541.o)
e1000_power_up_fiber_serdes_link                  /usr/lib/gcc/x86_64-linux-gnu/4.6/../../../../lib/librte_pmd_e1000.a(e1000_api.o)
e1000_power_up_phy                                /usr/lib/gcc/x86_64-linux-gnu/4.6/../../../../lib/librte_pmd_e1000.a(e1000_api.o)
                                                  /usr/lib/gcc/x86_64-linux-gnu/4.6/../../../../lib/librte_pmd_e1000.a(em_ethdev.o)
                                                  /usr/lib/gcc/x86_64-linux-gnu/4.6/../../../../lib/librte_pmd_e1000.a(igb_ethdev.o)
e1000_power_up_phy_copper                         /usr/lib/gcc/x86_64-linux-gnu/4.6/../../../../lib/librte_pmd_e1000.a(e1000_phy.o)
                                                  /usr/lib/gcc/x86_64-linux-gnu/4.6/../../../../lib/librte_pmd_e1000.a(e1000_82540.o)
                                                  /usr/lib/gcc/x86_64-linux-gnu/4.6/../../../../lib/librte_pmd_e1000.a(e1000_80003es2lan.o)
                                                  /usr/lib/gcc/x86_64-linux-gnu/4.6/../../../../lib/librte_pmd_e1000.a(e1000_ich8lan.o)
                                                  /usr/lib/gcc/x86_64-linux-gnu/4.6/../../../../lib/librte_pmd_e1000.a(e1000_82575.o)
                                                  /usr/lib/gcc/x86_64-linux-gnu/4.6/../../../../lib/librte_pmd_e1000.a(e1000_82571.o)
                                                  /usr/lib/gcc/x86_64-linux-gnu/4.6/../../../../lib/librte_pmd_e1000.a(e1000_82543.o)
                                                  /usr/lib/gcc/x86_64-linux-gnu/4.6/../../../../lib/librte_pmd_e1000.a(e1000_82541.o)
e1000_promisc_set_vf                              /usr/lib/gcc/x86_64-linux-gnu/4.6/../../../../lib/librte_pmd_e1000.a(e1000_vf.o)
e1000_put_hw_semaphore_generic                    /usr/lib/gcc/x86_64-linux-gnu/4.6/../../../../lib/librte_pmd_e1000.a(e1000_mac.o)
                                                  /usr/lib/gcc/x86_64-linux-gnu/4.6/../../../../lib/librte_pmd_e1000.a(e1000_80003es2lan.o)
                                                  /usr/lib/gcc/x86_64-linux-gnu/4.6/../../../../lib/librte_pmd_e1000.a(e1000_i210.o)
                                                  /usr/lib/gcc/x86_64-linux-gnu/4.6/../../../../lib/librte_pmd_e1000.a(e1000_82575.o)
e1000_rar_set                                     /usr/lib/gcc/x86_64-linux-gnu/4.6/../../../../lib/librte_pmd_e1000.a(e1000_api.o)
                                                  /usr/lib/gcc/x86_64-linux-gnu/4.6/../../../../lib/librte_pmd_e1000.a(em_ethdev.o)
                                                  /usr/lib/gcc/x86_64-linux-gnu/4.6/../../../../lib/librte_pmd_e1000.a(igb_ethdev.o)
e1000_read_emi_reg_locked                         /usr/lib/gcc/x86_64-linux-gnu/4.6/../../../../lib/librte_pmd_e1000.a(e1000_ich8lan.o)
e1000_read_i2c_byte_generic                       /usr/lib/gcc/x86_64-linux-gnu/4.6/../../../../lib/librte_pmd_e1000.a(e1000_82575.o)
e1000_read_i2c_byte_null                          /usr/lib/gcc/x86_64-linux-gnu/4.6/../../../../lib/librte_pmd_e1000.a(e1000_phy.o)
e1000_read_invm_i211                              /usr/lib/gcc/x86_64-linux-gnu/4.6/../../../../lib/librte_pmd_e1000.a(e1000_i210.o)
e1000_read_invm_version                           /usr/lib/gcc/x86_64-linux-gnu/4.6/../../../../lib/librte_pmd_e1000.a(e1000_i210.o)
                                                  /usr/lib/gcc/x86_64-linux-gnu/4.6/../../../../lib/librte_pmd_e1000.a(e1000_nvm.o)
e1000_read_kmrn_reg                               /usr/lib/gcc/x86_64-linux-gnu/4.6/../../../../lib/librte_pmd_e1000.a(e1000_api.o)
e1000_read_kmrn_reg_generic                       /usr/lib/gcc/x86_64-linux-gnu/4.6/../../../../lib/librte_pmd_e1000.a(e1000_phy.o)
                                                  /usr/lib/gcc/x86_64-linux-gnu/4.6/../../../../lib/librte_pmd_e1000.a(e1000_ich8lan.o)
                                                  /usr/lib/gcc/x86_64-linux-gnu/4.6/../../../../lib/librte_pmd_e1000.a(e1000_api.o)
e1000_read_kmrn_reg_locked                        /usr/lib/gcc/x86_64-linux-gnu/4.6/../../../../lib/librte_pmd_e1000.a(e1000_phy.o)
                                                  /usr/lib/gcc/x86_64-linux-gnu/4.6/../../../../lib/librte_pmd_e1000.a(e1000_ich8lan.o)
e1000_read_mac_addr                               /usr/lib/gcc/x86_64-linux-gnu/4.6/../../../../lib/librte_pmd_e1000.a(e1000_api.o)
                                                  /usr/lib/gcc/x86_64-linux-gnu/4.6/../../../../lib/librte_pmd_e1000.a(em_ethdev.o)
                                                  /usr/lib/gcc/x86_64-linux-gnu/4.6/../../../../lib/librte_pmd_e1000.a(igb_ethdev.o)
e1000_read_mac_addr_generic                       /usr/lib/gcc/x86_64-linux-gnu/4.6/../../../../lib/librte_pmd_e1000.a(e1000_nvm.o)
                                                  /usr/lib/gcc/x86_64-linux-gnu/4.6/../../../../lib/librte_pmd_e1000.a(e1000_80003es2lan.o)
                                                  /usr/lib/gcc/x86_64-linux-gnu/4.6/../../../../lib/librte_pmd_e1000.a(e1000_mac.o)
                                                  /usr/lib/gcc/x86_64-linux-gnu/4.6/../../../../lib/librte_pmd_e1000.a(e1000_api.o)
                                                  /usr/lib/gcc/x86_64-linux-gnu/4.6/../../../../lib/librte_pmd_e1000.a(e1000_82575.o)
                                                  /usr/lib/gcc/x86_64-linux-gnu/4.6/../../../../lib/librte_pmd_e1000.a(e1000_82571.o)
e1000_read_mbx                                    /usr/lib/gcc/x86_64-linux-gnu/4.6/../../../../lib/librte_pmd_e1000.a(e1000_mbx.o)
                                                  /usr/lib/gcc/x86_64-linux-gnu/4.6/../../../../lib/librte_pmd_e1000.a(igb_pf.o)
e1000_read_nvm                                    /usr/lib/gcc/x86_64-linux-gnu/4.6/../../../../lib/librte_pmd_e1000.a(e1000_api.o)
                                                  /usr/lib/gcc/x86_64-linux-gnu/4.6/../../../../lib/librte_pmd_e1000.a(e1000_nvm.o)
                                                  /usr/lib/gcc/x86_64-linux-gnu/4.6/../../../../lib/librte_pmd_e1000.a(e1000_manage.o)
                                                  /usr/lib/gcc/x86_64-linux-gnu/4.6/../../../../lib/librte_pmd_e1000.a(e1000_ich8lan.o)
e1000_read_nvm_eerd                               /usr/lib/gcc/x86_64-linux-gnu/4.6/../../../../lib/librte_pmd_e1000.a(e1000_nvm.o)
                                                  /usr/lib/gcc/x86_64-linux-gnu/4.6/../../../../lib/librte_pmd_e1000.a(e1000_80003es2lan.o)
                                                  /usr/lib/gcc/x86_64-linux-gnu/4.6/../../../../lib/librte_pmd_e1000.a(e1000_i210.o)
                                                  /usr/lib/gcc/x86_64-linux-gnu/4.6/../../../../lib/librte_pmd_e1000.a(e1000_82575.o)
                                                  /usr/lib/gcc/x86_64-linux-gnu/4.6/../../../../lib/librte_pmd_e1000.a(e1000_82571.o)
e1000_read_nvm_microwire                          /usr/lib/gcc/x86_64-linux-gnu/4.6/../../../../lib/librte_pmd_e1000.a(e1000_nvm.o)
                                                  /usr/lib/gcc/x86_64-linux-gnu/4.6/../../../../lib/librte_pmd_e1000.a(e1000_82542.o)
                                                  /usr/lib/gcc/x86_64-linux-gnu/4.6/../../../../lib/librte_pmd_e1000.a(e1000_82540.o)
                                                  /usr/lib/gcc/x86_64-linux-gnu/4.6/../../../../lib/librte_pmd_e1000.a(e1000_82543.o)
                                                  /usr/lib/gcc/x86_64-linux-gnu/4.6/../../../../lib/librte_pmd_e1000.a(e1000_82541.o)
e1000_read_nvm_spi                                /usr/lib/gcc/x86_64-linux-gnu/4.6/../../../../lib/librte_pmd_e1000.a(e1000_nvm.o)
                                                  /usr/lib/gcc/x86_64-linux-gnu/4.6/../../../../lib/librte_pmd_e1000.a(e1000_82575.o)
                                                  /usr/lib/gcc/x86_64-linux-gnu/4.6/../../../../lib/librte_pmd_e1000.a(e1000_82541.o)
e1000_read_nvm_srrd_i210                          /usr/lib/gcc/x86_64-linux-gnu/4.6/../../../../lib/librte_pmd_e1000.a(e1000_i210.o)
e1000_read_pba_length                             /usr/lib/gcc/x86_64-linux-gnu/4.6/../../../../lib/librte_pmd_e1000.a(e1000_api.o)
e1000_read_pba_length_generic                     /usr/lib/gcc/x86_64-linux-gnu/4.6/../../../../lib/librte_pmd_e1000.a(e1000_nvm.o)
                                                  /usr/lib/gcc/x86_64-linux-gnu/4.6/../../../../lib/librte_pmd_e1000.a(e1000_api.o)
e1000_read_pba_raw                                /usr/lib/gcc/x86_64-linux-gnu/4.6/../../../../lib/librte_pmd_e1000.a(e1000_nvm.o)
e1000_read_pba_string                             /usr/lib/gcc/x86_64-linux-gnu/4.6/../../../../lib/librte_pmd_e1000.a(e1000_api.o)
e1000_read_pba_string_generic                     /usr/lib/gcc/x86_64-linux-gnu/4.6/../../../../lib/librte_pmd_e1000.a(e1000_nvm.o)
                                                  /usr/lib/gcc/x86_64-linux-gnu/4.6/../../../../lib/librte_pmd_e1000.a(e1000_api.o)
e1000_read_pci_cfg                                /usr/lib/gcc/x86_64-linux-gnu/4.6/../../../../lib/librte_pmd_e1000.a(e1000_osdep.o)
                                                  /usr/lib/gcc/x86_64-linux-gnu/4.6/../../../../lib/librte_pmd_e1000.a(e1000_mac.o)
e1000_read_pcie_cap_reg                           /usr/lib/gcc/x86_64-linux-gnu/4.6/../../../../lib/librte_pmd_e1000.a(e1000_osdep.o)
                                                  /usr/lib/gcc/x86_64-linux-gnu/4.6/../../../../lib/librte_pmd_e1000.a(e1000_mac.o)
                                                  /usr/lib/gcc/x86_64-linux-gnu/4.6/../../../../lib/librte_pmd_e1000.a(e1000_82575.o)
e1000_read_phy_reg                                /usr/lib/gcc/x86_64-linux-gnu/4.6/../../../../lib/librte_pmd_e1000.a(e1000_api.o)
e1000_read_phy_reg_bm                             /usr/lib/gcc/x86_64-linux-gnu/4.6/../../../../lib/librte_pmd_e1000.a(e1000_phy.o)
                                                  /usr/lib/gcc/x86_64-linux-gnu/4.6/../../../../lib/librte_pmd_e1000.a(e1000_ich8lan.o)
e1000_read_phy_reg_bm2                            /usr/lib/gcc/x86_64-linux-gnu/4.6/../../../../lib/librte_pmd_e1000.a(e1000_phy.o)
                                                  /usr/lib/gcc/x86_64-linux-gnu/4.6/../../../../lib/librte_pmd_e1000.a(e1000_82571.o)
e1000_read_phy_reg_gs40g                          /usr/lib/gcc/x86_64-linux-gnu/4.6/../../../../lib/librte_pmd_e1000.a(e1000_phy.o)
                                                  /usr/lib/gcc/x86_64-linux-gnu/4.6/../../../../lib/librte_pmd_e1000.a(e1000_82575.o)
e1000_read_phy_reg_hv                             /usr/lib/gcc/x86_64-linux-gnu/4.6/../../../../lib/librte_pmd_e1000.a(e1000_phy.o)
                                                  /usr/lib/gcc/x86_64-linux-gnu/4.6/../../../../lib/librte_pmd_e1000.a(e1000_ich8lan.o)
e1000_read_phy_reg_hv_locked                      /usr/lib/gcc/x86_64-linux-gnu/4.6/../../../../lib/librte_pmd_e1000.a(e1000_phy.o)
                                                  /usr/lib/gcc/x86_64-linux-gnu/4.6/../../../../lib/librte_pmd_e1000.a(e1000_ich8lan.o)
e1000_read_phy_reg_i2c                            /usr/lib/gcc/x86_64-linux-gnu/4.6/../../../../lib/librte_pmd_e1000.a(e1000_phy.o)
                                                  /usr/lib/gcc/x86_64-linux-gnu/4.6/../../../../lib/librte_pmd_e1000.a(e1000_82575.o)
e1000_read_phy_reg_igp                            /usr/lib/gcc/x86_64-linux-gnu/4.6/../../../../lib/librte_pmd_e1000.a(e1000_phy.o)
                                                  /usr/lib/gcc/x86_64-linux-gnu/4.6/../../../../lib/librte_pmd_e1000.a(e1000_ich8lan.o)
                                                  /usr/lib/gcc/x86_64-linux-gnu/4.6/../../../../lib/librte_pmd_e1000.a(e1000_82575.o)
                                                  /usr/lib/gcc/x86_64-linux-gnu/4.6/../../../../lib/librte_pmd_e1000.a(e1000_82571.o)
                                                  /usr/lib/gcc/x86_64-linux-gnu/4.6/../../../../lib/librte_pmd_e1000.a(e1000_82541.o)
e1000_read_phy_reg_igp_locked                     /usr/lib/gcc/x86_64-linux-gnu/4.6/../../../../lib/librte_pmd_e1000.a(e1000_phy.o)
                                                  /usr/lib/gcc/x86_64-linux-gnu/4.6/../../../../lib/librte_pmd_e1000.a(e1000_ich8lan.o)
e1000_read_phy_reg_m88                            /usr/lib/gcc/x86_64-linux-gnu/4.6/../../../../lib/librte_pmd_e1000.a(e1000_phy.o)
                                                  /usr/lib/gcc/x86_64-linux-gnu/4.6/../../../../lib/librte_pmd_e1000.a(e1000_82540.o)
                                                  /usr/lib/gcc/x86_64-linux-gnu/4.6/../../../../lib/librte_pmd_e1000.a(e1000_82571.o)
                                                  /usr/lib/gcc/x86_64-linux-gnu/4.6/../../../../lib/librte_pmd_e1000.a(e1000_82543.o)
e1000_read_phy_reg_mdic                           /usr/lib/gcc/x86_64-linux-gnu/4.6/../../../../lib/librte_pmd_e1000.a(e1000_phy.o)
                                                  /usr/lib/gcc/x86_64-linux-gnu/4.6/../../../../lib/librte_pmd_e1000.a(e1000_80003es2lan.o)
                                                  /usr/lib/gcc/x86_64-linux-gnu/4.6/../../../../lib/librte_pmd_e1000.a(e1000_82575.o)
e1000_read_phy_reg_page_hv                        /usr/lib/gcc/x86_64-linux-gnu/4.6/../../../../lib/librte_pmd_e1000.a(e1000_phy.o)
                                                  /usr/lib/gcc/x86_64-linux-gnu/4.6/../../../../lib/librte_pmd_e1000.a(e1000_ich8lan.o)
e1000_read_posted_mbx                             /usr/lib/gcc/x86_64-linux-gnu/4.6/../../../../lib/librte_pmd_e1000.a(e1000_mbx.o)
e1000_read_sfp_data_byte                          /usr/lib/gcc/x86_64-linux-gnu/4.6/../../../../lib/librte_pmd_e1000.a(e1000_phy.o)
                                                  /usr/lib/gcc/x86_64-linux-gnu/4.6/../../../../lib/librte_pmd_e1000.a(e1000_82575.o)
e1000_release_nvm_generic                         /usr/lib/gcc/x86_64-linux-gnu/4.6/../../../../lib/librte_pmd_e1000.a(e1000_nvm.o)
                                                  /usr/lib/gcc/x86_64-linux-gnu/4.6/../../../../lib/librte_pmd_e1000.a(e1000_82540.o)
                                                  /usr/lib/gcc/x86_64-linux-gnu/4.6/../../../../lib/librte_pmd_e1000.a(e1000_80003es2lan.o)
                                                  /usr/lib/gcc/x86_64-linux-gnu/4.6/../../../../lib/librte_pmd_e1000.a(e1000_82575.o)
                                                  /usr/lib/gcc/x86_64-linux-gnu/4.6/../../../../lib/librte_pmd_e1000.a(e1000_82571.o)
                                                  /usr/lib/gcc/x86_64-linux-gnu/4.6/../../../../lib/librte_pmd_e1000.a(e1000_82541.o)
e1000_release_phy                                 /usr/lib/gcc/x86_64-linux-gnu/4.6/../../../../lib/librte_pmd_e1000.a(e1000_api.o)
e1000_release_swfw_sync_i210                      /usr/lib/gcc/x86_64-linux-gnu/4.6/../../../../lib/librte_pmd_e1000.a(e1000_i210.o)
                                                  /usr/lib/gcc/x86_64-linux-gnu/4.6/../../../../lib/librte_pmd_e1000.a(e1000_82575.o)
e1000_reload_nvm                                  /usr/lib/gcc/x86_64-linux-gnu/4.6/../../../../lib/librte_pmd_e1000.a(e1000_api.o)
e1000_reset_adaptive                              /usr/lib/gcc/x86_64-linux-gnu/4.6/../../../../lib/librte_pmd_e1000.a(e1000_api.o)
e1000_reset_adaptive_generic                      /usr/lib/gcc/x86_64-linux-gnu/4.6/../../../../lib/librte_pmd_e1000.a(e1000_mac.o)
                                                  /usr/lib/gcc/x86_64-linux-gnu/4.6/../../../../lib/librte_pmd_e1000.a(e1000_api.o)
e1000_reset_hw                                    /usr/lib/gcc/x86_64-linux-gnu/4.6/../../../../lib/librte_pmd_e1000.a(e1000_api.o)
                                                  /usr/lib/gcc/x86_64-linux-gnu/4.6/../../../../lib/librte_pmd_e1000.a(em_ethdev.o)
                                                  /usr/lib/gcc/x86_64-linux-gnu/4.6/../../../../lib/librte_pmd_e1000.a(igb_ethdev.o)
e1000_resume_workarounds_pchlan                   /usr/lib/gcc/x86_64-linux-gnu/4.6/../../../../lib/librte_pmd_e1000.a(e1000_ich8lan.o)
e1000_rlpml_set_vf                                /usr/lib/gcc/x86_64-linux-gnu/4.6/../../../../lib/librte_pmd_e1000.a(e1000_vf.o)
e1000_rx_fifo_flush_82575                         /usr/lib/gcc/x86_64-linux-gnu/4.6/../../../../lib/librte_pmd_e1000.a(e1000_82575.o)
e1000_rxpbs_adjust_82580                          /usr/lib/gcc/x86_64-linux-gnu/4.6/../../../../lib/librte_pmd_e1000.a(e1000_82575.o)
                                                  /usr/lib/gcc/x86_64-linux-gnu/4.6/../../../../lib/librte_pmd_e1000.a(igb_ethdev.o)
e1000_set_d0_lplu_state                           /usr/lib/gcc/x86_64-linux-gnu/4.6/../../../../lib/librte_pmd_e1000.a(e1000_api.o)
e1000_set_d3_lplu_state                           /usr/lib/gcc/x86_64-linux-gnu/4.6/../../../../lib/librte_pmd_e1000.a(e1000_api.o)
e1000_set_d3_lplu_state_generic                   /usr/lib/gcc/x86_64-linux-gnu/4.6/../../../../lib/librte_pmd_e1000.a(e1000_phy.o)
                                                  /usr/lib/gcc/x86_64-linux-gnu/4.6/../../../../lib/librte_pmd_e1000.a(e1000_80003es2lan.o)
                                                  /usr/lib/gcc/x86_64-linux-gnu/4.6/../../../../lib/librte_pmd_e1000.a(e1000_82575.o)
                                                  /usr/lib/gcc/x86_64-linux-gnu/4.6/../../../../lib/librte_pmd_e1000.a(e1000_82571.o)
                                                  /usr/lib/gcc/x86_64-linux-gnu/4.6/../../../../lib/librte_pmd_e1000.a(e1000_82541.o)
e1000_set_default_fc_generic                      /usr/lib/gcc/x86_64-linux-gnu/4.6/../../../../lib/librte_pmd_e1000.a(e1000_mac.o)
                                                  /usr/lib/gcc/x86_64-linux-gnu/4.6/../../../../lib/librte_pmd_e1000.a(e1000_82542.o)
e1000_set_eee_i350                                /usr/lib/gcc/x86_64-linux-gnu/4.6/../../../../lib/librte_pmd_e1000.a(e1000_82575.o)
e1000_set_fc_watermarks_generic                   /usr/lib/gcc/x86_64-linux-gnu/4.6/../../../../lib/librte_pmd_e1000.a(e1000_mac.o)
                                                  /usr/lib/gcc/x86_64-linux-gnu/4.6/../../../../lib/librte_pmd_e1000.a(e1000_82542.o)
                                                  /usr/lib/gcc/x86_64-linux-gnu/4.6/../../../../lib/librte_pmd_e1000.a(e1000_ich8lan.o)
e1000_set_i2c_bb                                  /usr/lib/gcc/x86_64-linux-gnu/4.6/../../../../lib/librte_pmd_e1000.a(e1000_82575.o)
e1000_set_kmrn_lock_loss_workaround_ich8lan       /usr/lib/gcc/x86_64-linux-gnu/4.6/../../../../lib/librte_pmd_e1000.a(e1000_ich8lan.o)
e1000_set_laa_state_82571                         /usr/lib/gcc/x86_64-linux-gnu/4.6/../../../../lib/librte_pmd_e1000.a(e1000_82571.o)
                                                  /usr/lib/gcc/x86_64-linux-gnu/4.6/../../../../lib/librte_pmd_e1000.a(em_ethdev.o)
e1000_set_lan_id_multi_port_pci                   /usr/lib/gcc/x86_64-linux-gnu/4.6/../../../../lib/librte_pmd_e1000.a(e1000_mac.o)
                                                  /usr/lib/gcc/x86_64-linux-gnu/4.6/../../../../lib/librte_pmd_e1000.a(e1000_82542.o)
                                                  /usr/lib/gcc/x86_64-linux-gnu/4.6/../../../../lib/librte_pmd_e1000.a(e1000_82540.o)
                                                  /usr/lib/gcc/x86_64-linux-gnu/4.6/../../../../lib/librte_pmd_e1000.a(e1000_82543.o)
e1000_set_lan_id_single_port                      /usr/lib/gcc/x86_64-linux-gnu/4.6/../../../../lib/librte_pmd_e1000.a(e1000_mac.o)
                                                  /usr/lib/gcc/x86_64-linux-gnu/4.6/../../../../lib/librte_pmd_e1000.a(e1000_ich8lan.o)
                                                  /usr/lib/gcc/x86_64-linux-gnu/4.6/../../../../lib/librte_pmd_e1000.a(e1000_82571.o)
                                                  /usr/lib/gcc/x86_64-linux-gnu/4.6/../../../../lib/librte_pmd_e1000.a(e1000_82541.o)
e1000_set_mac_type                                /usr/lib/gcc/x86_64-linux-gnu/4.6/../../../../lib/librte_pmd_e1000.a(e1000_api.o)
                                                  /usr/lib/gcc/x86_64-linux-gnu/4.6/../../../../lib/librte_pmd_e1000.a(igb_ethdev.o)
e1000_set_page_igp                                /usr/lib/gcc/x86_64-linux-gnu/4.6/../../../../lib/librte_pmd_e1000.a(e1000_phy.o)
                                                  /usr/lib/gcc/x86_64-linux-gnu/4.6/../../../../lib/librte_pmd_e1000.a(e1000_ich8lan.o)
e1000_set_pcie_no_snoop_generic                   /usr/lib/gcc/x86_64-linux-gnu/4.6/../../../../lib/librte_pmd_e1000.a(e1000_mac.o)
                                                  /usr/lib/gcc/x86_64-linux-gnu/4.6/../../../../lib/librte_pmd_e1000.a(e1000_ich8lan.o)
e1000_set_tbi_compatibility_82543                 /usr/lib/gcc/x86_64-linux-gnu/4.6/../../../../lib/librte_pmd_e1000.a(e1000_82543.o)
                                                  /usr/lib/gcc/x86_64-linux-gnu/4.6/../../../../lib/librte_pmd_e1000.a(em_ethdev.o)
e1000_setup_copper_link_generic                   /usr/lib/gcc/x86_64-linux-gnu/4.6/../../../../lib/librte_pmd_e1000.a(e1000_phy.o)
                                                  /usr/lib/gcc/x86_64-linux-gnu/4.6/../../../../lib/librte_pmd_e1000.a(e1000_82540.o)
                                                  /usr/lib/gcc/x86_64-linux-gnu/4.6/../../../../lib/librte_pmd_e1000.a(e1000_80003es2lan.o)
                                                  /usr/lib/gcc/x86_64-linux-gnu/4.6/../../../../lib/librte_pmd_e1000.a(e1000_ich8lan.o)
                                                  /usr/lib/gcc/x86_64-linux-gnu/4.6/../../../../lib/librte_pmd_e1000.a(e1000_82575.o)
                                                  /usr/lib/gcc/x86_64-linux-gnu/4.6/../../../../lib/librte_pmd_e1000.a(e1000_82571.o)
                                                  /usr/lib/gcc/x86_64-linux-gnu/4.6/../../../../lib/librte_pmd_e1000.a(e1000_82541.o)
e1000_setup_fiber_serdes_link_generic             /usr/lib/gcc/x86_64-linux-gnu/4.6/../../../../lib/librte_pmd_e1000.a(e1000_mac.o)
                                                  /usr/lib/gcc/x86_64-linux-gnu/4.6/../../../../lib/librte_pmd_e1000.a(e1000_82542.o)
                                                  /usr/lib/gcc/x86_64-linux-gnu/4.6/../../../../lib/librte_pmd_e1000.a(e1000_82540.o)
                                                  /usr/lib/gcc/x86_64-linux-gnu/4.6/../../../../lib/librte_pmd_e1000.a(e1000_80003es2lan.o)
                                                  /usr/lib/gcc/x86_64-linux-gnu/4.6/../../../../lib/librte_pmd_e1000.a(e1000_82571.o)
e1000_setup_init_funcs                            /usr/lib/gcc/x86_64-linux-gnu/4.6/../../../../lib/librte_pmd_e1000.a(e1000_api.o)
                                                  /usr/lib/gcc/x86_64-linux-gnu/4.6/../../../../lib/librte_pmd_e1000.a(em_ethdev.o)
                                                  /usr/lib/gcc/x86_64-linux-gnu/4.6/../../../../lib/librte_pmd_e1000.a(igb_ethdev.o)
e1000_setup_led                                   /usr/lib/gcc/x86_64-linux-gnu/4.6/../../../../lib/librte_pmd_e1000.a(e1000_api.o)
e1000_setup_led_generic                           /usr/lib/gcc/x86_64-linux-gnu/4.6/../../../../lib/librte_pmd_e1000.a(e1000_mac.o)
                                                  /usr/lib/gcc/x86_64-linux-gnu/4.6/../../../../lib/librte_pmd_e1000.a(e1000_82540.o)
                                                  /usr/lib/gcc/x86_64-linux-gnu/4.6/../../../../lib/librte_pmd_e1000.a(e1000_80003es2lan.o)
                                                  /usr/lib/gcc/x86_64-linux-gnu/4.6/../../../../lib/librte_pmd_e1000.a(e1000_ich8lan.o)
                                                  /usr/lib/gcc/x86_64-linux-gnu/4.6/../../../../lib/librte_pmd_e1000.a(e1000_82575.o)
                                                  /usr/lib/gcc/x86_64-linux-gnu/4.6/../../../../lib/librte_pmd_e1000.a(e1000_82571.o)
e1000_setup_link                                  /usr/lib/gcc/x86_64-linux-gnu/4.6/../../../../lib/librte_pmd_e1000.a(e1000_api.o)
                                                  /usr/lib/gcc/x86_64-linux-gnu/4.6/../../../../lib/librte_pmd_e1000.a(em_ethdev.o)
                                                  /usr/lib/gcc/x86_64-linux-gnu/4.6/../../../../lib/librte_pmd_e1000.a(igb_ethdev.o)
e1000_setup_link_generic                          /usr/lib/gcc/x86_64-linux-gnu/4.6/../../../../lib/librte_pmd_e1000.a(e1000_mac.o)
                                                  /usr/lib/gcc/x86_64-linux-gnu/4.6/../../../../lib/librte_pmd_e1000.a(e1000_82540.o)
                                                  /usr/lib/gcc/x86_64-linux-gnu/4.6/../../../../lib/librte_pmd_e1000.a(e1000_80003es2lan.o)
                                                  /usr/lib/gcc/x86_64-linux-gnu/4.6/../../../../lib/librte_pmd_e1000.a(e1000_82575.o)
                                                  /usr/lib/gcc/x86_64-linux-gnu/4.6/../../../../lib/librte_pmd_e1000.a(e1000_82571.o)
                                                  /usr/lib/gcc/x86_64-linux-gnu/4.6/../../../../lib/librte_pmd_e1000.a(e1000_82543.o)
                                                  /usr/lib/gcc/x86_64-linux-gnu/4.6/../../../../lib/librte_pmd_e1000.a(e1000_82541.o)
                                                  /usr/lib/gcc/x86_64-linux-gnu/4.6/../../../../lib/librte_pmd_e1000.a(em_ethdev.o)
                                                  /usr/lib/gcc/x86_64-linux-gnu/4.6/../../../../lib/librte_pmd_e1000.a(igb_ethdev.o)
e1000_shutdown_fiber_serdes_link                  /usr/lib/gcc/x86_64-linux-gnu/4.6/../../../../lib/librte_pmd_e1000.a(e1000_api.o)
e1000_stop_nvm                                    /usr/lib/gcc/x86_64-linux-gnu/4.6/../../../../lib/librte_pmd_e1000.a(e1000_nvm.o)
                                                  /usr/lib/gcc/x86_64-linux-gnu/4.6/../../../../lib/librte_pmd_e1000.a(e1000_82542.o)
e1000_suspend_workarounds_ich8lan                 /usr/lib/gcc/x86_64-linux-gnu/4.6/../../../../lib/librte_pmd_e1000.a(e1000_ich8lan.o)
e1000_tbi_adjust_stats_82543                      /usr/lib/gcc/x86_64-linux-gnu/4.6/../../../../lib/librte_pmd_e1000.a(e1000_82543.o)
e1000_tbi_sbp_enabled_82543                       /usr/lib/gcc/x86_64-linux-gnu/4.6/../../../../lib/librte_pmd_e1000.a(e1000_82543.o)
e1000_translate_register_82542                    /usr/lib/gcc/x86_64-linux-gnu/4.6/../../../../lib/librte_pmd_e1000.a(e1000_82542.o)
e1000_update_adaptive                             /usr/lib/gcc/x86_64-linux-gnu/4.6/../../../../lib/librte_pmd_e1000.a(e1000_api.o)
e1000_update_adaptive_generic                     /usr/lib/gcc/x86_64-linux-gnu/4.6/../../../../lib/librte_pmd_e1000.a(e1000_mac.o)
                                                  /usr/lib/gcc/x86_64-linux-gnu/4.6/../../../../lib/librte_pmd_e1000.a(e1000_api.o)
e1000_update_flash_i210                           /usr/lib/gcc/x86_64-linux-gnu/4.6/../../../../lib/librte_pmd_e1000.a(e1000_i210.o)
e1000_update_mc_addr_list                         /usr/lib/gcc/x86_64-linux-gnu/4.6/../../../../lib/librte_pmd_e1000.a(e1000_api.o)
e1000_update_mc_addr_list_generic                 /usr/lib/gcc/x86_64-linux-gnu/4.6/../../../../lib/librte_pmd_e1000.a(e1000_mac.o)
                                                  /usr/lib/gcc/x86_64-linux-gnu/4.6/../../../../lib/librte_pmd_e1000.a(e1000_82542.o)
                                                  /usr/lib/gcc/x86_64-linux-gnu/4.6/../../../../lib/librte_pmd_e1000.a(e1000_82540.o)
                                                  /usr/lib/gcc/x86_64-linux-gnu/4.6/../../../../lib/librte_pmd_e1000.a(e1000_80003es2lan.o)
                                                  /usr/lib/gcc/x86_64-linux-gnu/4.6/../../../../lib/librte_pmd_e1000.a(e1000_ich8lan.o)
                                                  /usr/lib/gcc/x86_64-linux-gnu/4.6/../../../../lib/librte_pmd_e1000.a(e1000_82575.o)
                                                  /usr/lib/gcc/x86_64-linux-gnu/4.6/../../../../lib/librte_pmd_e1000.a(e1000_82571.o)
                                                  /usr/lib/gcc/x86_64-linux-gnu/4.6/../../../../lib/librte_pmd_e1000.a(e1000_82543.o)
                                                  /usr/lib/gcc/x86_64-linux-gnu/4.6/../../../../lib/librte_pmd_e1000.a(e1000_82541.o)
e1000_update_nvm_checksum                         /usr/lib/gcc/x86_64-linux-gnu/4.6/../../../../lib/librte_pmd_e1000.a(e1000_api.o)
e1000_update_nvm_checksum_generic                 /usr/lib/gcc/x86_64-linux-gnu/4.6/../../../../lib/librte_pmd_e1000.a(e1000_nvm.o)
                                                  /usr/lib/gcc/x86_64-linux-gnu/4.6/../../../../lib/librte_pmd_e1000.a(e1000_82542.o)
                                                  /usr/lib/gcc/x86_64-linux-gnu/4.6/../../../../lib/librte_pmd_e1000.a(e1000_82540.o)
                                                  /usr/lib/gcc/x86_64-linux-gnu/4.6/../../../../lib/librte_pmd_e1000.a(e1000_80003es2lan.o)
                                                  /usr/lib/gcc/x86_64-linux-gnu/4.6/../../../../lib/librte_pmd_e1000.a(e1000_82575.o)
                                                  /usr/lib/gcc/x86_64-linux-gnu/4.6/../../../../lib/librte_pmd_e1000.a(e1000_82571.o)
                                                  /usr/lib/gcc/x86_64-linux-gnu/4.6/../../../../lib/librte_pmd_e1000.a(e1000_82543.o)
                                                  /usr/lib/gcc/x86_64-linux-gnu/4.6/../../../../lib/librte_pmd_e1000.a(e1000_82541.o)
e1000_update_nvm_checksum_i210                    /usr/lib/gcc/x86_64-linux-gnu/4.6/../../../../lib/librte_pmd_e1000.a(e1000_i210.o)
e1000_valid_led_default_generic                   /usr/lib/gcc/x86_64-linux-gnu/4.6/../../../../lib/librte_pmd_e1000.a(e1000_mac.o)
                                                  /usr/lib/gcc/x86_64-linux-gnu/4.6/../../../../lib/librte_pmd_e1000.a(e1000_82540.o)
                                                  /usr/lib/gcc/x86_64-linux-gnu/4.6/../../../../lib/librte_pmd_e1000.a(e1000_80003es2lan.o)
                                                  /usr/lib/gcc/x86_64-linux-gnu/4.6/../../../../lib/librte_pmd_e1000.a(e1000_82543.o)
                                                  /usr/lib/gcc/x86_64-linux-gnu/4.6/../../../../lib/librte_pmd_e1000.a(e1000_82541.o)
e1000_validate_mdi_setting                        /usr/lib/gcc/x86_64-linux-gnu/4.6/../../../../lib/librte_pmd_e1000.a(e1000_api.o)
e1000_validate_mdi_setting_crossover_generic      /usr/lib/gcc/x86_64-linux-gnu/4.6/../../../../lib/librte_pmd_e1000.a(e1000_mac.o)
                                                  /usr/lib/gcc/x86_64-linux-gnu/4.6/../../../../lib/librte_pmd_e1000.a(e1000_82575.o)
e1000_validate_nvm_checksum                       /usr/lib/gcc/x86_64-linux-gnu/4.6/../../../../lib/librte_pmd_e1000.a(e1000_api.o)
                                                  /usr/lib/gcc/x86_64-linux-gnu/4.6/../../../../lib/librte_pmd_e1000.a(em_ethdev.o)
                                                  /usr/lib/gcc/x86_64-linux-gnu/4.6/../../../../lib/librte_pmd_e1000.a(igb_ethdev.o)
e1000_validate_nvm_checksum_generic               /usr/lib/gcc/x86_64-linux-gnu/4.6/../../../../lib/librte_pmd_e1000.a(e1000_nvm.o)
                                                  /usr/lib/gcc/x86_64-linux-gnu/4.6/../../../../lib/librte_pmd_e1000.a(e1000_82542.o)
                                                  /usr/lib/gcc/x86_64-linux-gnu/4.6/../../../../lib/librte_pmd_e1000.a(e1000_82540.o)
                                                  /usr/lib/gcc/x86_64-linux-gnu/4.6/../../../../lib/librte_pmd_e1000.a(e1000_80003es2lan.o)
                                                  /usr/lib/gcc/x86_64-linux-gnu/4.6/../../../../lib/librte_pmd_e1000.a(e1000_i210.o)
                                                  /usr/lib/gcc/x86_64-linux-gnu/4.6/../../../../lib/librte_pmd_e1000.a(e1000_82575.o)
                                                  /usr/lib/gcc/x86_64-linux-gnu/4.6/../../../../lib/librte_pmd_e1000.a(e1000_82571.o)
                                                  /usr/lib/gcc/x86_64-linux-gnu/4.6/../../../../lib/librte_pmd_e1000.a(e1000_82543.o)
                                                  /usr/lib/gcc/x86_64-linux-gnu/4.6/../../../../lib/librte_pmd_e1000.a(e1000_82541.o)
e1000_validate_nvm_checksum_i210                  /usr/lib/gcc/x86_64-linux-gnu/4.6/../../../../lib/librte_pmd_e1000.a(e1000_i210.o)
e1000_vfta_set_vf                                 /usr/lib/gcc/x86_64-linux-gnu/4.6/../../../../lib/librte_pmd_e1000.a(e1000_vf.o)
e1000_vmdq_set_anti_spoofing_pf                   /usr/lib/gcc/x86_64-linux-gnu/4.6/../../../../lib/librte_pmd_e1000.a(e1000_82575.o)
                                                  /usr/lib/gcc/x86_64-linux-gnu/4.6/../../../../lib/librte_pmd_e1000.a(igb_pf.o)
e1000_vmdq_set_loopback_pf                        /usr/lib/gcc/x86_64-linux-gnu/4.6/../../../../lib/librte_pmd_e1000.a(e1000_82575.o)
e1000_vmdq_set_replication_pf                     /usr/lib/gcc/x86_64-linux-gnu/4.6/../../../../lib/librte_pmd_e1000.a(e1000_82575.o)
e1000_wait_autoneg                                /usr/lib/gcc/x86_64-linux-gnu/4.6/../../../../lib/librte_pmd_e1000.a(e1000_api.o)
e1000_wait_autoneg_generic                        /usr/lib/gcc/x86_64-linux-gnu/4.6/../../../../lib/librte_pmd_e1000.a(e1000_phy.o)
                                                  /usr/lib/gcc/x86_64-linux-gnu/4.6/../../../../lib/librte_pmd_e1000.a(e1000_mac.o)
e1000_write_8bit_ctrl_reg                         /usr/lib/gcc/x86_64-linux-gnu/4.6/../../../../lib/librte_pmd_e1000.a(e1000_api.o)
e1000_write_8bit_ctrl_reg_generic                 /usr/lib/gcc/x86_64-linux-gnu/4.6/../../../../lib/librte_pmd_e1000.a(e1000_mac.o)
                                                  /usr/lib/gcc/x86_64-linux-gnu/4.6/../../../../lib/librte_pmd_e1000.a(e1000_api.o)
                                                  /usr/lib/gcc/x86_64-linux-gnu/4.6/../../../../lib/librte_pmd_e1000.a(e1000_82575.o)
e1000_write_i2c_byte_generic                      /usr/lib/gcc/x86_64-linux-gnu/4.6/../../../../lib/librte_pmd_e1000.a(e1000_82575.o)
e1000_write_i2c_byte_null                         /usr/lib/gcc/x86_64-linux-gnu/4.6/../../../../lib/librte_pmd_e1000.a(e1000_phy.o)
e1000_write_kmrn_reg                              /usr/lib/gcc/x86_64-linux-gnu/4.6/../../../../lib/librte_pmd_e1000.a(e1000_api.o)
e1000_write_kmrn_reg_generic                      /usr/lib/gcc/x86_64-linux-gnu/4.6/../../../../lib/librte_pmd_e1000.a(e1000_phy.o)
                                                  /usr/lib/gcc/x86_64-linux-gnu/4.6/../../../../lib/librte_pmd_e1000.a(e1000_ich8lan.o)
                                                  /usr/lib/gcc/x86_64-linux-gnu/4.6/../../../../lib/librte_pmd_e1000.a(e1000_api.o)
e1000_write_kmrn_reg_locked                       /usr/lib/gcc/x86_64-linux-gnu/4.6/../../../../lib/librte_pmd_e1000.a(e1000_phy.o)
                                                  /usr/lib/gcc/x86_64-linux-gnu/4.6/../../../../lib/librte_pmd_e1000.a(e1000_ich8lan.o)
e1000_write_mbx                                   /usr/lib/gcc/x86_64-linux-gnu/4.6/../../../../lib/librte_pmd_e1000.a(e1000_mbx.o)
                                                  /usr/lib/gcc/x86_64-linux-gnu/4.6/../../../../lib/librte_pmd_e1000.a(igb_pf.o)
e1000_write_nvm                                   /usr/lib/gcc/x86_64-linux-gnu/4.6/../../../../lib/librte_pmd_e1000.a(e1000_api.o)
                                                  /usr/lib/gcc/x86_64-linux-gnu/4.6/../../../../lib/librte_pmd_e1000.a(e1000_nvm.o)
e1000_write_nvm_microwire                         /usr/lib/gcc/x86_64-linux-gnu/4.6/../../../../lib/librte_pmd_e1000.a(e1000_nvm.o)
                                                  /usr/lib/gcc/x86_64-linux-gnu/4.6/../../../../lib/librte_pmd_e1000.a(e1000_82542.o)
                                                  /usr/lib/gcc/x86_64-linux-gnu/4.6/../../../../lib/librte_pmd_e1000.a(e1000_82540.o)
                                                  /usr/lib/gcc/x86_64-linux-gnu/4.6/../../../../lib/librte_pmd_e1000.a(e1000_82543.o)
                                                  /usr/lib/gcc/x86_64-linux-gnu/4.6/../../../../lib/librte_pmd_e1000.a(e1000_82541.o)
e1000_write_nvm_spi                               /usr/lib/gcc/x86_64-linux-gnu/4.6/../../../../lib/librte_pmd_e1000.a(e1000_nvm.o)
                                                  /usr/lib/gcc/x86_64-linux-gnu/4.6/../../../../lib/librte_pmd_e1000.a(e1000_80003es2lan.o)
                                                  /usr/lib/gcc/x86_64-linux-gnu/4.6/../../../../lib/librte_pmd_e1000.a(e1000_82575.o)
                                                  /usr/lib/gcc/x86_64-linux-gnu/4.6/../../../../lib/librte_pmd_e1000.a(e1000_82571.o)
                                                  /usr/lib/gcc/x86_64-linux-gnu/4.6/../../../../lib/librte_pmd_e1000.a(e1000_82541.o)
e1000_write_nvm_srwr_i210                         /usr/lib/gcc/x86_64-linux-gnu/4.6/../../../../lib/librte_pmd_e1000.a(e1000_i210.o)
e1000_write_pba_raw                               /usr/lib/gcc/x86_64-linux-gnu/4.6/../../../../lib/librte_pmd_e1000.a(e1000_nvm.o)
e1000_write_pci_cfg                               /usr/lib/gcc/x86_64-linux-gnu/4.6/../../../../lib/librte_pmd_e1000.a(e1000_osdep.o)
                                                  /usr/lib/gcc/x86_64-linux-gnu/4.6/../../../../lib/librte_pmd_e1000.a(e1000_mac.o)
e1000_write_pcie_cap_reg                          /usr/lib/gcc/x86_64-linux-gnu/4.6/../../../../lib/librte_pmd_e1000.a(e1000_osdep.o)
                                                  /usr/lib/gcc/x86_64-linux-gnu/4.6/../../../../lib/librte_pmd_e1000.a(e1000_82575.o)
e1000_write_phy_reg                               /usr/lib/gcc/x86_64-linux-gnu/4.6/../../../../lib/librte_pmd_e1000.a(e1000_api.o)
e1000_write_phy_reg_bm                            /usr/lib/gcc/x86_64-linux-gnu/4.6/../../../../lib/librte_pmd_e1000.a(e1000_phy.o)
                                                  /usr/lib/gcc/x86_64-linux-gnu/4.6/../../../../lib/librte_pmd_e1000.a(e1000_ich8lan.o)
e1000_write_phy_reg_bm2                           /usr/lib/gcc/x86_64-linux-gnu/4.6/../../../../lib/librte_pmd_e1000.a(e1000_phy.o)
                                                  /usr/lib/gcc/x86_64-linux-gnu/4.6/../../../../lib/librte_pmd_e1000.a(e1000_82571.o)
e1000_write_phy_reg_gs40g                         /usr/lib/gcc/x86_64-linux-gnu/4.6/../../../../lib/librte_pmd_e1000.a(e1000_phy.o)
                                                  /usr/lib/gcc/x86_64-linux-gnu/4.6/../../../../lib/librte_pmd_e1000.a(e1000_82575.o)
e1000_write_phy_reg_hv                            /usr/lib/gcc/x86_64-linux-gnu/4.6/../../../../lib/librte_pmd_e1000.a(e1000_phy.o)
                                                  /usr/lib/gcc/x86_64-linux-gnu/4.6/../../../../lib/librte_pmd_e1000.a(e1000_ich8lan.o)
e1000_write_phy_reg_hv_locked                     /usr/lib/gcc/x86_64-linux-gnu/4.6/../../../../lib/librte_pmd_e1000.a(e1000_phy.o)
                                                  /usr/lib/gcc/x86_64-linux-gnu/4.6/../../../../lib/librte_pmd_e1000.a(e1000_ich8lan.o)
e1000_write_phy_reg_i2c                           /usr/lib/gcc/x86_64-linux-gnu/4.6/../../../../lib/librte_pmd_e1000.a(e1000_phy.o)
                                                  /usr/lib/gcc/x86_64-linux-gnu/4.6/../../../../lib/librte_pmd_e1000.a(e1000_82575.o)
e1000_write_phy_reg_igp                           /usr/lib/gcc/x86_64-linux-gnu/4.6/../../../../lib/librte_pmd_e1000.a(e1000_phy.o)
                                                  /usr/lib/gcc/x86_64-linux-gnu/4.6/../../../../lib/librte_pmd_e1000.a(e1000_ich8lan.o)
                                                  /usr/lib/gcc/x86_64-linux-gnu/4.6/../../../../lib/librte_pmd_e1000.a(e1000_82575.o)
                                                  /usr/lib/gcc/x86_64-linux-gnu/4.6/../../../../lib/librte_pmd_e1000.a(e1000_82571.o)
                                                  /usr/lib/gcc/x86_64-linux-gnu/4.6/../../../../lib/librte_pmd_e1000.a(e1000_82541.o)
e1000_write_phy_reg_igp_locked                    /usr/lib/gcc/x86_64-linux-gnu/4.6/../../../../lib/librte_pmd_e1000.a(e1000_phy.o)
                                                  /usr/lib/gcc/x86_64-linux-gnu/4.6/../../../../lib/librte_pmd_e1000.a(e1000_ich8lan.o)
e1000_write_phy_reg_m88                           /usr/lib/gcc/x86_64-linux-gnu/4.6/../../../../lib/librte_pmd_e1000.a(e1000_phy.o)
                                                  /usr/lib/gcc/x86_64-linux-gnu/4.6/../../../../lib/librte_pmd_e1000.a(e1000_82540.o)
                                                  /usr/lib/gcc/x86_64-linux-gnu/4.6/../../../../lib/librte_pmd_e1000.a(e1000_82571.o)
                                                  /usr/lib/gcc/x86_64-linux-gnu/4.6/../../../../lib/librte_pmd_e1000.a(e1000_82543.o)
e1000_write_phy_reg_mdic                          /usr/lib/gcc/x86_64-linux-gnu/4.6/../../../../lib/librte_pmd_e1000.a(e1000_phy.o)
                                                  /usr/lib/gcc/x86_64-linux-gnu/4.6/../../../../lib/librte_pmd_e1000.a(e1000_80003es2lan.o)
                                                  /usr/lib/gcc/x86_64-linux-gnu/4.6/../../../../lib/librte_pmd_e1000.a(e1000_ich8lan.o)
                                                  /usr/lib/gcc/x86_64-linux-gnu/4.6/../../../../lib/librte_pmd_e1000.a(e1000_82575.o)
e1000_write_phy_reg_page_hv                       /usr/lib/gcc/x86_64-linux-gnu/4.6/../../../../lib/librte_pmd_e1000.a(e1000_phy.o)
                                                  /usr/lib/gcc/x86_64-linux-gnu/4.6/../../../../lib/librte_pmd_e1000.a(e1000_ich8lan.o)
e1000_write_posted_mbx                            /usr/lib/gcc/x86_64-linux-gnu/4.6/../../../../lib/librte_pmd_e1000.a(e1000_mbx.o)
e1000_write_sfp_data_byte                         /usr/lib/gcc/x86_64-linux-gnu/4.6/../../../../lib/librte_pmd_e1000.a(e1000_phy.o)
e1000_write_vfta                                  /usr/lib/gcc/x86_64-linux-gnu/4.6/../../../../lib/librte_pmd_e1000.a(e1000_api.o)
e1000_write_vfta_generic                          /usr/lib/gcc/x86_64-linux-gnu/4.6/../../../../lib/librte_pmd_e1000.a(e1000_mac.o)
                                                  /usr/lib/gcc/x86_64-linux-gnu/4.6/../../../../lib/librte_pmd_e1000.a(e1000_82542.o)
                                                  /usr/lib/gcc/x86_64-linux-gnu/4.6/../../../../lib/librte_pmd_e1000.a(e1000_82540.o)
                                                  /usr/lib/gcc/x86_64-linux-gnu/4.6/../../../../lib/librte_pmd_e1000.a(e1000_80003es2lan.o)
                                                  /usr/lib/gcc/x86_64-linux-gnu/4.6/../../../../lib/librte_pmd_e1000.a(e1000_82575.o)
                                                  /usr/lib/gcc/x86_64-linux-gnu/4.6/../../../../lib/librte_pmd_e1000.a(e1000_82571.o)
                                                  /usr/lib/gcc/x86_64-linux-gnu/4.6/../../../../lib/librte_pmd_e1000.a(e1000_82543.o)
                                                  /usr/lib/gcc/x86_64-linux-gnu/4.6/../../../../lib/librte_pmd_e1000.a(e1000_82541.o)
eaccess                                           /lib/x86_64-linux-gnu/libc.so.6
eaccess@@GLIBC_2.4                                /lib/x86_64-linux-gnu/libc.so.6
eaccess@GLIBC_2.4                                 /lib/x86_64-linux-gnu/libc.so.6
eal_dev_is_whitelisted                            /usr/lib/gcc/x86_64-linux-gnu/4.6/../../../../lib/librte_eal.a(eal_common_whitelist.o)
                                                  /usr/lib/gcc/x86_64-linux-gnu/4.6/../../../../lib/librte_eal.a(eal_common_nonpci_devs.o)
                                                  /usr/lib/gcc/x86_64-linux-gnu/4.6/../../../../lib/librte_eal.a(eal_common_pci.o)
eal_dev_whitelist_add_entry                       /usr/lib/gcc/x86_64-linux-gnu/4.6/../../../../lib/librte_eal.a(eal_common_whitelist.o)
                                                  /usr/lib/gcc/x86_64-linux-gnu/4.6/../../../../lib/librte_eal.a(eal.o)
eal_dev_whitelist_clear                           /usr/lib/gcc/x86_64-linux-gnu/4.6/../../../../lib/librte_eal.a(eal_common_whitelist.o)
eal_dev_whitelist_exists                          /usr/lib/gcc/x86_64-linux-gnu/4.6/../../../../lib/librte_eal.a(eal_common_whitelist.o)
                                                  /usr/lib/gcc/x86_64-linux-gnu/4.6/../../../../lib/librte_eal.a(eal_common_pci.o)
                                                  /usr/lib/gcc/x86_64-linux-gnu/4.6/../../../../lib/librte_eal.a(eal.o)
eal_dev_whitelist_parse                           /usr/lib/gcc/x86_64-linux-gnu/4.6/../../../../lib/librte_eal.a(eal_common_whitelist.o)
                                                  /usr/lib/gcc/x86_64-linux-gnu/4.6/../../../../lib/librte_eal.a(eal.o)
eal_hugepage_info_init                            /usr/lib/gcc/x86_64-linux-gnu/4.6/../../../../lib/librte_eal.a(eal_hugepage_info.o)
                                                  /usr/lib/gcc/x86_64-linux-gnu/4.6/../../../../lib/librte_eal.a(eal.o)
eal_parse_sysfs_value                             /usr/lib/gcc/x86_64-linux-gnu/4.6/../../../../lib/librte_eal.a(eal.o)
                                                  /usr/lib/gcc/x86_64-linux-gnu/4.6/../../../../lib/librte_eal.a(eal_lcore.o)
                                                  /usr/lib/gcc/x86_64-linux-gnu/4.6/../../../../lib/librte_eal.a(eal_pci.o)
                                                  /usr/lib/gcc/x86_64-linux-gnu/4.6/../../../../lib/librte_eal.a(eal_hugepage_info.o)
eal_thread_init_master                            /usr/lib/gcc/x86_64-linux-gnu/4.6/../../../../lib/librte_eal.a(eal_thread.o)
                                                  /usr/lib/gcc/x86_64-linux-gnu/4.6/../../../../lib/librte_eal.a(eal.o)
eal_thread_loop                                   /usr/lib/gcc/x86_64-linux-gnu/4.6/../../../../lib/librte_eal.a(eal_thread.o)
                                                  /usr/lib/gcc/x86_64-linux-gnu/4.6/../../../../lib/librte_eal.a(eal.o)
eal_timer_source                                  /usr/lib/gcc/x86_64-linux-gnu/4.6/../../../../lib/librte_eal.a(eal_timer.o)
em_dev_clear_queues                               /usr/lib/gcc/x86_64-linux-gnu/4.6/../../../../lib/librte_pmd_e1000.a(em_rxtx.o)
                                                  /usr/lib/gcc/x86_64-linux-gnu/4.6/../../../../lib/librte_pmd_e1000.a(em_ethdev.o)
endmntent                                         /lib/x86_64-linux-gnu/libc.so.6
endmntent@@GLIBC_2.2.5                            /lib/x86_64-linux-gnu/libc.so.6
endmntent@GLIBC_2.2.5                             /lib/x86_64-linux-gnu/libc.so.6
endutent                                          /lib/x86_64-linux-gnu/libc.so.6
endutent@@GLIBC_2.2.5                             /lib/x86_64-linux-gnu/libc.so.6
endutent@GLIBC_2.2.5                              /lib/x86_64-linux-gnu/libc.so.6
environ                                           /lib/x86_64-linux-gnu/libc.so.6
environ@@GLIBC_2.2.5                              /lib/x86_64-linux-gnu/libc.so.6
environ@GLIBC_2.2.5                               /lib/x86_64-linux-gnu/libc.so.6
epoll_create                                      /lib/x86_64-linux-gnu/libc.so.6
                                                  /usr/lib/gcc/x86_64-linux-gnu/4.6/../../../../lib/librte_eal.a(eal_interrupts.o)
epoll_create@@GLIBC_2.3.2                         /lib/x86_64-linux-gnu/libc.so.6
epoll_create@GLIBC_2.3.2                          /lib/x86_64-linux-gnu/libc.so.6
epoll_ctl                                         /lib/x86_64-linux-gnu/libc.so.6
                                                  /usr/lib/gcc/x86_64-linux-gnu/4.6/../../../../lib/librte_eal.a(eal_interrupts.o)
epoll_ctl@@GLIBC_2.3.2                            /lib/x86_64-linux-gnu/libc.so.6
epoll_ctl@GLIBC_2.3.2                             /lib/x86_64-linux-gnu/libc.so.6
epoll_wait                                        /lib/x86_64-linux-gnu/libc.so.6
                                                  /usr/lib/gcc/x86_64-linux-gnu/4.6/../../../../lib/librte_eal.a(eal_interrupts.o)
epoll_wait@@GLIBC_2.3.2                           /lib/x86_64-linux-gnu/libc.so.6
epoll_wait@GLIBC_2.3.2                            /lib/x86_64-linux-gnu/libc.so.6
erand48_r                                         /lib/x86_64-linux-gnu/libc.so.6
erand48_r@@GLIBC_2.2.5                            /lib/x86_64-linux-gnu/libc.so.6
erand48_r@GLIBC_2.2.5                             /lib/x86_64-linux-gnu/libc.so.6
error                                             /lib/x86_64-linux-gnu/libc.so.6
error@@GLIBC_2.2.5                                /lib/x86_64-linux-gnu/libc.so.6
error@GLIBC_2.2.5                                 /lib/x86_64-linux-gnu/libc.so.6
error_at_line                                     /lib/x86_64-linux-gnu/libc.so.6
error_at_line@@GLIBC_2.2.5                        /lib/x86_64-linux-gnu/libc.so.6
error_at_line@GLIBC_2.2.5                         /lib/x86_64-linux-gnu/libc.so.6
eth_em_recv_pkts                                  /usr/lib/gcc/x86_64-linux-gnu/4.6/../../../../lib/librte_pmd_e1000.a(em_rxtx.o)
                                                  /usr/lib/gcc/x86_64-linux-gnu/4.6/../../../../lib/librte_pmd_e1000.a(em_ethdev.o)
eth_em_recv_scattered_pkts                        /usr/lib/gcc/x86_64-linux-gnu/4.6/../../../../lib/librte_pmd_e1000.a(em_rxtx.o)
                                                  /usr/lib/gcc/x86_64-linux-gnu/4.6/../../../../lib/librte_pmd_e1000.a(em_ethdev.o)
eth_em_rx_descriptor_done                         /usr/lib/gcc/x86_64-linux-gnu/4.6/../../../../lib/librte_pmd_e1000.a(em_rxtx.o)
                                                  /usr/lib/gcc/x86_64-linux-gnu/4.6/../../../../lib/librte_pmd_e1000.a(em_ethdev.o)
eth_em_rx_init                                    /usr/lib/gcc/x86_64-linux-gnu/4.6/../../../../lib/librte_pmd_e1000.a(em_rxtx.o)
                                                  /usr/lib/gcc/x86_64-linux-gnu/4.6/../../../../lib/librte_pmd_e1000.a(em_ethdev.o)
eth_em_rx_queue_count                             /usr/lib/gcc/x86_64-linux-gnu/4.6/../../../../lib/librte_pmd_e1000.a(em_rxtx.o)
                                                  /usr/lib/gcc/x86_64-linux-gnu/4.6/../../../../lib/librte_pmd_e1000.a(em_ethdev.o)
eth_em_rx_queue_release                           /usr/lib/gcc/x86_64-linux-gnu/4.6/../../../../lib/librte_pmd_e1000.a(em_rxtx.o)
                                                  /usr/lib/gcc/x86_64-linux-gnu/4.6/../../../../lib/librte_pmd_e1000.a(em_ethdev.o)
eth_em_rx_queue_setup                             /usr/lib/gcc/x86_64-linux-gnu/4.6/../../../../lib/librte_pmd_e1000.a(em_rxtx.o)
                                                  /usr/lib/gcc/x86_64-linux-gnu/4.6/../../../../lib/librte_pmd_e1000.a(em_ethdev.o)
eth_em_tx_init                                    /usr/lib/gcc/x86_64-linux-gnu/4.6/../../../../lib/librte_pmd_e1000.a(em_rxtx.o)
                                                  /usr/lib/gcc/x86_64-linux-gnu/4.6/../../../../lib/librte_pmd_e1000.a(em_ethdev.o)
eth_em_tx_queue_release                           /usr/lib/gcc/x86_64-linux-gnu/4.6/../../../../lib/librte_pmd_e1000.a(em_rxtx.o)
                                                  /usr/lib/gcc/x86_64-linux-gnu/4.6/../../../../lib/librte_pmd_e1000.a(em_ethdev.o)
eth_em_tx_queue_setup                             /usr/lib/gcc/x86_64-linux-gnu/4.6/../../../../lib/librte_pmd_e1000.a(em_rxtx.o)
                                                  /usr/lib/gcc/x86_64-linux-gnu/4.6/../../../../lib/librte_pmd_e1000.a(em_ethdev.o)
eth_em_xmit_pkts                                  /usr/lib/gcc/x86_64-linux-gnu/4.6/../../../../lib/librte_pmd_e1000.a(em_rxtx.o)
                                                  /usr/lib/gcc/x86_64-linux-gnu/4.6/../../../../lib/librte_pmd_e1000.a(em_ethdev.o)
eth_igb_recv_pkts                                 /usr/lib/gcc/x86_64-linux-gnu/4.6/../../../../lib/librte_pmd_e1000.a(igb_rxtx.o)
                                                  /usr/lib/gcc/x86_64-linux-gnu/4.6/../../../../lib/librte_pmd_e1000.a(igb_ethdev.o)
eth_igb_recv_scattered_pkts                       /usr/lib/gcc/x86_64-linux-gnu/4.6/../../../../lib/librte_pmd_e1000.a(igb_rxtx.o)
                                                  /usr/lib/gcc/x86_64-linux-gnu/4.6/../../../../lib/librte_pmd_e1000.a(igb_ethdev.o)
eth_igb_rx_descriptor_done                        /usr/lib/gcc/x86_64-linux-gnu/4.6/../../../../lib/librte_pmd_e1000.a(igb_rxtx.o)
                                                  /usr/lib/gcc/x86_64-linux-gnu/4.6/../../../../lib/librte_pmd_e1000.a(igb_ethdev.o)
eth_igb_rx_init                                   /usr/lib/gcc/x86_64-linux-gnu/4.6/../../../../lib/librte_pmd_e1000.a(igb_rxtx.o)
                                                  /usr/lib/gcc/x86_64-linux-gnu/4.6/../../../../lib/librte_pmd_e1000.a(igb_ethdev.o)
eth_igb_rx_queue_count                            /usr/lib/gcc/x86_64-linux-gnu/4.6/../../../../lib/librte_pmd_e1000.a(igb_rxtx.o)
                                                  /usr/lib/gcc/x86_64-linux-gnu/4.6/../../../../lib/librte_pmd_e1000.a(igb_ethdev.o)
eth_igb_rx_queue_release                          /usr/lib/gcc/x86_64-linux-gnu/4.6/../../../../lib/librte_pmd_e1000.a(igb_rxtx.o)
                                                  /usr/lib/gcc/x86_64-linux-gnu/4.6/../../../../lib/librte_pmd_e1000.a(igb_ethdev.o)
eth_igb_rx_queue_setup                            /usr/lib/gcc/x86_64-linux-gnu/4.6/../../../../lib/librte_pmd_e1000.a(igb_rxtx.o)
                                                  /usr/lib/gcc/x86_64-linux-gnu/4.6/../../../../lib/librte_pmd_e1000.a(igb_ethdev.o)
eth_igb_tx_init                                   /usr/lib/gcc/x86_64-linux-gnu/4.6/../../../../lib/librte_pmd_e1000.a(igb_rxtx.o)
                                                  /usr/lib/gcc/x86_64-linux-gnu/4.6/../../../../lib/librte_pmd_e1000.a(igb_ethdev.o)
eth_igb_tx_queue_release                          /usr/lib/gcc/x86_64-linux-gnu/4.6/../../../../lib/librte_pmd_e1000.a(igb_rxtx.o)
                                                  /usr/lib/gcc/x86_64-linux-gnu/4.6/../../../../lib/librte_pmd_e1000.a(igb_ethdev.o)
eth_igb_tx_queue_setup                            /usr/lib/gcc/x86_64-linux-gnu/4.6/../../../../lib/librte_pmd_e1000.a(igb_rxtx.o)
                                                  /usr/lib/gcc/x86_64-linux-gnu/4.6/../../../../lib/librte_pmd_e1000.a(igb_ethdev.o)
eth_igb_xmit_pkts                                 /usr/lib/gcc/x86_64-linux-gnu/4.6/../../../../lib/librte_pmd_e1000.a(igb_rxtx.o)
                                                  /usr/lib/gcc/x86_64-linux-gnu/4.6/../../../../lib/librte_pmd_e1000.a(igb_ethdev.o)
eth_igbvf_rx_init                                 /usr/lib/gcc/x86_64-linux-gnu/4.6/../../../../lib/librte_pmd_e1000.a(igb_rxtx.o)
                                                  /usr/lib/gcc/x86_64-linux-gnu/4.6/../../../../lib/librte_pmd_e1000.a(igb_ethdev.o)
eth_igbvf_tx_init                                 /usr/lib/gcc/x86_64-linux-gnu/4.6/../../../../lib/librte_pmd_e1000.a(igb_rxtx.o)
                                                  /usr/lib/gcc/x86_64-linux-gnu/4.6/../../../../lib/librte_pmd_e1000.a(igb_ethdev.o)
euidaccess                                        /lib/x86_64-linux-gnu/libc.so.6
euidaccess@@GLIBC_2.2.5                           /lib/x86_64-linux-gnu/libc.so.6
euidaccess@GLIBC_2.2.5                            /lib/x86_64-linux-gnu/libc.so.6
execve                                            /lib/x86_64-linux-gnu/libc.so.6
execve@@GLIBC_2.2.5                               /lib/x86_64-linux-gnu/libc.so.6
execve@GLIBC_2.2.5                                /lib/x86_64-linux-gnu/libc.so.6
execvpe                                           /lib/x86_64-linux-gnu/libc.so.6
execvpe@@GLIBC_2.11                               /lib/x86_64-linux-gnu/libc.so.6
execvpe@GLIBC_2.11                                /lib/x86_64-linux-gnu/libc.so.6
exit                                              /lib/x86_64-linux-gnu/libc.so.6
                                                  /usr/lib/gcc/x86_64-linux-gnu/4.6/../../../../lib/librte_eal.a(eal_debug.o)
                                                  /usr/lib/gcc/x86_64-linux-gnu/4.6/../../../../lib/librte_eal.a(eal.o)
                                                  client.o
                                                  common.o
                                                  main.o
exit@@GLIBC_2.2.5                                 /lib/x86_64-linux-gnu/libc.so.6
exit@GLIBC_2.2.5                                  /lib/x86_64-linux-gnu/libc.so.6
                                                  /lib/x86_64-linux-gnu/libpthread.so.0
fastrand                                          common.o
                                                  client.o
                                                  server.o
fchdir                                            /lib/x86_64-linux-gnu/libc.so.6
fchdir@@GLIBC_2.2.5                               /lib/x86_64-linux-gnu/libc.so.6
fchdir@GLIBC_2.2.5                                /lib/x86_64-linux-gnu/libc.so.6
fchmod                                            /lib/x86_64-linux-gnu/libc.so.6
fchmod@@GLIBC_2.2.5                               /lib/x86_64-linux-gnu/libc.so.6
fchmod@GLIBC_2.2.5                                /lib/x86_64-linux-gnu/libc.so.6
fchown                                            /lib/x86_64-linux-gnu/libc.so.6
fchown@@GLIBC_2.2.5                               /lib/x86_64-linux-gnu/libc.so.6
fchown@GLIBC_2.2.5                                /lib/x86_64-linux-gnu/libc.so.6
fclose                                            /lib/x86_64-linux-gnu/libc.so.6
                                                  /usr/lib/gcc/x86_64-linux-gnu/4.6/../../../../lib/librte_eal.a(eal_pci.o)
                                                  /usr/lib/gcc/x86_64-linux-gnu/4.6/../../../../lib/librte_eal.a(eal_memory.o)
                                                  /usr/lib/gcc/x86_64-linux-gnu/4.6/../../../../lib/librte_eal.a(eal_hugepage_info.o)
                                                  /usr/lib/gcc/x86_64-linux-gnu/4.6/../../../../lib/librte_eal.a(eal.o)
fclose@@GLIBC_2.2.5                               /lib/x86_64-linux-gnu/libc.so.6
fclose@GLIBC_2.2.5                                /lib/x86_64-linux-gnu/libc.so.6
                                                  /lib/x86_64-linux-gnu/libpthread.so.0
fcloseall                                         /lib/x86_64-linux-gnu/libc.so.6
fcloseall@@GLIBC_2.2.5                            /lib/x86_64-linux-gnu/libc.so.6
fcloseall@GLIBC_2.2.5                             /lib/x86_64-linux-gnu/libc.so.6
fcntl                                             /lib/x86_64-linux-gnu/libpthread.so.0
                                                  /usr/lib/gcc/x86_64-linux-gnu/4.6/../../../../lib/librte_eal.a(eal.o)
fcntl@@GLIBC_2.2.5                                /lib/x86_64-linux-gnu/libpthread.so.0
                                                  /lib/x86_64-linux-gnu/libc.so.6
fcntl@GLIBC_2.2.5                                 /lib/x86_64-linux-gnu/libpthread.so.0
                                                  /usr/lib/gcc/x86_64-linux-gnu/4.6/../../../x86_64-linux-gnu/librt.so
fdopendir                                         /lib/x86_64-linux-gnu/libc.so.6
fdopendir@@GLIBC_2.4                              /lib/x86_64-linux-gnu/libc.so.6
fdopendir@GLIBC_2.4                               /lib/x86_64-linux-gnu/libc.so.6
feof                                              /lib/x86_64-linux-gnu/libc.so.6
feof@@GLIBC_2.2.5                                 /lib/x86_64-linux-gnu/libc.so.6
feof@GLIBC_2.2.5                                  /lib/x86_64-linux-gnu/libc.so.6
ferror                                            /lib/x86_64-linux-gnu/libc.so.6
ferror@@GLIBC_2.2.5                               /lib/x86_64-linux-gnu/libc.so.6
ferror@GLIBC_2.2.5                                /lib/x86_64-linux-gnu/libc.so.6
fflush                                            /lib/x86_64-linux-gnu/libc.so.6
                                                  /usr/lib/gcc/x86_64-linux-gnu/4.6/../../../../lib/librte_eal.a(eal_common_hexdump.o)
                                                  /usr/lib/gcc/x86_64-linux-gnu/4.6/../../../../lib/librte_eal.a(eal_common_log.o)
                                                  /usr/lib/gcc/x86_64-linux-gnu/4.6/../../../../lib/librte_eal.a(eal_log.o)
                                                  client.o
                                                  common.o
                                                  main.o
fflush@@GLIBC_2.2.5                               /lib/x86_64-linux-gnu/libc.so.6
fflush@GLIBC_2.2.5                                /lib/x86_64-linux-gnu/libc.so.6
ffsl                                              /lib/x86_64-linux-gnu/libc.so.6
ffsl@@GLIBC_2.2.5                                 /lib/x86_64-linux-gnu/libc.so.6
ffsl@GLIBC_2.2.5                                  /lib/x86_64-linux-gnu/libc.so.6
fgetc                                             /lib/x86_64-linux-gnu/libc.so.6
fgetc@@GLIBC_2.2.5                                /lib/x86_64-linux-gnu/libc.so.6
fgetc@GLIBC_2.2.5                                 /lib/x86_64-linux-gnu/libc.so.6
fgetc_unlocked                                    /lib/x86_64-linux-gnu/libc.so.6
fgetc_unlocked@@GLIBC_2.2.5                       /lib/x86_64-linux-gnu/libc.so.6
fgetc_unlocked@GLIBC_2.2.5                        /lib/x86_64-linux-gnu/libc.so.6
fgetgrent_r                                       /lib/x86_64-linux-gnu/libc.so.6
fgetgrent_r@@GLIBC_2.2.5                          /lib/x86_64-linux-gnu/libc.so.6
fgetgrent_r@GLIBC_2.2.5                           /lib/x86_64-linux-gnu/libc.so.6
fgetpwent_r                                       /lib/x86_64-linux-gnu/libc.so.6
fgetpwent_r@@GLIBC_2.2.5                          /lib/x86_64-linux-gnu/libc.so.6
fgetpwent_r@GLIBC_2.2.5                           /lib/x86_64-linux-gnu/libc.so.6
fgets                                             /lib/x86_64-linux-gnu/libc.so.6
                                                  /usr/lib/gcc/x86_64-linux-gnu/4.6/../../../../lib/librte_eal.a(eal_pci.o)
                                                  /usr/lib/gcc/x86_64-linux-gnu/4.6/../../../../lib/librte_eal.a(eal_memory.o)
                                                  /usr/lib/gcc/x86_64-linux-gnu/4.6/../../../../lib/librte_eal.a(eal_hugepage_info.o)
                                                  /usr/lib/gcc/x86_64-linux-gnu/4.6/../../../../lib/librte_eal.a(eal.o)
fgets@@GLIBC_2.2.5                                /lib/x86_64-linux-gnu/libc.so.6
fgets@GLIBC_2.2.5                                 /lib/x86_64-linux-gnu/libc.so.6
fgetsgent_r                                       /lib/x86_64-linux-gnu/libc.so.6
fgetsgent_r@@GLIBC_2.10                           /lib/x86_64-linux-gnu/libc.so.6
fgetsgent_r@GLIBC_2.10                            /lib/x86_64-linux-gnu/libc.so.6
fgetspent_r                                       /lib/x86_64-linux-gnu/libc.so.6
fgetspent_r@@GLIBC_2.2.5                          /lib/x86_64-linux-gnu/libc.so.6
fgetspent_r@GLIBC_2.2.5                           /lib/x86_64-linux-gnu/libc.so.6
fgetwc                                            /lib/x86_64-linux-gnu/libc.so.6
fgetwc@@GLIBC_2.2.5                               /lib/x86_64-linux-gnu/libc.so.6
fgetwc@GLIBC_2.2.5                                /lib/x86_64-linux-gnu/libc.so.6
fgetwc_unlocked                                   /lib/x86_64-linux-gnu/libc.so.6
fgetwc_unlocked@@GLIBC_2.2.5                      /lib/x86_64-linux-gnu/libc.so.6
fgetwc_unlocked@GLIBC_2.2.5                       /lib/x86_64-linux-gnu/libc.so.6
fileno_unlocked                                   /lib/x86_64-linux-gnu/libc.so.6
fileno_unlocked@@GLIBC_2.2.5                      /lib/x86_64-linux-gnu/libc.so.6
fileno_unlocked@GLIBC_2.2.5                       /lib/x86_64-linux-gnu/libc.so.6
finite                                            /lib/x86_64-linux-gnu/libc.so.6
finite@@GLIBC_2.2.5                               /lib/x86_64-linux-gnu/libc.so.6
finite@GLIBC_2.2.5                                /lib/x86_64-linux-gnu/libc.so.6
finitef                                           /lib/x86_64-linux-gnu/libc.so.6
finitef@@GLIBC_2.2.5                              /lib/x86_64-linux-gnu/libc.so.6
finitef@GLIBC_2.2.5                               /lib/x86_64-linux-gnu/libc.so.6
finitel                                           /lib/x86_64-linux-gnu/libc.so.6
finitel@@GLIBC_2.2.5                              /lib/x86_64-linux-gnu/libc.so.6
finitel@GLIBC_2.2.5                               /lib/x86_64-linux-gnu/libc.so.6
flock                                             /lib/x86_64-linux-gnu/libc.so.6
                                                  /usr/lib/gcc/x86_64-linux-gnu/4.6/../../../../lib/librte_eal.a(eal_memory.o)
                                                  /usr/lib/gcc/x86_64-linux-gnu/4.6/../../../../lib/librte_eal.a(eal_hugepage_info.o)
                                                  /usr/lib/gcc/x86_64-linux-gnu/4.6/../../../../lib/librte_eal.a(eal.o)
flock@@GLIBC_2.2.5                                /lib/x86_64-linux-gnu/libc.so.6
flock@GLIBC_2.2.5                                 /lib/x86_64-linux-gnu/libc.so.6
flockfile                                         /lib/x86_64-linux-gnu/libpthread.so.0
flockfile@@GLIBC_2.2.5                            /lib/x86_64-linux-gnu/libpthread.so.0
                                                  /lib/x86_64-linux-gnu/libc.so.6
flockfile@GLIBC_2.2.5                             /lib/x86_64-linux-gnu/libpthread.so.0
fnmatch                                           /lib/x86_64-linux-gnu/libc.so.6
                                                  /usr/lib/gcc/x86_64-linux-gnu/4.6/../../../../lib/librte_eal.a(eal_hugepage_info.o)
fnmatch@@GLIBC_2.2.5                              /lib/x86_64-linux-gnu/libc.so.6
fnmatch@GLIBC_2.2.5                               /lib/x86_64-linux-gnu/libc.so.6
fopen                                             /lib/x86_64-linux-gnu/libc.so.6
                                                  /usr/lib/gcc/x86_64-linux-gnu/4.6/../../../../lib/librte_eal.a(eal_pci.o)
                                                  /usr/lib/gcc/x86_64-linux-gnu/4.6/../../../../lib/librte_eal.a(eal_memory.o)
                                                  /usr/lib/gcc/x86_64-linux-gnu/4.6/../../../../lib/librte_eal.a(eal_hugepage_info.o)
                                                  /usr/lib/gcc/x86_64-linux-gnu/4.6/../../../../lib/librte_eal.a(eal.o)
fopen64                                           /lib/x86_64-linux-gnu/libc.so.6
fopen64@@GLIBC_2.2.5                              /lib/x86_64-linux-gnu/libc.so.6
fopen64@GLIBC_2.2.5                               /lib/x86_64-linux-gnu/libc.so.6
fopen@@GLIBC_2.2.5                                /lib/x86_64-linux-gnu/libc.so.6
fopen@GLIBC_2.2.5                                 /lib/x86_64-linux-gnu/libc.so.6
                                                  /lib/x86_64-linux-gnu/libpthread.so.0
fopencookie                                       /lib/x86_64-linux-gnu/libc.so.6
                                                  /usr/lib/gcc/x86_64-linux-gnu/4.6/../../../../lib/librte_eal.a(eal_common_log.o)
                                                  /usr/lib/gcc/x86_64-linux-gnu/4.6/../../../../lib/librte_eal.a(eal_log.o)
fopencookie@@GLIBC_2.2.5                          /lib/x86_64-linux-gnu/libc.so.6
fopencookie@GLIBC_2.2.5                           /lib/x86_64-linux-gnu/libc.so.6
fpathconf                                         /lib/x86_64-linux-gnu/libc.so.6
fpathconf@@GLIBC_2.2.5                            /lib/x86_64-linux-gnu/libc.so.6
fpathconf@GLIBC_2.2.5                             /lib/x86_64-linux-gnu/libc.so.6
fputs                                             /lib/x86_64-linux-gnu/libc.so.6
fputs@@GLIBC_2.2.5                                /lib/x86_64-linux-gnu/libc.so.6
fputs@GLIBC_2.2.5                                 /lib/x86_64-linux-gnu/libc.so.6
fread                                             /lib/x86_64-linux-gnu/libc.so.6
fread@@GLIBC_2.2.5                                /lib/x86_64-linux-gnu/libc.so.6
fread@GLIBC_2.2.5                                 /lib/x86_64-linux-gnu/libc.so.6
free                                              /lib/x86_64-linux-gnu/libc.so.6
                                                  /usr/lib/gcc/x86_64-linux-gnu/4.6/../../../../lib/librte_eal.a(eal_pci.o)
                                                  /usr/lib/gcc/x86_64-linux-gnu/4.6/../../../../lib/librte_eal.a(eal_memory.o)
free@@GLIBC_2.2.5                                 /lib/x86_64-linux-gnu/libc.so.6
                                                  /lib/x86_64-linux-gnu/ld-linux-x86-64.so.2
free@GLIBC_2.2.5                                  /lib/x86_64-linux-gnu/libc.so.6
                                                  /lib/x86_64-linux-gnu/libpthread.so.0
                                                  /usr/lib/gcc/x86_64-linux-gnu/4.6/../../../x86_64-linux-gnu/librt.so
freelocale                                        /lib/x86_64-linux-gnu/libc.so.6
freelocale@@GLIBC_2.3                             /lib/x86_64-linux-gnu/libc.so.6
freelocale@GLIBC_2.3                              /lib/x86_64-linux-gnu/libc.so.6
frexp                                             /lib/x86_64-linux-gnu/libc.so.6
frexp@@GLIBC_2.2.5                                /lib/x86_64-linux-gnu/libc.so.6
frexp@GLIBC_2.2.5                                 /lib/x86_64-linux-gnu/libc.so.6
frexpf                                            /lib/x86_64-linux-gnu/libc.so.6
frexpf@@GLIBC_2.2.5                               /lib/x86_64-linux-gnu/libc.so.6
frexpf@GLIBC_2.2.5                                /lib/x86_64-linux-gnu/libc.so.6
frexpl                                            /lib/x86_64-linux-gnu/libc.so.6
frexpl@@GLIBC_2.2.5                               /lib/x86_64-linux-gnu/libc.so.6
frexpl@GLIBC_2.2.5                                /lib/x86_64-linux-gnu/libc.so.6
fseeko64                                          /lib/x86_64-linux-gnu/libc.so.6
fseeko64@@GLIBC_2.2.5                             /lib/x86_64-linux-gnu/libc.so.6
fseeko64@GLIBC_2.2.5                              /lib/x86_64-linux-gnu/libc.so.6
fstatfs                                           /lib/x86_64-linux-gnu/libc.so.6
fstatfs64                                         /lib/x86_64-linux-gnu/libc.so.6
fstatfs64@@GLIBC_2.2.5                            /lib/x86_64-linux-gnu/libc.so.6
fstatfs64@GLIBC_2.2.5                             /lib/x86_64-linux-gnu/libc.so.6
fstatfs@@GLIBC_2.2.5                              /lib/x86_64-linux-gnu/libc.so.6
fstatfs@GLIBC_2.2.5                               /lib/x86_64-linux-gnu/libc.so.6
fstatvfs64                                        /lib/x86_64-linux-gnu/libc.so.6
fstatvfs64@@GLIBC_2.2.5                           /lib/x86_64-linux-gnu/libc.so.6
fstatvfs64@GLIBC_2.2.5                            /lib/x86_64-linux-gnu/libc.so.6
fsync                                             /lib/x86_64-linux-gnu/libpthread.so.0
fsync@@GLIBC_2.2.5                                /lib/x86_64-linux-gnu/libpthread.so.0
                                                  /lib/x86_64-linux-gnu/libc.so.6
fsync@GLIBC_2.2.5                                 /lib/x86_64-linux-gnu/libpthread.so.0
                                                  /usr/lib/gcc/x86_64-linux-gnu/4.6/../../../x86_64-linux-gnu/librt.so
ftell                                             /lib/x86_64-linux-gnu/libc.so.6
ftell@@GLIBC_2.2.5                                /lib/x86_64-linux-gnu/libc.so.6
ftell@GLIBC_2.2.5                                 /lib/x86_64-linux-gnu/libc.so.6
ftello64                                          /lib/x86_64-linux-gnu/libc.so.6
ftello64@@GLIBC_2.2.5                             /lib/x86_64-linux-gnu/libc.so.6
ftello64@GLIBC_2.2.5                              /lib/x86_64-linux-gnu/libc.so.6
ftruncate                                         /lib/x86_64-linux-gnu/libc.so.6
                                                  /usr/lib/gcc/x86_64-linux-gnu/4.6/../../../../lib/librte_eal.a(eal_memory.o)
                                                  /usr/lib/gcc/x86_64-linux-gnu/4.6/../../../../lib/librte_eal.a(eal.o)
ftruncate64                                       /lib/x86_64-linux-gnu/libc.so.6
ftruncate64@@GLIBC_2.2.5                          /lib/x86_64-linux-gnu/libc.so.6
ftruncate64@GLIBC_2.2.5                           /lib/x86_64-linux-gnu/libc.so.6
ftruncate@@GLIBC_2.2.5                            /lib/x86_64-linux-gnu/libc.so.6
ftruncate@GLIBC_2.2.5                             /lib/x86_64-linux-gnu/libc.so.6
ftrylockfile                                      /lib/x86_64-linux-gnu/libpthread.so.0
ftrylockfile@@GLIBC_2.2.5                         /lib/x86_64-linux-gnu/libpthread.so.0
                                                  /lib/x86_64-linux-gnu/libc.so.6
ftrylockfile@GLIBC_2.2.5                          /lib/x86_64-linux-gnu/libpthread.so.0
ftw64                                             /lib/x86_64-linux-gnu/libc.so.6
ftw64@@GLIBC_2.2.5                                /lib/x86_64-linux-gnu/libc.so.6
ftw64@GLIBC_2.2.5                                 /lib/x86_64-linux-gnu/libc.so.6
funlockfile                                       /lib/x86_64-linux-gnu/libpthread.so.0
funlockfile@@GLIBC_2.2.5                          /lib/x86_64-linux-gnu/libpthread.so.0
                                                  /lib/x86_64-linux-gnu/libc.so.6
funlockfile@GLIBC_2.2.5                           /lib/x86_64-linux-gnu/libpthread.so.0
futimes                                           /lib/x86_64-linux-gnu/libc.so.6
futimes@@GLIBC_2.3                                /lib/x86_64-linux-gnu/libc.so.6
futimes@GLIBC_2.3                                 /lib/x86_64-linux-gnu/libc.so.6
fwprintf                                          /lib/x86_64-linux-gnu/libc.so.6
fwprintf@@GLIBC_2.2.5                             /lib/x86_64-linux-gnu/libc.so.6
fwprintf@GLIBC_2.2.5                              /lib/x86_64-linux-gnu/libc.so.6
fwrite                                            /lib/x86_64-linux-gnu/libc.so.6
                                                  /usr/lib/gcc/x86_64-linux-gnu/4.6/../../../../lib/librte_eal.a(eal_common_log.o)
                                                  /usr/lib/gcc/x86_64-linux-gnu/4.6/../../../../lib/librte_eal.a(eal_log.o)
                                                  common.o
fwrite@@GLIBC_2.2.5                               /lib/x86_64-linux-gnu/libc.so.6
fwrite@GLIBC_2.2.5                                /lib/x86_64-linux-gnu/libc.so.6
get_active_ports                                  common.o
                                                  server.o
get_avphys_pages                                  /lib/x86_64-linux-gnu/libc.so.6
get_avphys_pages@@GLIBC_2.2.5                     /lib/x86_64-linux-gnu/libc.so.6
get_avphys_pages@GLIBC_2.2.5                      /lib/x86_64-linux-gnu/libc.so.6
get_lcore_rank                                    common.o
                                                  server.o
get_lcore_ranked_n                                common.o
                                                  main.o
get_nprocs                                        /lib/x86_64-linux-gnu/libc.so.6
get_nprocs@@GLIBC_2.2.5                           /lib/x86_64-linux-gnu/libc.so.6
get_nprocs@GLIBC_2.2.5                            /lib/x86_64-linux-gnu/libc.so.6
get_nprocs_conf                                   /lib/x86_64-linux-gnu/libc.so.6
get_nprocs_conf@@GLIBC_2.2.5                      /lib/x86_64-linux-gnu/libc.so.6
get_nprocs_conf@GLIBC_2.2.5                       /lib/x86_64-linux-gnu/libc.so.6
get_phys_pages                                    /lib/x86_64-linux-gnu/libc.so.6
get_phys_pages@@GLIBC_2.2.5                       /lib/x86_64-linux-gnu/libc.so.6
get_phys_pages@GLIBC_2.2.5                        /lib/x86_64-linux-gnu/libc.so.6
get_socket_id_from_macaddr                        common.o
                                                  main.o
getc                                              /lib/x86_64-linux-gnu/libc.so.6
getc@@GLIBC_2.2.5                                 /lib/x86_64-linux-gnu/libc.so.6
getc@GLIBC_2.2.5                                  /lib/x86_64-linux-gnu/libc.so.6
getc_unlocked                                     /lib/x86_64-linux-gnu/libc.so.6
getc_unlocked@@GLIBC_2.2.5                        /lib/x86_64-linux-gnu/libc.so.6
getc_unlocked@GLIBC_2.2.5                         /lib/x86_64-linux-gnu/libc.so.6
getcontext                                        /lib/x86_64-linux-gnu/libc.so.6
getcontext@@GLIBC_2.2.5                           /lib/x86_64-linux-gnu/libc.so.6
getcontext@GLIBC_2.2.5                            /lib/x86_64-linux-gnu/libc.so.6
getcwd                                            /lib/x86_64-linux-gnu/libc.so.6
getcwd@@GLIBC_2.2.5                               /lib/x86_64-linux-gnu/libc.so.6
getcwd@GLIBC_2.2.5                                /lib/x86_64-linux-gnu/libc.so.6
getdate_r                                         /lib/x86_64-linux-gnu/libc.so.6
getdate_r@@GLIBC_2.2.5                            /lib/x86_64-linux-gnu/libc.so.6
getdate_r@GLIBC_2.2.5                             /lib/x86_64-linux-gnu/libc.so.6
getdelim                                          /lib/x86_64-linux-gnu/libc.so.6
getdelim@@GLIBC_2.2.5                             /lib/x86_64-linux-gnu/libc.so.6
getdelim@GLIBC_2.2.5                              /lib/x86_64-linux-gnu/libc.so.6
getdirentries64                                   /lib/x86_64-linux-gnu/libc.so.6
getdirentries64@@GLIBC_2.2.5                      /lib/x86_64-linux-gnu/libc.so.6
getdirentries64@GLIBC_2.2.5                       /lib/x86_64-linux-gnu/libc.so.6
getdtablesize                                     /lib/x86_64-linux-gnu/libc.so.6
getdtablesize@@GLIBC_2.2.5                        /lib/x86_64-linux-gnu/libc.so.6
getdtablesize@GLIBC_2.2.5                         /lib/x86_64-linux-gnu/libc.so.6
getegid                                           /lib/x86_64-linux-gnu/libc.so.6
getegid@@GLIBC_2.2.5                              /lib/x86_64-linux-gnu/libc.so.6
getegid@GLIBC_2.2.5                               /lib/x86_64-linux-gnu/libc.so.6
getenv                                            /lib/x86_64-linux-gnu/libc.so.6
                                                  /usr/lib/gcc/x86_64-linux-gnu/4.6/../../../../lib/librte_eal.a(eal_memory.o)
                                                  /usr/lib/gcc/x86_64-linux-gnu/4.6/../../../../lib/librte_eal.a(eal.o)
getenv@@GLIBC_2.2.5                               /lib/x86_64-linux-gnu/libc.so.6
getenv@GLIBC_2.2.5                                /lib/x86_64-linux-gnu/libc.so.6
geteuid                                           /lib/x86_64-linux-gnu/libc.so.6
geteuid@@GLIBC_2.2.5                              /lib/x86_64-linux-gnu/libc.so.6
geteuid@GLIBC_2.2.5                               /lib/x86_64-linux-gnu/libc.so.6
getgid                                            /lib/x86_64-linux-gnu/libc.so.6
getgid@@GLIBC_2.2.5                               /lib/x86_64-linux-gnu/libc.so.6
getgid@GLIBC_2.2.5                                /lib/x86_64-linux-gnu/libc.so.6
getgroups                                         /lib/x86_64-linux-gnu/libc.so.6
getgroups@@GLIBC_2.2.5                            /lib/x86_64-linux-gnu/libc.so.6
getgroups@GLIBC_2.2.5                             /lib/x86_64-linux-gnu/libc.so.6
gethostname                                       /lib/x86_64-linux-gnu/libc.so.6
gethostname@@GLIBC_2.2.5                          /lib/x86_64-linux-gnu/libc.so.6
gethostname@GLIBC_2.2.5                           /lib/x86_64-linux-gnu/libc.so.6
getitimer                                         /lib/x86_64-linux-gnu/libc.so.6
getitimer@@GLIBC_2.2.5                            /lib/x86_64-linux-gnu/libc.so.6
getitimer@GLIBC_2.2.5                             /lib/x86_64-linux-gnu/libc.so.6
getline                                           /lib/x86_64-linux-gnu/libc.so.6
getline@@GLIBC_2.2.5                              /lib/x86_64-linux-gnu/libc.so.6
getline@GLIBC_2.2.5                               /lib/x86_64-linux-gnu/libc.so.6
getmntent_r                                       /lib/x86_64-linux-gnu/libc.so.6
getmntent_r@@GLIBC_2.2.5                          /lib/x86_64-linux-gnu/libc.so.6
getmntent_r@GLIBC_2.2.5                           /lib/x86_64-linux-gnu/libc.so.6
getnetgrent_r                                     /lib/x86_64-linux-gnu/libc.so.6
getnetgrent_r@@GLIBC_2.2.5                        /lib/x86_64-linux-gnu/libc.so.6
getnetgrent_r@GLIBC_2.2.5                         /lib/x86_64-linux-gnu/libc.so.6
getopt_long                                       /lib/x86_64-linux-gnu/libc.so.6
                                                  /usr/lib/gcc/x86_64-linux-gnu/4.6/../../../../lib/librte_eal.a(eal.o)
getopt_long@@GLIBC_2.2.5                          /lib/x86_64-linux-gnu/libc.so.6
getopt_long@GLIBC_2.2.5                           /lib/x86_64-linux-gnu/libc.so.6
getpagesize                                       /lib/x86_64-linux-gnu/libc.so.6
                                                  /usr/lib/gcc/x86_64-linux-gnu/4.6/../../../../lib/librte_eal.a(eal_memory.o)
getpagesize@@GLIBC_2.2.5                          /lib/x86_64-linux-gnu/libc.so.6
getpagesize@GLIBC_2.2.5                           /lib/x86_64-linux-gnu/libc.so.6
getpeername                                       /lib/x86_64-linux-gnu/libc.so.6
getpeername@@GLIBC_2.2.5                          /lib/x86_64-linux-gnu/libc.so.6
getpeername@GLIBC_2.2.5                           /lib/x86_64-linux-gnu/libc.so.6
getpgid                                           /lib/x86_64-linux-gnu/libc.so.6
getpgid@@GLIBC_2.2.5                              /lib/x86_64-linux-gnu/libc.so.6
getpgid@GLIBC_2.2.5                               /lib/x86_64-linux-gnu/libc.so.6
getppid                                           /lib/x86_64-linux-gnu/libc.so.6
getppid@@GLIBC_2.2.5                              /lib/x86_64-linux-gnu/libc.so.6
getppid@GLIBC_2.2.5                               /lib/x86_64-linux-gnu/libc.so.6
getpt                                             /lib/x86_64-linux-gnu/libc.so.6
getpt@@GLIBC_2.2.5                                /lib/x86_64-linux-gnu/libc.so.6
getpt@GLIBC_2.2.5                                 /lib/x86_64-linux-gnu/libc.so.6
getpw                                             /lib/x86_64-linux-gnu/libc.so.6
getpw@@GLIBC_2.2.5                                /lib/x86_64-linux-gnu/libc.so.6
getpw@GLIBC_2.2.5                                 /lib/x86_64-linux-gnu/libc.so.6
getrlimit                                         /lib/x86_64-linux-gnu/libc.so.6
getrlimit64                                       /lib/x86_64-linux-gnu/libc.so.6
getrlimit64@@GLIBC_2.2.5                          /lib/x86_64-linux-gnu/libc.so.6
getrlimit64@GLIBC_2.2.5                           /lib/x86_64-linux-gnu/libc.so.6
getrlimit@@GLIBC_2.2.5                            /lib/x86_64-linux-gnu/libc.so.6
getrlimit@GLIBC_2.2.5                             /lib/x86_64-linux-gnu/libc.so.6
                                                  /lib/x86_64-linux-gnu/libpthread.so.0
getrusage                                         /lib/x86_64-linux-gnu/libc.so.6
getrusage@@GLIBC_2.2.5                            /lib/x86_64-linux-gnu/libc.so.6
getrusage@GLIBC_2.2.5                             /lib/x86_64-linux-gnu/libc.so.6
gets                                              /lib/x86_64-linux-gnu/libc.so.6
gets@@GLIBC_2.2.5                                 /lib/x86_64-linux-gnu/libc.so.6
gets@GLIBC_2.2.5                                  /lib/x86_64-linux-gnu/libc.so.6
getsockname                                       /lib/x86_64-linux-gnu/libc.so.6
getsockname@@GLIBC_2.2.5                          /lib/x86_64-linux-gnu/libc.so.6
getsockname@GLIBC_2.2.5                           /lib/x86_64-linux-gnu/libc.so.6
getsockopt                                        /lib/x86_64-linux-gnu/libc.so.6
getsockopt@@GLIBC_2.2.5                           /lib/x86_64-linux-gnu/libc.so.6
getsockopt@GLIBC_2.2.5                            /lib/x86_64-linux-gnu/libc.so.6
gettext                                           /lib/x86_64-linux-gnu/libc.so.6
gettext@@GLIBC_2.2.5                              /lib/x86_64-linux-gnu/libc.so.6
gettext@GLIBC_2.2.5                               /lib/x86_64-linux-gnu/libc.so.6
gettimeofday                                      /lib/x86_64-linux-gnu/libc.so.6
                                                  /usr/lib/gcc/x86_64-linux-gnu/4.6/../../../../lib/librte_eal.a(eal_alarm.o)
gettimeofday@@GLIBC_2.2.5                         /lib/x86_64-linux-gnu/libc.so.6
gettimeofday@GLIBC_2.2.5                          /lib/x86_64-linux-gnu/libc.so.6
                                                  /usr/lib/gcc/x86_64-linux-gnu/4.6/../../../x86_64-linux-gnu/librt.so
getuid                                            /lib/x86_64-linux-gnu/libc.so.6
                                                  /usr/lib/gcc/x86_64-linux-gnu/4.6/../../../../lib/librte_eal.a(eal_memory.o)
                                                  /usr/lib/gcc/x86_64-linux-gnu/4.6/../../../../lib/librte_eal.a(eal.o)
getuid@@GLIBC_2.2.5                               /lib/x86_64-linux-gnu/libc.so.6
getuid@GLIBC_2.2.5                                /lib/x86_64-linux-gnu/libc.so.6
                                                  /lib/x86_64-linux-gnu/libpthread.so.0
                                                  /usr/lib/gcc/x86_64-linux-gnu/4.6/../../../x86_64-linux-gnu/librt.so
getutent                                          /lib/x86_64-linux-gnu/libc.so.6
getutent@@GLIBC_2.2.5                             /lib/x86_64-linux-gnu/libc.so.6
getutent@GLIBC_2.2.5                              /lib/x86_64-linux-gnu/libc.so.6
getutent_r                                        /lib/x86_64-linux-gnu/libc.so.6
getutent_r@@GLIBC_2.2.5                           /lib/x86_64-linux-gnu/libc.so.6
getutent_r@GLIBC_2.2.5                            /lib/x86_64-linux-gnu/libc.so.6
getutid                                           /lib/x86_64-linux-gnu/libc.so.6
getutid@@GLIBC_2.2.5                              /lib/x86_64-linux-gnu/libc.so.6
getutid@GLIBC_2.2.5                               /lib/x86_64-linux-gnu/libc.so.6
getutid_r                                         /lib/x86_64-linux-gnu/libc.so.6
getutid_r@@GLIBC_2.2.5                            /lib/x86_64-linux-gnu/libc.so.6
getutid_r@GLIBC_2.2.5                             /lib/x86_64-linux-gnu/libc.so.6
getutline                                         /lib/x86_64-linux-gnu/libc.so.6
getutline@@GLIBC_2.2.5                            /lib/x86_64-linux-gnu/libc.so.6
getutline@GLIBC_2.2.5                             /lib/x86_64-linux-gnu/libc.so.6
getutline_r                                       /lib/x86_64-linux-gnu/libc.so.6
getutline_r@@GLIBC_2.2.5                          /lib/x86_64-linux-gnu/libc.so.6
getutline_r@GLIBC_2.2.5                           /lib/x86_64-linux-gnu/libc.so.6
getwc                                             /lib/x86_64-linux-gnu/libc.so.6
getwc@@GLIBC_2.2.5                                /lib/x86_64-linux-gnu/libc.so.6
getwc@GLIBC_2.2.5                                 /lib/x86_64-linux-gnu/libc.so.6
getwc_unlocked                                    /lib/x86_64-linux-gnu/libc.so.6
getwc_unlocked@@GLIBC_2.2.5                       /lib/x86_64-linux-gnu/libc.so.6
getwc_unlocked@GLIBC_2.2.5                        /lib/x86_64-linux-gnu/libc.so.6
glob64                                            /lib/x86_64-linux-gnu/libc.so.6
glob64@@GLIBC_2.2.5                               /lib/x86_64-linux-gnu/libc.so.6
glob64@GLIBC_2.2.5                                /lib/x86_64-linux-gnu/libc.so.6
glob_pattern_p                                    /lib/x86_64-linux-gnu/libc.so.6
glob_pattern_p@@GLIBC_2.2.5                       /lib/x86_64-linux-gnu/libc.so.6
glob_pattern_p@GLIBC_2.2.5                        /lib/x86_64-linux-gnu/libc.so.6
globfree64                                        /lib/x86_64-linux-gnu/libc.so.6
globfree64@@GLIBC_2.2.5                           /lib/x86_64-linux-gnu/libc.so.6
globfree64@GLIBC_2.2.5                            /lib/x86_64-linux-gnu/libc.so.6
gmtime_r                                          /lib/x86_64-linux-gnu/libc.so.6
gmtime_r@@GLIBC_2.2.5                             /lib/x86_64-linux-gnu/libc.so.6
gmtime_r@GLIBC_2.2.5                              /lib/x86_64-linux-gnu/libc.so.6
gnu_get_libc_release                              /lib/x86_64-linux-gnu/libc.so.6
gnu_get_libc_release@@GLIBC_2.2.5                 /lib/x86_64-linux-gnu/libc.so.6
gnu_get_libc_release@GLIBC_2.2.5                  /lib/x86_64-linux-gnu/libc.so.6
gnu_get_libc_version                              /lib/x86_64-linux-gnu/libc.so.6
gnu_get_libc_version@@GLIBC_2.2.5                 /lib/x86_64-linux-gnu/libc.so.6
gnu_get_libc_version@GLIBC_2.2.5                  /lib/x86_64-linux-gnu/libc.so.6
group_member                                      /lib/x86_64-linux-gnu/libc.so.6
group_member@@GLIBC_2.2.5                         /lib/x86_64-linux-gnu/libc.so.6
group_member@GLIBC_2.2.5                          /lib/x86_64-linux-gnu/libc.so.6
gsignal                                           /lib/x86_64-linux-gnu/libc.so.6
gsignal@@GLIBC_2.2.5                              /lib/x86_64-linux-gnu/libc.so.6
gsignal@GLIBC_2.2.5                               /lib/x86_64-linux-gnu/libc.so.6
hasmntopt                                         /lib/x86_64-linux-gnu/libc.so.6
hasmntopt@@GLIBC_2.2.5                            /lib/x86_64-linux-gnu/libc.so.6
hasmntopt@GLIBC_2.2.5                             /lib/x86_64-linux-gnu/libc.so.6
hdestroy                                          /lib/x86_64-linux-gnu/libc.so.6
hdestroy@@GLIBC_2.2.5                             /lib/x86_64-linux-gnu/libc.so.6
hdestroy@GLIBC_2.2.5                              /lib/x86_64-linux-gnu/libc.so.6
ht_log                                            main.o
igb_dev_clear_queues                              /usr/lib/gcc/x86_64-linux-gnu/4.6/../../../../lib/librte_pmd_e1000.a(igb_rxtx.o)
                                                  /usr/lib/gcc/x86_64-linux-gnu/4.6/../../../../lib/librte_pmd_e1000.a(igb_ethdev.o)
igb_pf_host_configure                             /usr/lib/gcc/x86_64-linux-gnu/4.6/../../../../lib/librte_pmd_e1000.a(igb_pf.o)
                                                  /usr/lib/gcc/x86_64-linux-gnu/4.6/../../../../lib/librte_pmd_e1000.a(igb_ethdev.o)
igb_pf_host_init                                  /usr/lib/gcc/x86_64-linux-gnu/4.6/../../../../lib/librte_pmd_e1000.a(igb_pf.o)
                                                  /usr/lib/gcc/x86_64-linux-gnu/4.6/../../../../lib/librte_pmd_e1000.a(igb_ethdev.o)
igb_pf_mbx_process                                /usr/lib/gcc/x86_64-linux-gnu/4.6/../../../../lib/librte_pmd_e1000.a(igb_pf.o)
                                                  /usr/lib/gcc/x86_64-linux-gnu/4.6/../../../../lib/librte_pmd_e1000.a(igb_ethdev.o)
imaxabs                                           /lib/x86_64-linux-gnu/libc.so.6
imaxabs@@GLIBC_2.2.5                              /lib/x86_64-linux-gnu/libc.so.6
imaxabs@GLIBC_2.2.5                               /lib/x86_64-linux-gnu/libc.so.6
imaxdiv                                           /lib/x86_64-linux-gnu/libc.so.6
imaxdiv@@GLIBC_2.2.5                              /lib/x86_64-linux-gnu/libc.so.6
imaxdiv@GLIBC_2.2.5                               /lib/x86_64-linux-gnu/libc.so.6
index                                             /lib/x86_64-linux-gnu/libc.so.6
                                                  /usr/lib/gcc/x86_64-linux-gnu/4.6/../../../../lib/librte_eal.a(eal.o)
index@@GLIBC_2.2.5                                /lib/x86_64-linux-gnu/libc.so.6
index@GLIBC_2.2.5                                 /lib/x86_64-linux-gnu/libc.so.6
inet_aton                                         /lib/x86_64-linux-gnu/libc.so.6
inet_aton@@GLIBC_2.2.5                            /lib/x86_64-linux-gnu/libc.so.6
inet_aton@GLIBC_2.2.5                             /lib/x86_64-linux-gnu/libc.so.6
initstate                                         /lib/x86_64-linux-gnu/libc.so.6
initstate@@GLIBC_2.2.5                            /lib/x86_64-linux-gnu/libc.so.6
initstate@GLIBC_2.2.5                             /lib/x86_64-linux-gnu/libc.so.6
initstate_r                                       /lib/x86_64-linux-gnu/libc.so.6
initstate_r@@GLIBC_2.2.5                          /lib/x86_64-linux-gnu/libc.so.6
initstate_r@GLIBC_2.2.5                           /lib/x86_64-linux-gnu/libc.so.6
internal_config                                   /usr/lib/gcc/x86_64-linux-gnu/4.6/../../../../lib/librte_eal.a(eal_pci.o)
                                                  /usr/lib/gcc/x86_64-linux-gnu/4.6/../../../../lib/librte_eal.a(eal_memory.o)
                                                  /usr/lib/gcc/x86_64-linux-gnu/4.6/../../../../lib/librte_eal.a(eal_hugepage_info.o)
                                                  /usr/lib/gcc/x86_64-linux-gnu/4.6/../../../../lib/librte_eal.a(eal.o)
ioctl                                             /lib/x86_64-linux-gnu/libc.so.6
ioctl@@GLIBC_2.2.5                                /lib/x86_64-linux-gnu/libc.so.6
ioctl@GLIBC_2.2.5                                 /lib/x86_64-linux-gnu/libc.so.6
iopl                                              /lib/x86_64-linux-gnu/libc.so.6
                                                  /usr/lib/gcc/x86_64-linux-gnu/4.6/../../../../lib/librte_eal.a(eal.o)
iopl@@GLIBC_2.2.5                                 /lib/x86_64-linux-gnu/libc.so.6
iopl@GLIBC_2.2.5                                  /lib/x86_64-linux-gnu/libc.so.6
is_client                                         main.o
isalnum_l                                         /lib/x86_64-linux-gnu/libc.so.6
isalnum_l@@GLIBC_2.3                              /lib/x86_64-linux-gnu/libc.so.6
isalnum_l@GLIBC_2.3                               /lib/x86_64-linux-gnu/libc.so.6
isalpha_l                                         /lib/x86_64-linux-gnu/libc.so.6
isalpha_l@@GLIBC_2.3                              /lib/x86_64-linux-gnu/libc.so.6
isalpha_l@GLIBC_2.3                               /lib/x86_64-linux-gnu/libc.so.6
isatty                                            /lib/x86_64-linux-gnu/libc.so.6
isatty@@GLIBC_2.2.5                               /lib/x86_64-linux-gnu/libc.so.6
isatty@GLIBC_2.2.5                                /lib/x86_64-linux-gnu/libc.so.6
isblank_l                                         /lib/x86_64-linux-gnu/libc.so.6
isblank_l@@GLIBC_2.3                              /lib/x86_64-linux-gnu/libc.so.6
isblank_l@GLIBC_2.3                               /lib/x86_64-linux-gnu/libc.so.6
iscntrl_l                                         /lib/x86_64-linux-gnu/libc.so.6
iscntrl_l@@GLIBC_2.3                              /lib/x86_64-linux-gnu/libc.so.6
iscntrl_l@GLIBC_2.3                               /lib/x86_64-linux-gnu/libc.so.6
isctype                                           /lib/x86_64-linux-gnu/libc.so.6
isctype@@GLIBC_2.3                                /lib/x86_64-linux-gnu/libc.so.6
isctype@GLIBC_2.3                                 /lib/x86_64-linux-gnu/libc.so.6
isdigit_l                                         /lib/x86_64-linux-gnu/libc.so.6
isdigit_l@@GLIBC_2.3                              /lib/x86_64-linux-gnu/libc.so.6
isdigit_l@GLIBC_2.3                               /lib/x86_64-linux-gnu/libc.so.6
isgraph_l                                         /lib/x86_64-linux-gnu/libc.so.6
isgraph_l@@GLIBC_2.3                              /lib/x86_64-linux-gnu/libc.so.6
isgraph_l@GLIBC_2.3                               /lib/x86_64-linux-gnu/libc.so.6
isinf                                             /lib/x86_64-linux-gnu/libc.so.6
isinf@@GLIBC_2.2.5                                /lib/x86_64-linux-gnu/libc.so.6
isinf@GLIBC_2.2.5                                 /lib/x86_64-linux-gnu/libc.so.6
isinff                                            /lib/x86_64-linux-gnu/libc.so.6
isinff@@GLIBC_2.2.5                               /lib/x86_64-linux-gnu/libc.so.6
isinff@GLIBC_2.2.5                                /lib/x86_64-linux-gnu/libc.so.6
isinfl                                            /lib/x86_64-linux-gnu/libc.so.6
isinfl@@GLIBC_2.2.5                               /lib/x86_64-linux-gnu/libc.so.6
isinfl@GLIBC_2.2.5                                /lib/x86_64-linux-gnu/libc.so.6
islower_l                                         /lib/x86_64-linux-gnu/libc.so.6
islower_l@@GLIBC_2.3                              /lib/x86_64-linux-gnu/libc.so.6
islower_l@GLIBC_2.3                               /lib/x86_64-linux-gnu/libc.so.6
isnan                                             /lib/x86_64-linux-gnu/libc.so.6
isnan@@GLIBC_2.2.5                                /lib/x86_64-linux-gnu/libc.so.6
isnan@GLIBC_2.2.5                                 /lib/x86_64-linux-gnu/libc.so.6
isnanf                                            /lib/x86_64-linux-gnu/libc.so.6
isnanf@@GLIBC_2.2.5                               /lib/x86_64-linux-gnu/libc.so.6
isnanf@GLIBC_2.2.5                                /lib/x86_64-linux-gnu/libc.so.6
isnanl                                            /lib/x86_64-linux-gnu/libc.so.6
isnanl@@GLIBC_2.2.5                               /lib/x86_64-linux-gnu/libc.so.6
isnanl@GLIBC_2.2.5                                /lib/x86_64-linux-gnu/libc.so.6
isprint_l                                         /lib/x86_64-linux-gnu/libc.so.6
isprint_l@@GLIBC_2.3                              /lib/x86_64-linux-gnu/libc.so.6
isprint_l@GLIBC_2.3                               /lib/x86_64-linux-gnu/libc.so.6
ispunct_l                                         /lib/x86_64-linux-gnu/libc.so.6
ispunct_l@@GLIBC_2.3                              /lib/x86_64-linux-gnu/libc.so.6
ispunct_l@GLIBC_2.3                               /lib/x86_64-linux-gnu/libc.so.6
isspace_l                                         /lib/x86_64-linux-gnu/libc.so.6
isspace_l@@GLIBC_2.3                              /lib/x86_64-linux-gnu/libc.so.6
isspace_l@GLIBC_2.3                               /lib/x86_64-linux-gnu/libc.so.6
isupper_l                                         /lib/x86_64-linux-gnu/libc.so.6
isupper_l@@GLIBC_2.3                              /lib/x86_64-linux-gnu/libc.so.6
isupper_l@GLIBC_2.3                               /lib/x86_64-linux-gnu/libc.so.6
iswalnum                                          /lib/x86_64-linux-gnu/libc.so.6
iswalnum@@GLIBC_2.2.5                             /lib/x86_64-linux-gnu/libc.so.6
iswalnum@GLIBC_2.2.5                              /lib/x86_64-linux-gnu/libc.so.6
iswalnum_l                                        /lib/x86_64-linux-gnu/libc.so.6
iswalnum_l@@GLIBC_2.3                             /lib/x86_64-linux-gnu/libc.so.6
iswalnum_l@GLIBC_2.3                              /lib/x86_64-linux-gnu/libc.so.6
iswalpha                                          /lib/x86_64-linux-gnu/libc.so.6
iswalpha@@GLIBC_2.2.5                             /lib/x86_64-linux-gnu/libc.so.6
iswalpha@GLIBC_2.2.5                              /lib/x86_64-linux-gnu/libc.so.6
iswalpha_l                                        /lib/x86_64-linux-gnu/libc.so.6
iswalpha_l@@GLIBC_2.3                             /lib/x86_64-linux-gnu/libc.so.6
iswalpha_l@GLIBC_2.3                              /lib/x86_64-linux-gnu/libc.so.6
iswblank                                          /lib/x86_64-linux-gnu/libc.so.6
iswblank@@GLIBC_2.2.5                             /lib/x86_64-linux-gnu/libc.so.6
iswblank@GLIBC_2.2.5                              /lib/x86_64-linux-gnu/libc.so.6
iswblank_l                                        /lib/x86_64-linux-gnu/libc.so.6
iswblank_l@@GLIBC_2.3                             /lib/x86_64-linux-gnu/libc.so.6
iswblank_l@GLIBC_2.3                              /lib/x86_64-linux-gnu/libc.so.6
iswcntrl                                          /lib/x86_64-linux-gnu/libc.so.6
iswcntrl@@GLIBC_2.2.5                             /lib/x86_64-linux-gnu/libc.so.6
iswcntrl@GLIBC_2.2.5                              /lib/x86_64-linux-gnu/libc.so.6
iswcntrl_l                                        /lib/x86_64-linux-gnu/libc.so.6
iswcntrl_l@@GLIBC_2.3                             /lib/x86_64-linux-gnu/libc.so.6
iswcntrl_l@GLIBC_2.3                              /lib/x86_64-linux-gnu/libc.so.6
iswctype                                          /lib/x86_64-linux-gnu/libc.so.6
iswctype@@GLIBC_2.2.5                             /lib/x86_64-linux-gnu/libc.so.6
iswctype@GLIBC_2.2.5                              /lib/x86_64-linux-gnu/libc.so.6
iswctype_l                                        /lib/x86_64-linux-gnu/libc.so.6
iswctype_l@@GLIBC_2.3                             /lib/x86_64-linux-gnu/libc.so.6
iswctype_l@GLIBC_2.3                              /lib/x86_64-linux-gnu/libc.so.6
iswdigit                                          /lib/x86_64-linux-gnu/libc.so.6
iswdigit@@GLIBC_2.2.5                             /lib/x86_64-linux-gnu/libc.so.6
iswdigit@GLIBC_2.2.5                              /lib/x86_64-linux-gnu/libc.so.6
iswdigit_l                                        /lib/x86_64-linux-gnu/libc.so.6
iswdigit_l@@GLIBC_2.3                             /lib/x86_64-linux-gnu/libc.so.6
iswdigit_l@GLIBC_2.3                              /lib/x86_64-linux-gnu/libc.so.6
iswgraph                                          /lib/x86_64-linux-gnu/libc.so.6
iswgraph@@GLIBC_2.2.5                             /lib/x86_64-linux-gnu/libc.so.6
iswgraph@GLIBC_2.2.5                              /lib/x86_64-linux-gnu/libc.so.6
iswgraph_l                                        /lib/x86_64-linux-gnu/libc.so.6
iswgraph_l@@GLIBC_2.3                             /lib/x86_64-linux-gnu/libc.so.6
iswgraph_l@GLIBC_2.3                              /lib/x86_64-linux-gnu/libc.so.6
iswlower                                          /lib/x86_64-linux-gnu/libc.so.6
iswlower@@GLIBC_2.2.5                             /lib/x86_64-linux-gnu/libc.so.6
iswlower@GLIBC_2.2.5                              /lib/x86_64-linux-gnu/libc.so.6
iswlower_l                                        /lib/x86_64-linux-gnu/libc.so.6
iswlower_l@@GLIBC_2.3                             /lib/x86_64-linux-gnu/libc.so.6
iswlower_l@GLIBC_2.3                              /lib/x86_64-linux-gnu/libc.so.6
iswprint                                          /lib/x86_64-linux-gnu/libc.so.6
iswprint@@GLIBC_2.2.5                             /lib/x86_64-linux-gnu/libc.so.6
iswprint@GLIBC_2.2.5                              /lib/x86_64-linux-gnu/libc.so.6
iswprint_l                                        /lib/x86_64-linux-gnu/libc.so.6
iswprint_l@@GLIBC_2.3                             /lib/x86_64-linux-gnu/libc.so.6
iswprint_l@GLIBC_2.3                              /lib/x86_64-linux-gnu/libc.so.6
iswpunct                                          /lib/x86_64-linux-gnu/libc.so.6
iswpunct@@GLIBC_2.2.5                             /lib/x86_64-linux-gnu/libc.so.6
iswpunct@GLIBC_2.2.5                              /lib/x86_64-linux-gnu/libc.so.6
iswpunct_l                                        /lib/x86_64-linux-gnu/libc.so.6
iswpunct_l@@GLIBC_2.3                             /lib/x86_64-linux-gnu/libc.so.6
iswpunct_l@GLIBC_2.3                              /lib/x86_64-linux-gnu/libc.so.6
iswspace                                          /lib/x86_64-linux-gnu/libc.so.6
iswspace@@GLIBC_2.2.5                             /lib/x86_64-linux-gnu/libc.so.6
iswspace@GLIBC_2.2.5                              /lib/x86_64-linux-gnu/libc.so.6
iswspace_l                                        /lib/x86_64-linux-gnu/libc.so.6
iswspace_l@@GLIBC_2.3                             /lib/x86_64-linux-gnu/libc.so.6
iswspace_l@GLIBC_2.3                              /lib/x86_64-linux-gnu/libc.so.6
iswupper                                          /lib/x86_64-linux-gnu/libc.so.6
iswupper@@GLIBC_2.2.5                             /lib/x86_64-linux-gnu/libc.so.6
iswupper@GLIBC_2.2.5                              /lib/x86_64-linux-gnu/libc.so.6
iswupper_l                                        /lib/x86_64-linux-gnu/libc.so.6
iswupper_l@@GLIBC_2.3                             /lib/x86_64-linux-gnu/libc.so.6
iswupper_l@GLIBC_2.3                              /lib/x86_64-linux-gnu/libc.so.6
iswxdigit                                         /lib/x86_64-linux-gnu/libc.so.6
iswxdigit@@GLIBC_2.2.5                            /lib/x86_64-linux-gnu/libc.so.6
iswxdigit@GLIBC_2.2.5                             /lib/x86_64-linux-gnu/libc.so.6
iswxdigit_l                                       /lib/x86_64-linux-gnu/libc.so.6
iswxdigit_l@@GLIBC_2.3                            /lib/x86_64-linux-gnu/libc.so.6
iswxdigit_l@GLIBC_2.3                             /lib/x86_64-linux-gnu/libc.so.6
isxdigit_l                                        /lib/x86_64-linux-gnu/libc.so.6
isxdigit_l@@GLIBC_2.3                             /lib/x86_64-linux-gnu/libc.so.6
isxdigit_l@GLIBC_2.3                              /lib/x86_64-linux-gnu/libc.so.6
ixgbe_acquire_swfw_semaphore                      /usr/lib/gcc/x86_64-linux-gnu/4.6/../../../../lib/librte_pmd_ixgbe.a(ixgbe_api.o)
ixgbe_acquire_swfw_sync                           /usr/lib/gcc/x86_64-linux-gnu/4.6/../../../../lib/librte_pmd_ixgbe.a(ixgbe_common.o)
ixgbe_acquire_swfw_sync_X540                      /usr/lib/gcc/x86_64-linux-gnu/4.6/../../../../lib/librte_pmd_ixgbe.a(ixgbe_x540.o)
ixgbe_add_uc_addr                                 /usr/lib/gcc/x86_64-linux-gnu/4.6/../../../../lib/librte_pmd_ixgbe.a(ixgbe_common.o)
ixgbe_atr_compute_perfect_hash_82599              /usr/lib/gcc/x86_64-linux-gnu/4.6/../../../../lib/librte_pmd_ixgbe.a(ixgbe_82599.o)
ixgbe_atr_compute_sig_hash_82599                  /usr/lib/gcc/x86_64-linux-gnu/4.6/../../../../lib/librte_pmd_ixgbe.a(ixgbe_82599.o)
ixgbe_blink_led_start                             /usr/lib/gcc/x86_64-linux-gnu/4.6/../../../../lib/librte_pmd_ixgbe.a(ixgbe_api.o)
ixgbe_blink_led_start_X540                        /usr/lib/gcc/x86_64-linux-gnu/4.6/../../../../lib/librte_pmd_ixgbe.a(ixgbe_x540.o)
ixgbe_blink_led_start_generic                     /usr/lib/gcc/x86_64-linux-gnu/4.6/../../../../lib/librte_pmd_ixgbe.a(ixgbe_common.o)
ixgbe_blink_led_stop                              /usr/lib/gcc/x86_64-linux-gnu/4.6/../../../../lib/librte_pmd_ixgbe.a(ixgbe_api.o)
ixgbe_blink_led_stop_X540                         /usr/lib/gcc/x86_64-linux-gnu/4.6/../../../../lib/librte_pmd_ixgbe.a(ixgbe_x540.o)
ixgbe_blink_led_stop_generic                      /usr/lib/gcc/x86_64-linux-gnu/4.6/../../../../lib/librte_pmd_ixgbe.a(ixgbe_common.o)
ixgbe_calc_eeprom_checksum_X540                   /usr/lib/gcc/x86_64-linux-gnu/4.6/../../../../lib/librte_pmd_ixgbe.a(ixgbe_x540.o)
ixgbe_calc_eeprom_checksum_generic                /usr/lib/gcc/x86_64-linux-gnu/4.6/../../../../lib/librte_pmd_ixgbe.a(ixgbe_common.o)
ixgbe_check_for_ack                               /usr/lib/gcc/x86_64-linux-gnu/4.6/../../../../lib/librte_pmd_ixgbe.a(ixgbe_mbx.o)
                                                  /usr/lib/gcc/x86_64-linux-gnu/4.6/../../../../lib/librte_pmd_ixgbe.a(ixgbe_pf.o)
ixgbe_check_for_msg                               /usr/lib/gcc/x86_64-linux-gnu/4.6/../../../../lib/librte_pmd_ixgbe.a(ixgbe_mbx.o)
                                                  /usr/lib/gcc/x86_64-linux-gnu/4.6/../../../../lib/librte_pmd_ixgbe.a(ixgbe_pf.o)
ixgbe_check_for_rst                               /usr/lib/gcc/x86_64-linux-gnu/4.6/../../../../lib/librte_pmd_ixgbe.a(ixgbe_mbx.o)
                                                  /usr/lib/gcc/x86_64-linux-gnu/4.6/../../../../lib/librte_pmd_ixgbe.a(ixgbe_pf.o)
ixgbe_check_link                                  /usr/lib/gcc/x86_64-linux-gnu/4.6/../../../../lib/librte_pmd_ixgbe.a(ixgbe_api.o)
                                                  /usr/lib/gcc/x86_64-linux-gnu/4.6/../../../../lib/librte_pmd_ixgbe.a(ixgbe_82599.o)
                                                  /usr/lib/gcc/x86_64-linux-gnu/4.6/../../../../lib/librte_pmd_ixgbe.a(ixgbe_ethdev.o)
ixgbe_check_mac_link_generic                      /usr/lib/gcc/x86_64-linux-gnu/4.6/../../../../lib/librte_pmd_ixgbe.a(ixgbe_common.o)
                                                  /usr/lib/gcc/x86_64-linux-gnu/4.6/../../../../lib/librte_pmd_ixgbe.a(ixgbe_x540.o)
                                                  /usr/lib/gcc/x86_64-linux-gnu/4.6/../../../../lib/librte_pmd_ixgbe.a(ixgbe_82599.o)
ixgbe_check_mac_link_vf                           /usr/lib/gcc/x86_64-linux-gnu/4.6/../../../../lib/librte_pmd_ixgbe.a(ixgbe_vf.o)
ixgbe_check_phy_link                              /usr/lib/gcc/x86_64-linux-gnu/4.6/../../../../lib/librte_pmd_ixgbe.a(ixgbe_api.o)
ixgbe_check_phy_link_tnx                          /usr/lib/gcc/x86_64-linux-gnu/4.6/../../../../lib/librte_pmd_ixgbe.a(ixgbe_phy.o)
                                                  /usr/lib/gcc/x86_64-linux-gnu/4.6/../../../../lib/librte_pmd_ixgbe.a(ixgbe_82598.o)
                                                  /usr/lib/gcc/x86_64-linux-gnu/4.6/../../../../lib/librte_pmd_ixgbe.a(ixgbe_82599.o)
ixgbe_clear_hw_cntrs                              /usr/lib/gcc/x86_64-linux-gnu/4.6/../../../../lib/librte_pmd_ixgbe.a(ixgbe_api.o)
ixgbe_clear_hw_cntrs_generic                      /usr/lib/gcc/x86_64-linux-gnu/4.6/../../../../lib/librte_pmd_ixgbe.a(ixgbe_common.o)
ixgbe_clear_rar                                   /usr/lib/gcc/x86_64-linux-gnu/4.6/../../../../lib/librte_pmd_ixgbe.a(ixgbe_api.o)
                                                  /usr/lib/gcc/x86_64-linux-gnu/4.6/../../../../lib/librte_pmd_ixgbe.a(ixgbe_ethdev.o)
ixgbe_clear_rar_generic                           /usr/lib/gcc/x86_64-linux-gnu/4.6/../../../../lib/librte_pmd_ixgbe.a(ixgbe_common.o)
ixgbe_clear_tx_pending                            /usr/lib/gcc/x86_64-linux-gnu/4.6/../../../../lib/librte_pmd_ixgbe.a(ixgbe_common.o)
                                                  /usr/lib/gcc/x86_64-linux-gnu/4.6/../../../../lib/librte_pmd_ixgbe.a(ixgbe_x540.o)
                                                  /usr/lib/gcc/x86_64-linux-gnu/4.6/../../../../lib/librte_pmd_ixgbe.a(ixgbe_82599.o)
ixgbe_clear_vfta                                  /usr/lib/gcc/x86_64-linux-gnu/4.6/../../../../lib/librte_pmd_ixgbe.a(ixgbe_api.o)
ixgbe_clear_vfta_generic                          /usr/lib/gcc/x86_64-linux-gnu/4.6/../../../../lib/librte_pmd_ixgbe.a(ixgbe_common.o)
                                                  /usr/lib/gcc/x86_64-linux-gnu/4.6/../../../../lib/librte_pmd_ixgbe.a(ixgbe_x540.o)
                                                  /usr/lib/gcc/x86_64-linux-gnu/4.6/../../../../lib/librte_pmd_ixgbe.a(ixgbe_82599.o)
ixgbe_clear_vmdq                                  /usr/lib/gcc/x86_64-linux-gnu/4.6/../../../../lib/librte_pmd_ixgbe.a(ixgbe_api.o)
                                                  /usr/lib/gcc/x86_64-linux-gnu/4.6/../../../../lib/librte_pmd_ixgbe.a(ixgbe_common.o)
ixgbe_clear_vmdq_generic                          /usr/lib/gcc/x86_64-linux-gnu/4.6/../../../../lib/librte_pmd_ixgbe.a(ixgbe_common.o)
                                                  /usr/lib/gcc/x86_64-linux-gnu/4.6/../../../../lib/librte_pmd_ixgbe.a(ixgbe_x540.o)
                                                  /usr/lib/gcc/x86_64-linux-gnu/4.6/../../../../lib/librte_pmd_ixgbe.a(ixgbe_82599.o)
ixgbe_configure_dcb                               /usr/lib/gcc/x86_64-linux-gnu/4.6/../../../../lib/librte_pmd_ixgbe.a(ixgbe_rxtx.o)
                                                  /usr/lib/gcc/x86_64-linux-gnu/4.6/../../../../lib/librte_pmd_ixgbe.a(ixgbe_ethdev.o)
ixgbe_dcb_calculate_tc_credits                    /usr/lib/gcc/x86_64-linux-gnu/4.6/../../../../lib/librte_pmd_ixgbe.a(ixgbe_dcb.o)
ixgbe_dcb_calculate_tc_credits_cee                /usr/lib/gcc/x86_64-linux-gnu/4.6/../../../../lib/librte_pmd_ixgbe.a(ixgbe_dcb.o)
                                                  /usr/lib/gcc/x86_64-linux-gnu/4.6/../../../../lib/librte_pmd_ixgbe.a(ixgbe_rxtx.o)
ixgbe_dcb_check_config_cee                        /usr/lib/gcc/x86_64-linux-gnu/4.6/../../../../lib/librte_pmd_ixgbe.a(ixgbe_dcb.o)
ixgbe_dcb_config_82599                            /usr/lib/gcc/x86_64-linux-gnu/4.6/../../../../lib/librte_pmd_ixgbe.a(ixgbe_dcb_82599.o)
                                                  /usr/lib/gcc/x86_64-linux-gnu/4.6/../../../../lib/librte_pmd_ixgbe.a(ixgbe_dcb.o)
ixgbe_dcb_config_pfc                              /usr/lib/gcc/x86_64-linux-gnu/4.6/../../../../lib/librte_pmd_ixgbe.a(ixgbe_dcb.o)
                                                  /usr/lib/gcc/x86_64-linux-gnu/4.6/../../../../lib/librte_pmd_ixgbe.a(ixgbe_rxtx.o)
ixgbe_dcb_config_pfc_82598                        /usr/lib/gcc/x86_64-linux-gnu/4.6/../../../../lib/librte_pmd_ixgbe.a(ixgbe_dcb_82598.o)
                                                  /usr/lib/gcc/x86_64-linux-gnu/4.6/../../../../lib/librte_pmd_ixgbe.a(ixgbe_dcb.o)
ixgbe_dcb_config_pfc_82599                        /usr/lib/gcc/x86_64-linux-gnu/4.6/../../../../lib/librte_pmd_ixgbe.a(ixgbe_dcb_82599.o)
                                                  /usr/lib/gcc/x86_64-linux-gnu/4.6/../../../../lib/librte_pmd_ixgbe.a(ixgbe_dcb.o)
ixgbe_dcb_config_pfc_cee                          /usr/lib/gcc/x86_64-linux-gnu/4.6/../../../../lib/librte_pmd_ixgbe.a(ixgbe_dcb.o)
ixgbe_dcb_config_rx_arbiter_82598                 /usr/lib/gcc/x86_64-linux-gnu/4.6/../../../../lib/librte_pmd_ixgbe.a(ixgbe_dcb_82598.o)
                                                  /usr/lib/gcc/x86_64-linux-gnu/4.6/../../../../lib/librte_pmd_ixgbe.a(ixgbe_rxtx.o)
                                                  /usr/lib/gcc/x86_64-linux-gnu/4.6/../../../../lib/librte_pmd_ixgbe.a(ixgbe_dcb.o)
ixgbe_dcb_config_rx_arbiter_82599                 /usr/lib/gcc/x86_64-linux-gnu/4.6/../../../../lib/librte_pmd_ixgbe.a(ixgbe_dcb_82599.o)
                                                  /usr/lib/gcc/x86_64-linux-gnu/4.6/../../../../lib/librte_pmd_ixgbe.a(ixgbe_rxtx.o)
                                                  /usr/lib/gcc/x86_64-linux-gnu/4.6/../../../../lib/librte_pmd_ixgbe.a(ixgbe_dcb.o)
ixgbe_dcb_config_rx_arbiter_cee                   /usr/lib/gcc/x86_64-linux-gnu/4.6/../../../../lib/librte_pmd_ixgbe.a(ixgbe_dcb.o)
ixgbe_dcb_config_tc_stats                         /usr/lib/gcc/x86_64-linux-gnu/4.6/../../../../lib/librte_pmd_ixgbe.a(ixgbe_dcb.o)
ixgbe_dcb_config_tc_stats_82598                   /usr/lib/gcc/x86_64-linux-gnu/4.6/../../../../lib/librte_pmd_ixgbe.a(ixgbe_dcb_82598.o)
                                                  /usr/lib/gcc/x86_64-linux-gnu/4.6/../../../../lib/librte_pmd_ixgbe.a(ixgbe_dcb.o)
ixgbe_dcb_config_tc_stats_82599                   /usr/lib/gcc/x86_64-linux-gnu/4.6/../../../../lib/librte_pmd_ixgbe.a(ixgbe_dcb_82599.o)
                                                  /usr/lib/gcc/x86_64-linux-gnu/4.6/../../../../lib/librte_pmd_ixgbe.a(ixgbe_rxtx.o)
                                                  /usr/lib/gcc/x86_64-linux-gnu/4.6/../../../../lib/librte_pmd_ixgbe.a(ixgbe_dcb.o)
ixgbe_dcb_config_tx_data_arbiter_82598            /usr/lib/gcc/x86_64-linux-gnu/4.6/../../../../lib/librte_pmd_ixgbe.a(ixgbe_dcb_82598.o)
                                                  /usr/lib/gcc/x86_64-linux-gnu/4.6/../../../../lib/librte_pmd_ixgbe.a(ixgbe_rxtx.o)
                                                  /usr/lib/gcc/x86_64-linux-gnu/4.6/../../../../lib/librte_pmd_ixgbe.a(ixgbe_dcb.o)
ixgbe_dcb_config_tx_data_arbiter_82599            /usr/lib/gcc/x86_64-linux-gnu/4.6/../../../../lib/librte_pmd_ixgbe.a(ixgbe_dcb_82599.o)
                                                  /usr/lib/gcc/x86_64-linux-gnu/4.6/../../../../lib/librte_pmd_ixgbe.a(ixgbe_rxtx.o)
                                                  /usr/lib/gcc/x86_64-linux-gnu/4.6/../../../../lib/librte_pmd_ixgbe.a(ixgbe_dcb.o)
ixgbe_dcb_config_tx_data_arbiter_cee              /usr/lib/gcc/x86_64-linux-gnu/4.6/../../../../lib/librte_pmd_ixgbe.a(ixgbe_dcb.o)
ixgbe_dcb_config_tx_desc_arbiter_82598            /usr/lib/gcc/x86_64-linux-gnu/4.6/../../../../lib/librte_pmd_ixgbe.a(ixgbe_dcb_82598.o)
                                                  /usr/lib/gcc/x86_64-linux-gnu/4.6/../../../../lib/librte_pmd_ixgbe.a(ixgbe_rxtx.o)
                                                  /usr/lib/gcc/x86_64-linux-gnu/4.6/../../../../lib/librte_pmd_ixgbe.a(ixgbe_dcb.o)
ixgbe_dcb_config_tx_desc_arbiter_82599            /usr/lib/gcc/x86_64-linux-gnu/4.6/../../../../lib/librte_pmd_ixgbe.a(ixgbe_dcb_82599.o)
                                                  /usr/lib/gcc/x86_64-linux-gnu/4.6/../../../../lib/librte_pmd_ixgbe.a(ixgbe_rxtx.o)
                                                  /usr/lib/gcc/x86_64-linux-gnu/4.6/../../../../lib/librte_pmd_ixgbe.a(ixgbe_dcb.o)
ixgbe_dcb_config_tx_desc_arbiter_cee              /usr/lib/gcc/x86_64-linux-gnu/4.6/../../../../lib/librte_pmd_ixgbe.a(ixgbe_dcb.o)
ixgbe_dcb_get_pfc_stats                           /usr/lib/gcc/x86_64-linux-gnu/4.6/../../../../lib/librte_pmd_ixgbe.a(ixgbe_dcb.o)
ixgbe_dcb_get_pfc_stats_82598                     /usr/lib/gcc/x86_64-linux-gnu/4.6/../../../../lib/librte_pmd_ixgbe.a(ixgbe_dcb_82598.o)
                                                  /usr/lib/gcc/x86_64-linux-gnu/4.6/../../../../lib/librte_pmd_ixgbe.a(ixgbe_dcb.o)
ixgbe_dcb_get_pfc_stats_82599                     /usr/lib/gcc/x86_64-linux-gnu/4.6/../../../../lib/librte_pmd_ixgbe.a(ixgbe_dcb_82599.o)
                                                  /usr/lib/gcc/x86_64-linux-gnu/4.6/../../../../lib/librte_pmd_ixgbe.a(ixgbe_dcb.o)
ixgbe_dcb_get_tc_from_up                          /usr/lib/gcc/x86_64-linux-gnu/4.6/../../../../lib/librte_pmd_ixgbe.a(ixgbe_dcb.o)
ixgbe_dcb_get_tc_stats                            /usr/lib/gcc/x86_64-linux-gnu/4.6/../../../../lib/librte_pmd_ixgbe.a(ixgbe_dcb.o)
ixgbe_dcb_get_tc_stats_82598                      /usr/lib/gcc/x86_64-linux-gnu/4.6/../../../../lib/librte_pmd_ixgbe.a(ixgbe_dcb_82598.o)
                                                  /usr/lib/gcc/x86_64-linux-gnu/4.6/../../../../lib/librte_pmd_ixgbe.a(ixgbe_dcb.o)
ixgbe_dcb_get_tc_stats_82599                      /usr/lib/gcc/x86_64-linux-gnu/4.6/../../../../lib/librte_pmd_ixgbe.a(ixgbe_dcb_82599.o)
                                                  /usr/lib/gcc/x86_64-linux-gnu/4.6/../../../../lib/librte_pmd_ixgbe.a(ixgbe_dcb.o)
ixgbe_dcb_hw_config                               /usr/lib/gcc/x86_64-linux-gnu/4.6/../../../../lib/librte_pmd_ixgbe.a(ixgbe_dcb.o)
ixgbe_dcb_hw_config_82598                         /usr/lib/gcc/x86_64-linux-gnu/4.6/../../../../lib/librte_pmd_ixgbe.a(ixgbe_dcb_82598.o)
                                                  /usr/lib/gcc/x86_64-linux-gnu/4.6/../../../../lib/librte_pmd_ixgbe.a(ixgbe_dcb.o)
ixgbe_dcb_hw_config_82599                         /usr/lib/gcc/x86_64-linux-gnu/4.6/../../../../lib/librte_pmd_ixgbe.a(ixgbe_dcb_82599.o)
                                                  /usr/lib/gcc/x86_64-linux-gnu/4.6/../../../../lib/librte_pmd_ixgbe.a(ixgbe_dcb.o)
ixgbe_dcb_hw_config_cee                           /usr/lib/gcc/x86_64-linux-gnu/4.6/../../../../lib/librte_pmd_ixgbe.a(ixgbe_dcb.o)
ixgbe_dcb_unpack_bwgid_cee                        /usr/lib/gcc/x86_64-linux-gnu/4.6/../../../../lib/librte_pmd_ixgbe.a(ixgbe_dcb.o)
                                                  /usr/lib/gcc/x86_64-linux-gnu/4.6/../../../../lib/librte_pmd_ixgbe.a(ixgbe_rxtx.o)
ixgbe_dcb_unpack_map_cee                          /usr/lib/gcc/x86_64-linux-gnu/4.6/../../../../lib/librte_pmd_ixgbe.a(ixgbe_dcb.o)
                                                  /usr/lib/gcc/x86_64-linux-gnu/4.6/../../../../lib/librte_pmd_ixgbe.a(ixgbe_rxtx.o)
                                                  /usr/lib/gcc/x86_64-linux-gnu/4.6/../../../../lib/librte_pmd_ixgbe.a(ixgbe_ethdev.o)
ixgbe_dcb_unpack_max_cee                          /usr/lib/gcc/x86_64-linux-gnu/4.6/../../../../lib/librte_pmd_ixgbe.a(ixgbe_dcb.o)
                                                  /usr/lib/gcc/x86_64-linux-gnu/4.6/../../../../lib/librte_pmd_ixgbe.a(ixgbe_rxtx.o)
ixgbe_dcb_unpack_pfc_cee                          /usr/lib/gcc/x86_64-linux-gnu/4.6/../../../../lib/librte_pmd_ixgbe.a(ixgbe_dcb.o)
                                                  /usr/lib/gcc/x86_64-linux-gnu/4.6/../../../../lib/librte_pmd_ixgbe.a(ixgbe_rxtx.o)
ixgbe_dcb_unpack_refill_cee                       /usr/lib/gcc/x86_64-linux-gnu/4.6/../../../../lib/librte_pmd_ixgbe.a(ixgbe_dcb.o)
                                                  /usr/lib/gcc/x86_64-linux-gnu/4.6/../../../../lib/librte_pmd_ixgbe.a(ixgbe_rxtx.o)
ixgbe_dcb_unpack_tsa_cee                          /usr/lib/gcc/x86_64-linux-gnu/4.6/../../../../lib/librte_pmd_ixgbe.a(ixgbe_dcb.o)
                                                  /usr/lib/gcc/x86_64-linux-gnu/4.6/../../../../lib/librte_pmd_ixgbe.a(ixgbe_rxtx.o)
ixgbe_dev_clear_queues                            /usr/lib/gcc/x86_64-linux-gnu/4.6/../../../../lib/librte_pmd_ixgbe.a(ixgbe_rxtx.o)
                                                  /usr/lib/gcc/x86_64-linux-gnu/4.6/../../../../lib/librte_pmd_ixgbe.a(ixgbe_ethdev.o)
ixgbe_dev_rx_descriptor_done                      /usr/lib/gcc/x86_64-linux-gnu/4.6/../../../../lib/librte_pmd_ixgbe.a(ixgbe_rxtx.o)
                                                  /usr/lib/gcc/x86_64-linux-gnu/4.6/../../../../lib/librte_pmd_ixgbe.a(ixgbe_ethdev.o)
ixgbe_dev_rx_init                                 /usr/lib/gcc/x86_64-linux-gnu/4.6/../../../../lib/librte_pmd_ixgbe.a(ixgbe_rxtx.o)
                                                  /usr/lib/gcc/x86_64-linux-gnu/4.6/../../../../lib/librte_pmd_ixgbe.a(ixgbe_ethdev.o)
ixgbe_dev_rx_queue_count                          /usr/lib/gcc/x86_64-linux-gnu/4.6/../../../../lib/librte_pmd_ixgbe.a(ixgbe_rxtx.o)
                                                  /usr/lib/gcc/x86_64-linux-gnu/4.6/../../../../lib/librte_pmd_ixgbe.a(ixgbe_ethdev.o)
ixgbe_dev_rx_queue_release                        /usr/lib/gcc/x86_64-linux-gnu/4.6/../../../../lib/librte_pmd_ixgbe.a(ixgbe_rxtx.o)
                                                  /usr/lib/gcc/x86_64-linux-gnu/4.6/../../../../lib/librte_pmd_ixgbe.a(ixgbe_ethdev.o)
ixgbe_dev_rx_queue_setup                          /usr/lib/gcc/x86_64-linux-gnu/4.6/../../../../lib/librte_pmd_ixgbe.a(ixgbe_rxtx.o)
                                                  /usr/lib/gcc/x86_64-linux-gnu/4.6/../../../../lib/librte_pmd_ixgbe.a(ixgbe_ethdev.o)
ixgbe_dev_rxtx_start                              /usr/lib/gcc/x86_64-linux-gnu/4.6/../../../../lib/librte_pmd_ixgbe.a(ixgbe_rxtx.o)
                                                  /usr/lib/gcc/x86_64-linux-gnu/4.6/../../../../lib/librte_pmd_ixgbe.a(ixgbe_ethdev.o)
ixgbe_dev_tx_init                                 /usr/lib/gcc/x86_64-linux-gnu/4.6/../../../../lib/librte_pmd_ixgbe.a(ixgbe_rxtx.o)
                                                  /usr/lib/gcc/x86_64-linux-gnu/4.6/../../../../lib/librte_pmd_ixgbe.a(ixgbe_ethdev.o)
ixgbe_dev_tx_queue_release                        /usr/lib/gcc/x86_64-linux-gnu/4.6/../../../../lib/librte_pmd_ixgbe.a(ixgbe_rxtx.o)
                                                  /usr/lib/gcc/x86_64-linux-gnu/4.6/../../../../lib/librte_pmd_ixgbe.a(ixgbe_ethdev.o)
ixgbe_dev_tx_queue_setup                          /usr/lib/gcc/x86_64-linux-gnu/4.6/../../../../lib/librte_pmd_ixgbe.a(ixgbe_rxtx.o)
                                                  /usr/lib/gcc/x86_64-linux-gnu/4.6/../../../../lib/librte_pmd_ixgbe.a(ixgbe_ethdev.o)
ixgbe_device_supports_autoneg_fc                  /usr/lib/gcc/x86_64-linux-gnu/4.6/../../../../lib/librte_pmd_ixgbe.a(ixgbe_common.o)
ixgbe_disable_mc                                  /usr/lib/gcc/x86_64-linux-gnu/4.6/../../../../lib/librte_pmd_ixgbe.a(ixgbe_api.o)
ixgbe_disable_mc_generic                          /usr/lib/gcc/x86_64-linux-gnu/4.6/../../../../lib/librte_pmd_ixgbe.a(ixgbe_common.o)
ixgbe_disable_pcie_master                         /usr/lib/gcc/x86_64-linux-gnu/4.6/../../../../lib/librte_pmd_ixgbe.a(ixgbe_common.o)
                                                  /usr/lib/gcc/x86_64-linux-gnu/4.6/../../../../lib/librte_pmd_ixgbe.a(ixgbe_ethdev.o)
ixgbe_disable_sec_rx_path                         /usr/lib/gcc/x86_64-linux-gnu/4.6/../../../../lib/librte_pmd_ixgbe.a(ixgbe_api.o)
ixgbe_disable_sec_rx_path_generic                 /usr/lib/gcc/x86_64-linux-gnu/4.6/../../../../lib/librte_pmd_ixgbe.a(ixgbe_common.o)
                                                  /usr/lib/gcc/x86_64-linux-gnu/4.6/../../../../lib/librte_pmd_ixgbe.a(ixgbe_x540.o)
                                                  /usr/lib/gcc/x86_64-linux-gnu/4.6/../../../../lib/librte_pmd_ixgbe.a(ixgbe_82599.o)
ixgbe_disable_tx_laser                            /usr/lib/gcc/x86_64-linux-gnu/4.6/../../../../lib/librte_pmd_ixgbe.a(ixgbe_api.o)
                                                  /usr/lib/gcc/x86_64-linux-gnu/4.6/../../../../lib/librte_pmd_ixgbe.a(ixgbe_ethdev.o)
ixgbe_disable_tx_laser_multispeed_fiber           /usr/lib/gcc/x86_64-linux-gnu/4.6/../../../../lib/librte_pmd_ixgbe.a(ixgbe_82599.o)
ixgbe_enable_mc                                   /usr/lib/gcc/x86_64-linux-gnu/4.6/../../../../lib/librte_pmd_ixgbe.a(ixgbe_api.o)
ixgbe_enable_mc_generic                           /usr/lib/gcc/x86_64-linux-gnu/4.6/../../../../lib/librte_pmd_ixgbe.a(ixgbe_common.o)
ixgbe_enable_relaxed_ordering                     /usr/lib/gcc/x86_64-linux-gnu/4.6/../../../../lib/librte_pmd_ixgbe.a(ixgbe_api.o)
ixgbe_enable_relaxed_ordering_82598               /usr/lib/gcc/x86_64-linux-gnu/4.6/../../../../lib/librte_pmd_ixgbe.a(ixgbe_82598.o)
ixgbe_enable_relaxed_ordering_gen2                /usr/lib/gcc/x86_64-linux-gnu/4.6/../../../../lib/librte_pmd_ixgbe.a(ixgbe_common.o)
                                                  /usr/lib/gcc/x86_64-linux-gnu/4.6/../../../../lib/librte_pmd_ixgbe.a(ixgbe_x540.o)
                                                  /usr/lib/gcc/x86_64-linux-gnu/4.6/../../../../lib/librte_pmd_ixgbe.a(ixgbe_82599.o)
ixgbe_enable_rx_dma                               /usr/lib/gcc/x86_64-linux-gnu/4.6/../../../../lib/librte_pmd_ixgbe.a(ixgbe_api.o)
ixgbe_enable_rx_dma_82599                         /usr/lib/gcc/x86_64-linux-gnu/4.6/../../../../lib/librte_pmd_ixgbe.a(ixgbe_82599.o)
ixgbe_enable_rx_dma_generic                       /usr/lib/gcc/x86_64-linux-gnu/4.6/../../../../lib/librte_pmd_ixgbe.a(ixgbe_common.o)
ixgbe_enable_sec_rx_path                          /usr/lib/gcc/x86_64-linux-gnu/4.6/../../../../lib/librte_pmd_ixgbe.a(ixgbe_api.o)
ixgbe_enable_sec_rx_path_generic                  /usr/lib/gcc/x86_64-linux-gnu/4.6/../../../../lib/librte_pmd_ixgbe.a(ixgbe_common.o)
                                                  /usr/lib/gcc/x86_64-linux-gnu/4.6/../../../../lib/librte_pmd_ixgbe.a(ixgbe_x540.o)
                                                  /usr/lib/gcc/x86_64-linux-gnu/4.6/../../../../lib/librte_pmd_ixgbe.a(ixgbe_82599.o)
ixgbe_enable_tx_laser                             /usr/lib/gcc/x86_64-linux-gnu/4.6/../../../../lib/librte_pmd_ixgbe.a(ixgbe_api.o)
                                                  /usr/lib/gcc/x86_64-linux-gnu/4.6/../../../../lib/librte_pmd_ixgbe.a(ixgbe_ethdev.o)
ixgbe_enable_tx_laser_multispeed_fiber            /usr/lib/gcc/x86_64-linux-gnu/4.6/../../../../lib/librte_pmd_ixgbe.a(ixgbe_82599.o)
ixgbe_fc_autoneg                                  /usr/lib/gcc/x86_64-linux-gnu/4.6/../../../../lib/librte_pmd_ixgbe.a(ixgbe_common.o)
                                                  /usr/lib/gcc/x86_64-linux-gnu/4.6/../../../../lib/librte_pmd_ixgbe.a(ixgbe_82598.o)
                                                  /usr/lib/gcc/x86_64-linux-gnu/4.6/../../../../lib/librte_pmd_ixgbe.a(ixgbe_ethdev.o)
ixgbe_fc_enable                                   /usr/lib/gcc/x86_64-linux-gnu/4.6/../../../../lib/librte_pmd_ixgbe.a(ixgbe_api.o)
                                                  /usr/lib/gcc/x86_64-linux-gnu/4.6/../../../../lib/librte_pmd_ixgbe.a(ixgbe_ethdev.o)
ixgbe_fc_enable_82598                             /usr/lib/gcc/x86_64-linux-gnu/4.6/../../../../lib/librte_pmd_ixgbe.a(ixgbe_82598.o)
ixgbe_fc_enable_generic                           /usr/lib/gcc/x86_64-linux-gnu/4.6/../../../../lib/librte_pmd_ixgbe.a(ixgbe_common.o)
ixgbe_fdir_add_perfect_filter                     /usr/lib/gcc/x86_64-linux-gnu/4.6/../../../../lib/librte_pmd_ixgbe.a(ixgbe_fdir.o)
                                                  /usr/lib/gcc/x86_64-linux-gnu/4.6/../../../../lib/librte_pmd_ixgbe.a(ixgbe_ethdev.o)
ixgbe_fdir_add_perfect_filter_82599               /usr/lib/gcc/x86_64-linux-gnu/4.6/../../../../lib/librte_pmd_ixgbe.a(ixgbe_82599.o)
ixgbe_fdir_add_signature_filter                   /usr/lib/gcc/x86_64-linux-gnu/4.6/../../../../lib/librte_pmd_ixgbe.a(ixgbe_fdir.o)
                                                  /usr/lib/gcc/x86_64-linux-gnu/4.6/../../../../lib/librte_pmd_ixgbe.a(ixgbe_ethdev.o)
ixgbe_fdir_add_signature_filter_82599             /usr/lib/gcc/x86_64-linux-gnu/4.6/../../../../lib/librte_pmd_ixgbe.a(ixgbe_82599.o)
ixgbe_fdir_configure                              /usr/lib/gcc/x86_64-linux-gnu/4.6/../../../../lib/librte_pmd_ixgbe.a(ixgbe_fdir.o)
                                                  /usr/lib/gcc/x86_64-linux-gnu/4.6/../../../../lib/librte_pmd_ixgbe.a(ixgbe_ethdev.o)
ixgbe_fdir_erase_perfect_filter_82599             /usr/lib/gcc/x86_64-linux-gnu/4.6/../../../../lib/librte_pmd_ixgbe.a(ixgbe_82599.o)
ixgbe_fdir_info_get                               /usr/lib/gcc/x86_64-linux-gnu/4.6/../../../../lib/librte_pmd_ixgbe.a(ixgbe_fdir.o)
                                                  /usr/lib/gcc/x86_64-linux-gnu/4.6/../../../../lib/librte_pmd_ixgbe.a(ixgbe_ethdev.o)
ixgbe_fdir_remove_perfect_filter                  /usr/lib/gcc/x86_64-linux-gnu/4.6/../../../../lib/librte_pmd_ixgbe.a(ixgbe_fdir.o)
                                                  /usr/lib/gcc/x86_64-linux-gnu/4.6/../../../../lib/librte_pmd_ixgbe.a(ixgbe_ethdev.o)
ixgbe_fdir_remove_signature_filter                /usr/lib/gcc/x86_64-linux-gnu/4.6/../../../../lib/librte_pmd_ixgbe.a(ixgbe_fdir.o)
                                                  /usr/lib/gcc/x86_64-linux-gnu/4.6/../../../../lib/librte_pmd_ixgbe.a(ixgbe_ethdev.o)
ixgbe_fdir_set_input_mask_82599                   /usr/lib/gcc/x86_64-linux-gnu/4.6/../../../../lib/librte_pmd_ixgbe.a(ixgbe_82599.o)
ixgbe_fdir_set_masks                              /usr/lib/gcc/x86_64-linux-gnu/4.6/../../../../lib/librte_pmd_ixgbe.a(ixgbe_fdir.o)
                                                  /usr/lib/gcc/x86_64-linux-gnu/4.6/../../../../lib/librte_pmd_ixgbe.a(ixgbe_ethdev.o)
ixgbe_fdir_update_perfect_filter                  /usr/lib/gcc/x86_64-linux-gnu/4.6/../../../../lib/librte_pmd_ixgbe.a(ixgbe_fdir.o)
                                                  /usr/lib/gcc/x86_64-linux-gnu/4.6/../../../../lib/librte_pmd_ixgbe.a(ixgbe_ethdev.o)
ixgbe_fdir_update_signature_filter                /usr/lib/gcc/x86_64-linux-gnu/4.6/../../../../lib/librte_pmd_ixgbe.a(ixgbe_fdir.o)
                                                  /usr/lib/gcc/x86_64-linux-gnu/4.6/../../../../lib/librte_pmd_ixgbe.a(ixgbe_ethdev.o)
ixgbe_fdir_write_perfect_filter_82599             /usr/lib/gcc/x86_64-linux-gnu/4.6/../../../../lib/librte_pmd_ixgbe.a(ixgbe_82599.o)
ixgbe_find_vlvf_slot                              /usr/lib/gcc/x86_64-linux-gnu/4.6/../../../../lib/librte_pmd_ixgbe.a(ixgbe_common.o)
                                                  /usr/lib/gcc/x86_64-linux-gnu/4.6/../../../../lib/librte_pmd_ixgbe.a(ixgbe_ethdev.o)
ixgbe_flap_tx_laser                               /usr/lib/gcc/x86_64-linux-gnu/4.6/../../../../lib/librte_pmd_ixgbe.a(ixgbe_api.o)
                                                  /usr/lib/gcc/x86_64-linux-gnu/4.6/../../../../lib/librte_pmd_ixgbe.a(ixgbe_82599.o)
ixgbe_flap_tx_laser_multispeed_fiber              /usr/lib/gcc/x86_64-linux-gnu/4.6/../../../../lib/librte_pmd_ixgbe.a(ixgbe_82599.o)
ixgbe_get_bus_info                                /usr/lib/gcc/x86_64-linux-gnu/4.6/../../../../lib/librte_pmd_ixgbe.a(ixgbe_api.o)
                                                  /usr/lib/gcc/x86_64-linux-gnu/4.6/../../../../lib/librte_pmd_ixgbe.a(ixgbe_ethdev.o)
ixgbe_get_bus_info_generic                        /usr/lib/gcc/x86_64-linux-gnu/4.6/../../../../lib/librte_pmd_ixgbe.a(ixgbe_common.o)
ixgbe_get_copper_link_capabilities_generic        /usr/lib/gcc/x86_64-linux-gnu/4.6/../../../../lib/librte_pmd_ixgbe.a(ixgbe_phy.o)
                                                  /usr/lib/gcc/x86_64-linux-gnu/4.6/../../../../lib/librte_pmd_ixgbe.a(ixgbe_x540.o)
                                                  /usr/lib/gcc/x86_64-linux-gnu/4.6/../../../../lib/librte_pmd_ixgbe.a(ixgbe_82598.o)
                                                  /usr/lib/gcc/x86_64-linux-gnu/4.6/../../../../lib/librte_pmd_ixgbe.a(ixgbe_82599.o)
ixgbe_get_device_caps                             /usr/lib/gcc/x86_64-linux-gnu/4.6/../../../../lib/librte_pmd_ixgbe.a(ixgbe_api.o)
                                                  /usr/lib/gcc/x86_64-linux-gnu/4.6/../../../../lib/librte_pmd_ixgbe.a(ixgbe_phy.o)
ixgbe_get_device_caps_generic                     /usr/lib/gcc/x86_64-linux-gnu/4.6/../../../../lib/librte_pmd_ixgbe.a(ixgbe_common.o)
                                                  /usr/lib/gcc/x86_64-linux-gnu/4.6/../../../../lib/librte_pmd_ixgbe.a(ixgbe_x540.o)
                                                  /usr/lib/gcc/x86_64-linux-gnu/4.6/../../../../lib/librte_pmd_ixgbe.a(ixgbe_82599.o)
ixgbe_get_fcoe_boot_status                        /usr/lib/gcc/x86_64-linux-gnu/4.6/../../../../lib/librte_pmd_ixgbe.a(ixgbe_api.o)
ixgbe_get_fcoe_boot_status_generic                /usr/lib/gcc/x86_64-linux-gnu/4.6/../../../../lib/librte_pmd_ixgbe.a(ixgbe_common.o)
                                                  /usr/lib/gcc/x86_64-linux-gnu/4.6/../../../../lib/librte_pmd_ixgbe.a(ixgbe_x540.o)
                                                  /usr/lib/gcc/x86_64-linux-gnu/4.6/../../../../lib/librte_pmd_ixgbe.a(ixgbe_82599.o)
ixgbe_get_link_capabilities                       /usr/lib/gcc/x86_64-linux-gnu/4.6/../../../../lib/librte_pmd_ixgbe.a(ixgbe_api.o)
                                                  /usr/lib/gcc/x86_64-linux-gnu/4.6/../../../../lib/librte_pmd_ixgbe.a(ixgbe_82598.o)
                                                  /usr/lib/gcc/x86_64-linux-gnu/4.6/../../../../lib/librte_pmd_ixgbe.a(ixgbe_82599.o)
                                                  /usr/lib/gcc/x86_64-linux-gnu/4.6/../../../../lib/librte_pmd_ixgbe.a(ixgbe_ethdev.o)
ixgbe_get_link_capabilities_82599                 /usr/lib/gcc/x86_64-linux-gnu/4.6/../../../../lib/librte_pmd_ixgbe.a(ixgbe_82599.o)
ixgbe_get_link_capabilities_X540                  /usr/lib/gcc/x86_64-linux-gnu/4.6/../../../../lib/librte_pmd_ixgbe.a(ixgbe_x540.o)
ixgbe_get_mac_addr                                /usr/lib/gcc/x86_64-linux-gnu/4.6/../../../../lib/librte_pmd_ixgbe.a(ixgbe_api.o)
ixgbe_get_mac_addr_generic                        /usr/lib/gcc/x86_64-linux-gnu/4.6/../../../../lib/librte_pmd_ixgbe.a(ixgbe_common.o)
ixgbe_get_mac_addr_vf                             /usr/lib/gcc/x86_64-linux-gnu/4.6/../../../../lib/librte_pmd_ixgbe.a(ixgbe_vf.o)
ixgbe_get_media_type                              /usr/lib/gcc/x86_64-linux-gnu/4.6/../../../../lib/librte_pmd_ixgbe.a(ixgbe_api.o)
                                                  /usr/lib/gcc/x86_64-linux-gnu/4.6/../../../../lib/librte_pmd_ixgbe.a(ixgbe_82599.o)
ixgbe_get_media_type_82599                        /usr/lib/gcc/x86_64-linux-gnu/4.6/../../../../lib/librte_pmd_ixgbe.a(ixgbe_82599.o)
ixgbe_get_media_type_X540                         /usr/lib/gcc/x86_64-linux-gnu/4.6/../../../../lib/librte_pmd_ixgbe.a(ixgbe_x540.o)
ixgbe_get_num_of_rx_queues                        /usr/lib/gcc/x86_64-linux-gnu/4.6/../../../../lib/librte_pmd_ixgbe.a(ixgbe_api.o)
ixgbe_get_num_of_rx_queues_vf                     /usr/lib/gcc/x86_64-linux-gnu/4.6/../../../../lib/librte_pmd_ixgbe.a(ixgbe_vf.o)
ixgbe_get_num_of_tx_queues                        /usr/lib/gcc/x86_64-linux-gnu/4.6/../../../../lib/librte_pmd_ixgbe.a(ixgbe_api.o)
ixgbe_get_num_of_tx_queues_vf                     /usr/lib/gcc/x86_64-linux-gnu/4.6/../../../../lib/librte_pmd_ixgbe.a(ixgbe_vf.o)
ixgbe_get_num_rx_addrs                            /usr/lib/gcc/x86_64-linux-gnu/4.6/../../../../lib/librte_pmd_ixgbe.a(ixgbe_api.o)
ixgbe_get_pba_block_size                          /usr/lib/gcc/x86_64-linux-gnu/4.6/../../../../lib/librte_pmd_ixgbe.a(ixgbe_common.o)
ixgbe_get_pcie_msix_count_generic                 /usr/lib/gcc/x86_64-linux-gnu/4.6/../../../../lib/librte_pmd_ixgbe.a(ixgbe_common.o)
                                                  /usr/lib/gcc/x86_64-linux-gnu/4.6/../../../../lib/librte_pmd_ixgbe.a(ixgbe_x540.o)
                                                  /usr/lib/gcc/x86_64-linux-gnu/4.6/../../../../lib/librte_pmd_ixgbe.a(ixgbe_82598.o)
                                                  /usr/lib/gcc/x86_64-linux-gnu/4.6/../../../../lib/librte_pmd_ixgbe.a(ixgbe_82599.o)
ixgbe_get_phy_firmware_version                    /usr/lib/gcc/x86_64-linux-gnu/4.6/../../../../lib/librte_pmd_ixgbe.a(ixgbe_api.o)
ixgbe_get_phy_firmware_version_generic            /usr/lib/gcc/x86_64-linux-gnu/4.6/../../../../lib/librte_pmd_ixgbe.a(ixgbe_phy.o)
ixgbe_get_phy_firmware_version_tnx                /usr/lib/gcc/x86_64-linux-gnu/4.6/../../../../lib/librte_pmd_ixgbe.a(ixgbe_phy.o)
                                                  /usr/lib/gcc/x86_64-linux-gnu/4.6/../../../../lib/librte_pmd_ixgbe.a(ixgbe_82598.o)
                                                  /usr/lib/gcc/x86_64-linux-gnu/4.6/../../../../lib/librte_pmd_ixgbe.a(ixgbe_82599.o)
ixgbe_get_phy_id                                  /usr/lib/gcc/x86_64-linux-gnu/4.6/../../../../lib/librte_pmd_ixgbe.a(ixgbe_phy.o)
ixgbe_get_phy_type_from_id                        /usr/lib/gcc/x86_64-linux-gnu/4.6/../../../../lib/librte_pmd_ixgbe.a(ixgbe_phy.o)
ixgbe_get_san_mac_addr                            /usr/lib/gcc/x86_64-linux-gnu/4.6/../../../../lib/librte_pmd_ixgbe.a(ixgbe_api.o)
ixgbe_get_san_mac_addr_generic                    /usr/lib/gcc/x86_64-linux-gnu/4.6/../../../../lib/librte_pmd_ixgbe.a(ixgbe_common.o)
                                                  /usr/lib/gcc/x86_64-linux-gnu/4.6/../../../../lib/librte_pmd_ixgbe.a(ixgbe_x540.o)
                                                  /usr/lib/gcc/x86_64-linux-gnu/4.6/../../../../lib/librte_pmd_ixgbe.a(ixgbe_82599.o)
ixgbe_get_sfp_init_sequence_offsets               /usr/lib/gcc/x86_64-linux-gnu/4.6/../../../../lib/librte_pmd_ixgbe.a(ixgbe_phy.o)
                                                  /usr/lib/gcc/x86_64-linux-gnu/4.6/../../../../lib/librte_pmd_ixgbe.a(ixgbe_82598.o)
                                                  /usr/lib/gcc/x86_64-linux-gnu/4.6/../../../../lib/librte_pmd_ixgbe.a(ixgbe_82599.o)
ixgbe_get_supported_physical_layer                /usr/lib/gcc/x86_64-linux-gnu/4.6/../../../../lib/librte_pmd_ixgbe.a(ixgbe_api.o)
ixgbe_get_supported_physical_layer_82598          /usr/lib/gcc/x86_64-linux-gnu/4.6/../../../../lib/librte_pmd_ixgbe.a(ixgbe_82598.o)
ixgbe_get_supported_physical_layer_82599          /usr/lib/gcc/x86_64-linux-gnu/4.6/../../../../lib/librte_pmd_ixgbe.a(ixgbe_82599.o)
ixgbe_get_supported_physical_layer_X540           /usr/lib/gcc/x86_64-linux-gnu/4.6/../../../../lib/librte_pmd_ixgbe.a(ixgbe_x540.o)
ixgbe_get_wwn_prefix                              /usr/lib/gcc/x86_64-linux-gnu/4.6/../../../../lib/librte_pmd_ixgbe.a(ixgbe_api.o)
ixgbe_get_wwn_prefix_generic                      /usr/lib/gcc/x86_64-linux-gnu/4.6/../../../../lib/librte_pmd_ixgbe.a(ixgbe_common.o)
                                                  /usr/lib/gcc/x86_64-linux-gnu/4.6/../../../../lib/librte_pmd_ixgbe.a(ixgbe_x540.o)
                                                  /usr/lib/gcc/x86_64-linux-gnu/4.6/../../../../lib/librte_pmd_ixgbe.a(ixgbe_82599.o)
ixgbe_i2c_bus_clear                               /usr/lib/gcc/x86_64-linux-gnu/4.6/../../../../lib/librte_pmd_ixgbe.a(ixgbe_phy.o)
ixgbe_identify_module_generic                     /usr/lib/gcc/x86_64-linux-gnu/4.6/../../../../lib/librte_pmd_ixgbe.a(ixgbe_phy.o)
                                                  /usr/lib/gcc/x86_64-linux-gnu/4.6/../../../../lib/librte_pmd_ixgbe.a(ixgbe_82599.o)
ixgbe_identify_phy                                /usr/lib/gcc/x86_64-linux-gnu/4.6/../../../../lib/librte_pmd_ixgbe.a(ixgbe_api.o)
                                                  /usr/lib/gcc/x86_64-linux-gnu/4.6/../../../../lib/librte_pmd_ixgbe.a(ixgbe_common.o)
ixgbe_identify_phy_82599                          /usr/lib/gcc/x86_64-linux-gnu/4.6/../../../../lib/librte_pmd_ixgbe.a(ixgbe_82599.o)
ixgbe_identify_phy_generic                        /usr/lib/gcc/x86_64-linux-gnu/4.6/../../../../lib/librte_pmd_ixgbe.a(ixgbe_phy.o)
                                                  /usr/lib/gcc/x86_64-linux-gnu/4.6/../../../../lib/librte_pmd_ixgbe.a(ixgbe_82599.o)
ixgbe_identify_sfp_module_generic                 /usr/lib/gcc/x86_64-linux-gnu/4.6/../../../../lib/librte_pmd_ixgbe.a(ixgbe_phy.o)
ixgbe_init_eeprom_params                          /usr/lib/gcc/x86_64-linux-gnu/4.6/../../../../lib/librte_pmd_ixgbe.a(ixgbe_api.o)
ixgbe_init_eeprom_params_X540                     /usr/lib/gcc/x86_64-linux-gnu/4.6/../../../../lib/librte_pmd_ixgbe.a(ixgbe_x540.o)
ixgbe_init_eeprom_params_generic                  /usr/lib/gcc/x86_64-linux-gnu/4.6/../../../../lib/librte_pmd_ixgbe.a(ixgbe_common.o)
ixgbe_init_fdir_perfect_82599                     /usr/lib/gcc/x86_64-linux-gnu/4.6/../../../../lib/librte_pmd_ixgbe.a(ixgbe_82599.o)
ixgbe_init_fdir_signature_82599                   /usr/lib/gcc/x86_64-linux-gnu/4.6/../../../../lib/librte_pmd_ixgbe.a(ixgbe_82599.o)
ixgbe_init_hw                                     /usr/lib/gcc/x86_64-linux-gnu/4.6/../../../../lib/librte_pmd_ixgbe.a(ixgbe_api.o)
                                                  /usr/lib/gcc/x86_64-linux-gnu/4.6/../../../../lib/librte_pmd_ixgbe.a(ixgbe_ethdev.o)
ixgbe_init_hw_generic                             /usr/lib/gcc/x86_64-linux-gnu/4.6/../../../../lib/librte_pmd_ixgbe.a(ixgbe_common.o)
ixgbe_init_hw_vf                                  /usr/lib/gcc/x86_64-linux-gnu/4.6/../../../../lib/librte_pmd_ixgbe.a(ixgbe_vf.o)
ixgbe_init_mac_link_ops_82599                     /usr/lib/gcc/x86_64-linux-gnu/4.6/../../../../lib/librte_pmd_ixgbe.a(ixgbe_82599.o)
ixgbe_init_mbx_ops_generic                        /usr/lib/gcc/x86_64-linux-gnu/4.6/../../../../lib/librte_pmd_ixgbe.a(ixgbe_mbx.o)
ixgbe_init_mbx_params_pf                          /usr/lib/gcc/x86_64-linux-gnu/4.6/../../../../lib/librte_pmd_ixgbe.a(ixgbe_mbx.o)
                                                  /usr/lib/gcc/x86_64-linux-gnu/4.6/../../../../lib/librte_pmd_ixgbe.a(ixgbe_x540.o)
                                                  /usr/lib/gcc/x86_64-linux-gnu/4.6/../../../../lib/librte_pmd_ixgbe.a(ixgbe_82599.o)
ixgbe_init_mbx_params_vf                          /usr/lib/gcc/x86_64-linux-gnu/4.6/../../../../lib/librte_pmd_ixgbe.a(ixgbe_mbx.o)
                                                  /usr/lib/gcc/x86_64-linux-gnu/4.6/../../../../lib/librte_pmd_ixgbe.a(ixgbe_vf.o)
ixgbe_init_ops_82598                              /usr/lib/gcc/x86_64-linux-gnu/4.6/../../../../lib/librte_pmd_ixgbe.a(ixgbe_82598.o)
                                                  /usr/lib/gcc/x86_64-linux-gnu/4.6/../../../../lib/librte_pmd_ixgbe.a(ixgbe_api.o)
ixgbe_init_ops_82599                              /usr/lib/gcc/x86_64-linux-gnu/4.6/../../../../lib/librte_pmd_ixgbe.a(ixgbe_82599.o)
                                                  /usr/lib/gcc/x86_64-linux-gnu/4.6/../../../../lib/librte_pmd_ixgbe.a(ixgbe_api.o)
ixgbe_init_ops_X540                               /usr/lib/gcc/x86_64-linux-gnu/4.6/../../../../lib/librte_pmd_ixgbe.a(ixgbe_x540.o)
                                                  /usr/lib/gcc/x86_64-linux-gnu/4.6/../../../../lib/librte_pmd_ixgbe.a(ixgbe_api.o)
ixgbe_init_ops_generic                            /usr/lib/gcc/x86_64-linux-gnu/4.6/../../../../lib/librte_pmd_ixgbe.a(ixgbe_common.o)
                                                  /usr/lib/gcc/x86_64-linux-gnu/4.6/../../../../lib/librte_pmd_ixgbe.a(ixgbe_x540.o)
                                                  /usr/lib/gcc/x86_64-linux-gnu/4.6/../../../../lib/librte_pmd_ixgbe.a(ixgbe_82598.o)
                                                  /usr/lib/gcc/x86_64-linux-gnu/4.6/../../../../lib/librte_pmd_ixgbe.a(ixgbe_82599.o)
ixgbe_init_ops_vf                                 /usr/lib/gcc/x86_64-linux-gnu/4.6/../../../../lib/librte_pmd_ixgbe.a(ixgbe_vf.o)
                                                  /usr/lib/gcc/x86_64-linux-gnu/4.6/../../../../lib/librte_pmd_ixgbe.a(ixgbe_api.o)
ixgbe_init_phy_ops_82598                          /usr/lib/gcc/x86_64-linux-gnu/4.6/../../../../lib/librte_pmd_ixgbe.a(ixgbe_82598.o)
ixgbe_init_phy_ops_82599                          /usr/lib/gcc/x86_64-linux-gnu/4.6/../../../../lib/librte_pmd_ixgbe.a(ixgbe_82599.o)
ixgbe_init_phy_ops_generic                        /usr/lib/gcc/x86_64-linux-gnu/4.6/../../../../lib/librte_pmd_ixgbe.a(ixgbe_phy.o)
                                                  /usr/lib/gcc/x86_64-linux-gnu/4.6/../../../../lib/librte_pmd_ixgbe.a(ixgbe_x540.o)
                                                  /usr/lib/gcc/x86_64-linux-gnu/4.6/../../../../lib/librte_pmd_ixgbe.a(ixgbe_82598.o)
                                                  /usr/lib/gcc/x86_64-linux-gnu/4.6/../../../../lib/librte_pmd_ixgbe.a(ixgbe_82599.o)
ixgbe_init_rx_addrs                               /usr/lib/gcc/x86_64-linux-gnu/4.6/../../../../lib/librte_pmd_ixgbe.a(ixgbe_api.o)
ixgbe_init_rx_addrs_generic                       /usr/lib/gcc/x86_64-linux-gnu/4.6/../../../../lib/librte_pmd_ixgbe.a(ixgbe_common.o)
ixgbe_init_shared_code                            /usr/lib/gcc/x86_64-linux-gnu/4.6/../../../../lib/librte_pmd_ixgbe.a(ixgbe_api.o)
                                                  /usr/lib/gcc/x86_64-linux-gnu/4.6/../../../../lib/librte_pmd_ixgbe.a(ixgbe_ethdev.o)
ixgbe_init_uta_tables                             /usr/lib/gcc/x86_64-linux-gnu/4.6/../../../../lib/librte_pmd_ixgbe.a(ixgbe_api.o)
                                                  /usr/lib/gcc/x86_64-linux-gnu/4.6/../../../../lib/librte_pmd_ixgbe.a(ixgbe_common.o)
ixgbe_init_uta_tables_generic                     /usr/lib/gcc/x86_64-linux-gnu/4.6/../../../../lib/librte_pmd_ixgbe.a(ixgbe_common.o)
                                                  /usr/lib/gcc/x86_64-linux-gnu/4.6/../../../../lib/librte_pmd_ixgbe.a(ixgbe_x540.o)
                                                  /usr/lib/gcc/x86_64-linux-gnu/4.6/../../../../lib/librte_pmd_ixgbe.a(ixgbe_82599.o)
ixgbe_insert_mac_addr                             /usr/lib/gcc/x86_64-linux-gnu/4.6/../../../../lib/librte_pmd_ixgbe.a(ixgbe_api.o)
ixgbe_insert_mac_addr_generic                     /usr/lib/gcc/x86_64-linux-gnu/4.6/../../../../lib/librte_pmd_ixgbe.a(ixgbe_common.o)
                                                  /usr/lib/gcc/x86_64-linux-gnu/4.6/../../../../lib/librte_pmd_ixgbe.a(ixgbe_x540.o)
                                                  /usr/lib/gcc/x86_64-linux-gnu/4.6/../../../../lib/librte_pmd_ixgbe.a(ixgbe_82599.o)
ixgbe_led_off                                     /usr/lib/gcc/x86_64-linux-gnu/4.6/../../../../lib/librte_pmd_ixgbe.a(ixgbe_api.o)
                                                  /usr/lib/gcc/x86_64-linux-gnu/4.6/../../../../lib/librte_pmd_ixgbe.a(ixgbe_ethdev.o)
ixgbe_led_off_generic                             /usr/lib/gcc/x86_64-linux-gnu/4.6/../../../../lib/librte_pmd_ixgbe.a(ixgbe_common.o)
ixgbe_led_on                                      /usr/lib/gcc/x86_64-linux-gnu/4.6/../../../../lib/librte_pmd_ixgbe.a(ixgbe_api.o)
                                                  /usr/lib/gcc/x86_64-linux-gnu/4.6/../../../../lib/librte_pmd_ixgbe.a(ixgbe_ethdev.o)
ixgbe_led_on_generic                              /usr/lib/gcc/x86_64-linux-gnu/4.6/../../../../lib/librte_pmd_ixgbe.a(ixgbe_common.o)
ixgbe_pf_host_configure                           /usr/lib/gcc/x86_64-linux-gnu/4.6/../../../../lib/librte_pmd_ixgbe.a(ixgbe_pf.o)
                                                  /usr/lib/gcc/x86_64-linux-gnu/4.6/../../../../lib/librte_pmd_ixgbe.a(ixgbe_ethdev.o)
ixgbe_pf_host_init                                /usr/lib/gcc/x86_64-linux-gnu/4.6/../../../../lib/librte_pmd_ixgbe.a(ixgbe_pf.o)
                                                  /usr/lib/gcc/x86_64-linux-gnu/4.6/../../../../lib/librte_pmd_ixgbe.a(ixgbe_ethdev.o)
ixgbe_pf_mbx_process                              /usr/lib/gcc/x86_64-linux-gnu/4.6/../../../../lib/librte_pmd_ixgbe.a(ixgbe_pf.o)
                                                  /usr/lib/gcc/x86_64-linux-gnu/4.6/../../../../lib/librte_pmd_ixgbe.a(ixgbe_ethdev.o)
ixgbe_poll_eerd_eewr_done                         /usr/lib/gcc/x86_64-linux-gnu/4.6/../../../../lib/librte_pmd_ixgbe.a(ixgbe_common.o)
ixgbe_read_analog_reg8                            /usr/lib/gcc/x86_64-linux-gnu/4.6/../../../../lib/librte_pmd_ixgbe.a(ixgbe_api.o)
ixgbe_read_analog_reg8_82598                      /usr/lib/gcc/x86_64-linux-gnu/4.6/../../../../lib/librte_pmd_ixgbe.a(ixgbe_82598.o)
ixgbe_read_analog_reg8_82599                      /usr/lib/gcc/x86_64-linux-gnu/4.6/../../../../lib/librte_pmd_ixgbe.a(ixgbe_82599.o)
ixgbe_read_eeprom                                 /usr/lib/gcc/x86_64-linux-gnu/4.6/../../../../lib/librte_pmd_ixgbe.a(ixgbe_api.o)
ixgbe_read_eeprom_bit_bang_generic                /usr/lib/gcc/x86_64-linux-gnu/4.6/../../../../lib/librte_pmd_ixgbe.a(ixgbe_common.o)
                                                  /usr/lib/gcc/x86_64-linux-gnu/4.6/../../../../lib/librte_pmd_ixgbe.a(ixgbe_82599.o)
ixgbe_read_eeprom_buffer                          /usr/lib/gcc/x86_64-linux-gnu/4.6/../../../../lib/librte_pmd_ixgbe.a(ixgbe_api.o)
ixgbe_read_eeprom_buffer_bit_bang_generic         /usr/lib/gcc/x86_64-linux-gnu/4.6/../../../../lib/librte_pmd_ixgbe.a(ixgbe_common.o)
                                                  /usr/lib/gcc/x86_64-linux-gnu/4.6/../../../../lib/librte_pmd_ixgbe.a(ixgbe_82599.o)
ixgbe_read_eerd_X540                              /usr/lib/gcc/x86_64-linux-gnu/4.6/../../../../lib/librte_pmd_ixgbe.a(ixgbe_x540.o)
ixgbe_read_eerd_buffer_X540                       /usr/lib/gcc/x86_64-linux-gnu/4.6/../../../../lib/librte_pmd_ixgbe.a(ixgbe_x540.o)
ixgbe_read_eerd_buffer_generic                    /usr/lib/gcc/x86_64-linux-gnu/4.6/../../../../lib/librte_pmd_ixgbe.a(ixgbe_common.o)
                                                  /usr/lib/gcc/x86_64-linux-gnu/4.6/../../../../lib/librte_pmd_ixgbe.a(ixgbe_x540.o)
                                                  /usr/lib/gcc/x86_64-linux-gnu/4.6/../../../../lib/librte_pmd_ixgbe.a(ixgbe_82599.o)
ixgbe_read_eerd_generic                           /usr/lib/gcc/x86_64-linux-gnu/4.6/../../../../lib/librte_pmd_ixgbe.a(ixgbe_common.o)
                                                  /usr/lib/gcc/x86_64-linux-gnu/4.6/../../../../lib/librte_pmd_ixgbe.a(ixgbe_x540.o)
                                                  /usr/lib/gcc/x86_64-linux-gnu/4.6/../../../../lib/librte_pmd_ixgbe.a(ixgbe_82599.o)
ixgbe_read_i2c_byte                               /usr/lib/gcc/x86_64-linux-gnu/4.6/../../../../lib/librte_pmd_ixgbe.a(ixgbe_api.o)
ixgbe_read_i2c_byte_generic                       /usr/lib/gcc/x86_64-linux-gnu/4.6/../../../../lib/librte_pmd_ixgbe.a(ixgbe_phy.o)
ixgbe_read_i2c_eeprom                             /usr/lib/gcc/x86_64-linux-gnu/4.6/../../../../lib/librte_pmd_ixgbe.a(ixgbe_api.o)
ixgbe_read_i2c_eeprom_82598                       /usr/lib/gcc/x86_64-linux-gnu/4.6/../../../../lib/librte_pmd_ixgbe.a(ixgbe_82598.o)
ixgbe_read_i2c_eeprom_generic                     /usr/lib/gcc/x86_64-linux-gnu/4.6/../../../../lib/librte_pmd_ixgbe.a(ixgbe_phy.o)
ixgbe_read_mbx                                    /usr/lib/gcc/x86_64-linux-gnu/4.6/../../../../lib/librte_pmd_ixgbe.a(ixgbe_mbx.o)
                                                  /usr/lib/gcc/x86_64-linux-gnu/4.6/../../../../lib/librte_pmd_ixgbe.a(ixgbe_pf.o)
ixgbe_read_pba_num                                /usr/lib/gcc/x86_64-linux-gnu/4.6/../../../../lib/librte_pmd_ixgbe.a(ixgbe_api.o)
ixgbe_read_pba_num_generic                        /usr/lib/gcc/x86_64-linux-gnu/4.6/../../../../lib/librte_pmd_ixgbe.a(ixgbe_common.o)
                                                  /usr/lib/gcc/x86_64-linux-gnu/4.6/../../../../lib/librte_pmd_ixgbe.a(ixgbe_api.o)
ixgbe_read_pba_raw                                /usr/lib/gcc/x86_64-linux-gnu/4.6/../../../../lib/librte_pmd_ixgbe.a(ixgbe_common.o)
ixgbe_read_pba_string                             /usr/lib/gcc/x86_64-linux-gnu/4.6/../../../../lib/librte_pmd_ixgbe.a(ixgbe_api.o)
ixgbe_read_pba_string_generic                     /usr/lib/gcc/x86_64-linux-gnu/4.6/../../../../lib/librte_pmd_ixgbe.a(ixgbe_common.o)
                                                  /usr/lib/gcc/x86_64-linux-gnu/4.6/../../../../lib/librte_pmd_ixgbe.a(ixgbe_api.o)
ixgbe_read_phy_reg                                /usr/lib/gcc/x86_64-linux-gnu/4.6/../../../../lib/librte_pmd_ixgbe.a(ixgbe_api.o)
ixgbe_read_phy_reg_generic                        /usr/lib/gcc/x86_64-linux-gnu/4.6/../../../../lib/librte_pmd_ixgbe.a(ixgbe_phy.o)
ixgbe_read_posted_mbx                             /usr/lib/gcc/x86_64-linux-gnu/4.6/../../../../lib/librte_pmd_ixgbe.a(ixgbe_mbx.o)
ixgbe_recv_pkts                                   /usr/lib/gcc/x86_64-linux-gnu/4.6/../../../../lib/librte_pmd_ixgbe.a(ixgbe_rxtx.o)
                                                  /usr/lib/gcc/x86_64-linux-gnu/4.6/../../../../lib/librte_pmd_ixgbe.a(ixgbe_ethdev.o)
ixgbe_recv_pkts_bulk_alloc                        /usr/lib/gcc/x86_64-linux-gnu/4.6/../../../../lib/librte_pmd_ixgbe.a(ixgbe_rxtx.o)
ixgbe_recv_scattered_pkts                         /usr/lib/gcc/x86_64-linux-gnu/4.6/../../../../lib/librte_pmd_ixgbe.a(ixgbe_rxtx.o)
                                                  /usr/lib/gcc/x86_64-linux-gnu/4.6/../../../../lib/librte_pmd_ixgbe.a(ixgbe_ethdev.o)
ixgbe_reinit_fdir_tables_82599                    /usr/lib/gcc/x86_64-linux-gnu/4.6/../../../../lib/librte_pmd_ixgbe.a(ixgbe_82599.o)
                                                  /usr/lib/gcc/x86_64-linux-gnu/4.6/../../../../lib/librte_pmd_ixgbe.a(ixgbe_fdir.o)
ixgbe_release_swfw_semaphore                      /usr/lib/gcc/x86_64-linux-gnu/4.6/../../../../lib/librte_pmd_ixgbe.a(ixgbe_api.o)
ixgbe_release_swfw_sync                           /usr/lib/gcc/x86_64-linux-gnu/4.6/../../../../lib/librte_pmd_ixgbe.a(ixgbe_common.o)
ixgbe_release_swfw_sync_X540                      /usr/lib/gcc/x86_64-linux-gnu/4.6/../../../../lib/librte_pmd_ixgbe.a(ixgbe_x540.o)
ixgbe_reset_hw                                    /usr/lib/gcc/x86_64-linux-gnu/4.6/../../../../lib/librte_pmd_ixgbe.a(ixgbe_api.o)
                                                  /usr/lib/gcc/x86_64-linux-gnu/4.6/../../../../lib/librte_pmd_ixgbe.a(ixgbe_ethdev.o)
ixgbe_reset_hw_82599                              /usr/lib/gcc/x86_64-linux-gnu/4.6/../../../../lib/librte_pmd_ixgbe.a(ixgbe_82599.o)
ixgbe_reset_hw_X540                               /usr/lib/gcc/x86_64-linux-gnu/4.6/../../../../lib/librte_pmd_ixgbe.a(ixgbe_x540.o)
ixgbe_reset_hw_vf                                 /usr/lib/gcc/x86_64-linux-gnu/4.6/../../../../lib/librte_pmd_ixgbe.a(ixgbe_vf.o)
ixgbe_reset_phy                                   /usr/lib/gcc/x86_64-linux-gnu/4.6/../../../../lib/librte_pmd_ixgbe.a(ixgbe_api.o)
ixgbe_reset_phy_generic                           /usr/lib/gcc/x86_64-linux-gnu/4.6/../../../../lib/librte_pmd_ixgbe.a(ixgbe_phy.o)
ixgbe_reset_phy_nl                                /usr/lib/gcc/x86_64-linux-gnu/4.6/../../../../lib/librte_pmd_ixgbe.a(ixgbe_phy.o)
                                                  /usr/lib/gcc/x86_64-linux-gnu/4.6/../../../../lib/librte_pmd_ixgbe.a(ixgbe_82598.o)
ixgbe_reset_pipeline_82599                        /usr/lib/gcc/x86_64-linux-gnu/4.6/../../../../lib/librte_pmd_ixgbe.a(ixgbe_82599.o)
                                                  /usr/lib/gcc/x86_64-linux-gnu/4.6/../../../../lib/librte_pmd_ixgbe.a(ixgbe_common.o)
ixgbe_set_fw_drv_ver                              /usr/lib/gcc/x86_64-linux-gnu/4.6/../../../../lib/librte_pmd_ixgbe.a(ixgbe_api.o)
ixgbe_set_fw_drv_ver_generic                      /usr/lib/gcc/x86_64-linux-gnu/4.6/../../../../lib/librte_pmd_ixgbe.a(ixgbe_common.o)
                                                  /usr/lib/gcc/x86_64-linux-gnu/4.6/../../../../lib/librte_pmd_ixgbe.a(ixgbe_x540.o)
                                                  /usr/lib/gcc/x86_64-linux-gnu/4.6/../../../../lib/librte_pmd_ixgbe.a(ixgbe_82599.o)
ixgbe_set_lan_id_multi_port_pcie                  /usr/lib/gcc/x86_64-linux-gnu/4.6/../../../../lib/librte_pmd_ixgbe.a(ixgbe_common.o)
                                                  /usr/lib/gcc/x86_64-linux-gnu/4.6/../../../../lib/librte_pmd_ixgbe.a(ixgbe_82598.o)
ixgbe_set_lan_id_multi_port_pcie_82598            /usr/lib/gcc/x86_64-linux-gnu/4.6/../../../../lib/librte_pmd_ixgbe.a(ixgbe_82598.o)
ixgbe_set_mac_anti_spoofing                       /usr/lib/gcc/x86_64-linux-gnu/4.6/../../../../lib/librte_pmd_ixgbe.a(ixgbe_common.o)
                                                  /usr/lib/gcc/x86_64-linux-gnu/4.6/../../../../lib/librte_pmd_ixgbe.a(ixgbe_x540.o)
                                                  /usr/lib/gcc/x86_64-linux-gnu/4.6/../../../../lib/librte_pmd_ixgbe.a(ixgbe_82599.o)
ixgbe_set_mac_type                                /usr/lib/gcc/x86_64-linux-gnu/4.6/../../../../lib/librte_pmd_ixgbe.a(ixgbe_api.o)
ixgbe_set_mta                                     /usr/lib/gcc/x86_64-linux-gnu/4.6/../../../../lib/librte_pmd_ixgbe.a(ixgbe_common.o)
ixgbe_set_pcie_completion_timeout                 /usr/lib/gcc/x86_64-linux-gnu/4.6/../../../../lib/librte_pmd_ixgbe.a(ixgbe_82598.o)
ixgbe_set_rar                                     /usr/lib/gcc/x86_64-linux-gnu/4.6/../../../../lib/librte_pmd_ixgbe.a(ixgbe_api.o)
                                                  /usr/lib/gcc/x86_64-linux-gnu/4.6/../../../../lib/librte_pmd_ixgbe.a(ixgbe_common.o)
                                                  /usr/lib/gcc/x86_64-linux-gnu/4.6/../../../../lib/librte_pmd_ixgbe.a(ixgbe_ethdev.o)
ixgbe_set_rar_generic                             /usr/lib/gcc/x86_64-linux-gnu/4.6/../../../../lib/librte_pmd_ixgbe.a(ixgbe_common.o)
ixgbe_set_rar_vf                                  /usr/lib/gcc/x86_64-linux-gnu/4.6/../../../../lib/librte_pmd_ixgbe.a(ixgbe_vf.o)
ixgbe_set_rxpba_generic                           /usr/lib/gcc/x86_64-linux-gnu/4.6/../../../../lib/librte_pmd_ixgbe.a(ixgbe_common.o)
                                                  /usr/lib/gcc/x86_64-linux-gnu/4.6/../../../../lib/librte_pmd_ixgbe.a(ixgbe_x540.o)
                                                  /usr/lib/gcc/x86_64-linux-gnu/4.6/../../../../lib/librte_pmd_ixgbe.a(ixgbe_82599.o)
ixgbe_set_san_mac_addr                            /usr/lib/gcc/x86_64-linux-gnu/4.6/../../../../lib/librte_pmd_ixgbe.a(ixgbe_api.o)
ixgbe_set_san_mac_addr_generic                    /usr/lib/gcc/x86_64-linux-gnu/4.6/../../../../lib/librte_pmd_ixgbe.a(ixgbe_common.o)
                                                  /usr/lib/gcc/x86_64-linux-gnu/4.6/../../../../lib/librte_pmd_ixgbe.a(ixgbe_x540.o)
                                                  /usr/lib/gcc/x86_64-linux-gnu/4.6/../../../../lib/librte_pmd_ixgbe.a(ixgbe_82599.o)
ixgbe_set_vfta                                    /usr/lib/gcc/x86_64-linux-gnu/4.6/../../../../lib/librte_pmd_ixgbe.a(ixgbe_api.o)
                                                  /usr/lib/gcc/x86_64-linux-gnu/4.6/../../../../lib/librte_pmd_ixgbe.a(ixgbe_ethdev.o)
ixgbe_set_vfta_82598                              /usr/lib/gcc/x86_64-linux-gnu/4.6/../../../../lib/librte_pmd_ixgbe.a(ixgbe_82598.o)
ixgbe_set_vfta_generic                            /usr/lib/gcc/x86_64-linux-gnu/4.6/../../../../lib/librte_pmd_ixgbe.a(ixgbe_common.o)
                                                  /usr/lib/gcc/x86_64-linux-gnu/4.6/../../../../lib/librte_pmd_ixgbe.a(ixgbe_x540.o)
                                                  /usr/lib/gcc/x86_64-linux-gnu/4.6/../../../../lib/librte_pmd_ixgbe.a(ixgbe_82599.o)
ixgbe_set_vfta_vf                                 /usr/lib/gcc/x86_64-linux-gnu/4.6/../../../../lib/librte_pmd_ixgbe.a(ixgbe_vf.o)
ixgbe_set_vlan_anti_spoofing                      /usr/lib/gcc/x86_64-linux-gnu/4.6/../../../../lib/librte_pmd_ixgbe.a(ixgbe_common.o)
                                                  /usr/lib/gcc/x86_64-linux-gnu/4.6/../../../../lib/librte_pmd_ixgbe.a(ixgbe_x540.o)
                                                  /usr/lib/gcc/x86_64-linux-gnu/4.6/../../../../lib/librte_pmd_ixgbe.a(ixgbe_82599.o)
ixgbe_set_vlvf                                    /usr/lib/gcc/x86_64-linux-gnu/4.6/../../../../lib/librte_pmd_ixgbe.a(ixgbe_api.o)
ixgbe_set_vlvf_generic                            /usr/lib/gcc/x86_64-linux-gnu/4.6/../../../../lib/librte_pmd_ixgbe.a(ixgbe_common.o)
                                                  /usr/lib/gcc/x86_64-linux-gnu/4.6/../../../../lib/librte_pmd_ixgbe.a(ixgbe_x540.o)
                                                  /usr/lib/gcc/x86_64-linux-gnu/4.6/../../../../lib/librte_pmd_ixgbe.a(ixgbe_82599.o)
ixgbe_set_vmdq                                    /usr/lib/gcc/x86_64-linux-gnu/4.6/../../../../lib/librte_pmd_ixgbe.a(ixgbe_api.o)
                                                  /usr/lib/gcc/x86_64-linux-gnu/4.6/../../../../lib/librte_pmd_ixgbe.a(ixgbe_common.o)
ixgbe_set_vmdq_82598                              /usr/lib/gcc/x86_64-linux-gnu/4.6/../../../../lib/librte_pmd_ixgbe.a(ixgbe_82598.o)
ixgbe_set_vmdq_generic                            /usr/lib/gcc/x86_64-linux-gnu/4.6/../../../../lib/librte_pmd_ixgbe.a(ixgbe_common.o)
                                                  /usr/lib/gcc/x86_64-linux-gnu/4.6/../../../../lib/librte_pmd_ixgbe.a(ixgbe_x540.o)
                                                  /usr/lib/gcc/x86_64-linux-gnu/4.6/../../../../lib/librte_pmd_ixgbe.a(ixgbe_82599.o)
ixgbe_set_vmdq_san_mac                            /usr/lib/gcc/x86_64-linux-gnu/4.6/../../../../lib/librte_pmd_ixgbe.a(ixgbe_api.o)
ixgbe_set_vmdq_san_mac_generic                    /usr/lib/gcc/x86_64-linux-gnu/4.6/../../../../lib/librte_pmd_ixgbe.a(ixgbe_common.o)
                                                  /usr/lib/gcc/x86_64-linux-gnu/4.6/../../../../lib/librte_pmd_ixgbe.a(ixgbe_x540.o)
                                                  /usr/lib/gcc/x86_64-linux-gnu/4.6/../../../../lib/librte_pmd_ixgbe.a(ixgbe_82599.o)
ixgbe_setup_link                                  /usr/lib/gcc/x86_64-linux-gnu/4.6/../../../../lib/librte_pmd_ixgbe.a(ixgbe_api.o)
                                                  /usr/lib/gcc/x86_64-linux-gnu/4.6/../../../../lib/librte_pmd_ixgbe.a(ixgbe_ethdev.o)
ixgbe_setup_mac_link_82599                        /usr/lib/gcc/x86_64-linux-gnu/4.6/../../../../lib/librte_pmd_ixgbe.a(ixgbe_82599.o)
ixgbe_setup_mac_link_X540                         /usr/lib/gcc/x86_64-linux-gnu/4.6/../../../../lib/librte_pmd_ixgbe.a(ixgbe_x540.o)
ixgbe_setup_mac_link_multispeed_fiber             /usr/lib/gcc/x86_64-linux-gnu/4.6/../../../../lib/librte_pmd_ixgbe.a(ixgbe_82599.o)
ixgbe_setup_mac_link_smartspeed                   /usr/lib/gcc/x86_64-linux-gnu/4.6/../../../../lib/librte_pmd_ixgbe.a(ixgbe_82599.o)
ixgbe_setup_mac_link_vf                           /usr/lib/gcc/x86_64-linux-gnu/4.6/../../../../lib/librte_pmd_ixgbe.a(ixgbe_vf.o)
ixgbe_setup_phy_link                              /usr/lib/gcc/x86_64-linux-gnu/4.6/../../../../lib/librte_pmd_ixgbe.a(ixgbe_api.o)
ixgbe_setup_phy_link_generic                      /usr/lib/gcc/x86_64-linux-gnu/4.6/../../../../lib/librte_pmd_ixgbe.a(ixgbe_phy.o)
ixgbe_setup_phy_link_speed                        /usr/lib/gcc/x86_64-linux-gnu/4.6/../../../../lib/librte_pmd_ixgbe.a(ixgbe_api.o)
ixgbe_setup_phy_link_speed_generic                /usr/lib/gcc/x86_64-linux-gnu/4.6/../../../../lib/librte_pmd_ixgbe.a(ixgbe_phy.o)
ixgbe_setup_phy_link_tnx                          /usr/lib/gcc/x86_64-linux-gnu/4.6/../../../../lib/librte_pmd_ixgbe.a(ixgbe_phy.o)
                                                  /usr/lib/gcc/x86_64-linux-gnu/4.6/../../../../lib/librte_pmd_ixgbe.a(ixgbe_82598.o)
                                                  /usr/lib/gcc/x86_64-linux-gnu/4.6/../../../../lib/librte_pmd_ixgbe.a(ixgbe_82599.o)
ixgbe_setup_sfp_modules_82599                     /usr/lib/gcc/x86_64-linux-gnu/4.6/../../../../lib/librte_pmd_ixgbe.a(ixgbe_82599.o)
ixgbe_start_hw                                    /usr/lib/gcc/x86_64-linux-gnu/4.6/../../../../lib/librte_pmd_ixgbe.a(ixgbe_api.o)
ixgbe_start_hw_82598                              /usr/lib/gcc/x86_64-linux-gnu/4.6/../../../../lib/librte_pmd_ixgbe.a(ixgbe_82598.o)
ixgbe_start_hw_82599                              /usr/lib/gcc/x86_64-linux-gnu/4.6/../../../../lib/librte_pmd_ixgbe.a(ixgbe_82599.o)
ixgbe_start_hw_X540                               /usr/lib/gcc/x86_64-linux-gnu/4.6/../../../../lib/librte_pmd_ixgbe.a(ixgbe_x540.o)
ixgbe_start_hw_gen2                               /usr/lib/gcc/x86_64-linux-gnu/4.6/../../../../lib/librte_pmd_ixgbe.a(ixgbe_common.o)
                                                  /usr/lib/gcc/x86_64-linux-gnu/4.6/../../../../lib/librte_pmd_ixgbe.a(ixgbe_x540.o)
                                                  /usr/lib/gcc/x86_64-linux-gnu/4.6/../../../../lib/librte_pmd_ixgbe.a(ixgbe_82599.o)
ixgbe_start_hw_generic                            /usr/lib/gcc/x86_64-linux-gnu/4.6/../../../../lib/librte_pmd_ixgbe.a(ixgbe_common.o)
                                                  /usr/lib/gcc/x86_64-linux-gnu/4.6/../../../../lib/librte_pmd_ixgbe.a(ixgbe_x540.o)
                                                  /usr/lib/gcc/x86_64-linux-gnu/4.6/../../../../lib/librte_pmd_ixgbe.a(ixgbe_82598.o)
                                                  /usr/lib/gcc/x86_64-linux-gnu/4.6/../../../../lib/librte_pmd_ixgbe.a(ixgbe_82599.o)
ixgbe_start_hw_vf                                 /usr/lib/gcc/x86_64-linux-gnu/4.6/../../../../lib/librte_pmd_ixgbe.a(ixgbe_vf.o)
ixgbe_start_mac_link_82599                        /usr/lib/gcc/x86_64-linux-gnu/4.6/../../../../lib/librte_pmd_ixgbe.a(ixgbe_82599.o)
ixgbe_stop_adapter                                /usr/lib/gcc/x86_64-linux-gnu/4.6/../../../../lib/librte_pmd_ixgbe.a(ixgbe_api.o)
                                                  /usr/lib/gcc/x86_64-linux-gnu/4.6/../../../../lib/librte_pmd_ixgbe.a(ixgbe_ethdev.o)
ixgbe_stop_adapter_generic                        /usr/lib/gcc/x86_64-linux-gnu/4.6/../../../../lib/librte_pmd_ixgbe.a(ixgbe_common.o)
ixgbe_stop_adapter_vf                             /usr/lib/gcc/x86_64-linux-gnu/4.6/../../../../lib/librte_pmd_ixgbe.a(ixgbe_vf.o)
ixgbe_tn_check_overtemp                           /usr/lib/gcc/x86_64-linux-gnu/4.6/../../../../lib/librte_pmd_ixgbe.a(ixgbe_phy.o)
ixgbe_update_eeprom_checksum                      /usr/lib/gcc/x86_64-linux-gnu/4.6/../../../../lib/librte_pmd_ixgbe.a(ixgbe_api.o)
ixgbe_update_eeprom_checksum_X540                 /usr/lib/gcc/x86_64-linux-gnu/4.6/../../../../lib/librte_pmd_ixgbe.a(ixgbe_x540.o)
ixgbe_update_eeprom_checksum_generic              /usr/lib/gcc/x86_64-linux-gnu/4.6/../../../../lib/librte_pmd_ixgbe.a(ixgbe_common.o)
ixgbe_update_mc_addr_list                         /usr/lib/gcc/x86_64-linux-gnu/4.6/../../../../lib/librte_pmd_ixgbe.a(ixgbe_api.o)
ixgbe_update_mc_addr_list_generic                 /usr/lib/gcc/x86_64-linux-gnu/4.6/../../../../lib/librte_pmd_ixgbe.a(ixgbe_common.o)
ixgbe_update_mc_addr_list_vf                      /usr/lib/gcc/x86_64-linux-gnu/4.6/../../../../lib/librte_pmd_ixgbe.a(ixgbe_vf.o)
ixgbe_update_uc_addr_list                         /usr/lib/gcc/x86_64-linux-gnu/4.6/../../../../lib/librte_pmd_ixgbe.a(ixgbe_api.o)
ixgbe_update_uc_addr_list_generic                 /usr/lib/gcc/x86_64-linux-gnu/4.6/../../../../lib/librte_pmd_ixgbe.a(ixgbe_common.o)
ixgbe_validate_eeprom_checksum                    /usr/lib/gcc/x86_64-linux-gnu/4.6/../../../../lib/librte_pmd_ixgbe.a(ixgbe_api.o)
                                                  /usr/lib/gcc/x86_64-linux-gnu/4.6/../../../../lib/librte_pmd_ixgbe.a(ixgbe_ethdev.o)
ixgbe_validate_eeprom_checksum_X540               /usr/lib/gcc/x86_64-linux-gnu/4.6/../../../../lib/librte_pmd_ixgbe.a(ixgbe_x540.o)
ixgbe_validate_eeprom_checksum_generic            /usr/lib/gcc/x86_64-linux-gnu/4.6/../../../../lib/librte_pmd_ixgbe.a(ixgbe_common.o)
ixgbe_validate_mac_addr                           /usr/lib/gcc/x86_64-linux-gnu/4.6/../../../../lib/librte_pmd_ixgbe.a(ixgbe_common.o)
                                                  /usr/lib/gcc/x86_64-linux-gnu/4.6/../../../../lib/librte_pmd_ixgbe.a(ixgbe_x540.o)
                                                  /usr/lib/gcc/x86_64-linux-gnu/4.6/../../../../lib/librte_pmd_ixgbe.a(ixgbe_82599.o)
ixgbe_validate_phy_addr                           /usr/lib/gcc/x86_64-linux-gnu/4.6/../../../../lib/librte_pmd_ixgbe.a(ixgbe_phy.o)
ixgbe_verify_lesm_fw_enabled_82599                /usr/lib/gcc/x86_64-linux-gnu/4.6/../../../../lib/librte_pmd_ixgbe.a(ixgbe_82599.o)
                                                  /usr/lib/gcc/x86_64-linux-gnu/4.6/../../../../lib/librte_pmd_ixgbe.a(ixgbe_common.o)
ixgbe_vlan_hw_filter_disable                      /usr/lib/gcc/x86_64-linux-gnu/4.6/../../../../lib/librte_pmd_ixgbe.a(ixgbe_ethdev.o)
ixgbe_vlan_hw_filter_enable                       /usr/lib/gcc/x86_64-linux-gnu/4.6/../../../../lib/librte_pmd_ixgbe.a(ixgbe_ethdev.o)
ixgbe_vlan_hw_strip_disable_all                   /usr/lib/gcc/x86_64-linux-gnu/4.6/../../../../lib/librte_pmd_ixgbe.a(ixgbe_ethdev.o)
                                                  /usr/lib/gcc/x86_64-linux-gnu/4.6/../../../../lib/librte_pmd_ixgbe.a(ixgbe_pf.o)
ixgbe_vlan_hw_strip_enable_all                    /usr/lib/gcc/x86_64-linux-gnu/4.6/../../../../lib/librte_pmd_ixgbe.a(ixgbe_ethdev.o)
                                                  /usr/lib/gcc/x86_64-linux-gnu/4.6/../../../../lib/librte_pmd_ixgbe.a(ixgbe_pf.o)
ixgbe_write_analog_reg8                           /usr/lib/gcc/x86_64-linux-gnu/4.6/../../../../lib/librte_pmd_ixgbe.a(ixgbe_api.o)
ixgbe_write_analog_reg8_82598                     /usr/lib/gcc/x86_64-linux-gnu/4.6/../../../../lib/librte_pmd_ixgbe.a(ixgbe_82598.o)
ixgbe_write_analog_reg8_82599                     /usr/lib/gcc/x86_64-linux-gnu/4.6/../../../../lib/librte_pmd_ixgbe.a(ixgbe_82599.o)
ixgbe_write_eeprom                                /usr/lib/gcc/x86_64-linux-gnu/4.6/../../../../lib/librte_pmd_ixgbe.a(ixgbe_api.o)
ixgbe_write_eeprom_buffer                         /usr/lib/gcc/x86_64-linux-gnu/4.6/../../../../lib/librte_pmd_ixgbe.a(ixgbe_api.o)
ixgbe_write_eeprom_buffer_bit_bang_generic        /usr/lib/gcc/x86_64-linux-gnu/4.6/../../../../lib/librte_pmd_ixgbe.a(ixgbe_common.o)
ixgbe_write_eeprom_generic                        /usr/lib/gcc/x86_64-linux-gnu/4.6/../../../../lib/librte_pmd_ixgbe.a(ixgbe_common.o)
ixgbe_write_eewr_X540                             /usr/lib/gcc/x86_64-linux-gnu/4.6/../../../../lib/librte_pmd_ixgbe.a(ixgbe_x540.o)
ixgbe_write_eewr_buffer_X540                      /usr/lib/gcc/x86_64-linux-gnu/4.6/../../../../lib/librte_pmd_ixgbe.a(ixgbe_x540.o)
ixgbe_write_eewr_buffer_generic                   /usr/lib/gcc/x86_64-linux-gnu/4.6/../../../../lib/librte_pmd_ixgbe.a(ixgbe_common.o)
                                                  /usr/lib/gcc/x86_64-linux-gnu/4.6/../../../../lib/librte_pmd_ixgbe.a(ixgbe_x540.o)
ixgbe_write_eewr_generic                          /usr/lib/gcc/x86_64-linux-gnu/4.6/../../../../lib/librte_pmd_ixgbe.a(ixgbe_common.o)
                                                  /usr/lib/gcc/x86_64-linux-gnu/4.6/../../../../lib/librte_pmd_ixgbe.a(ixgbe_x540.o)
ixgbe_write_i2c_byte                              /usr/lib/gcc/x86_64-linux-gnu/4.6/../../../../lib/librte_pmd_ixgbe.a(ixgbe_api.o)
ixgbe_write_i2c_byte_generic                      /usr/lib/gcc/x86_64-linux-gnu/4.6/../../../../lib/librte_pmd_ixgbe.a(ixgbe_phy.o)
ixgbe_write_i2c_eeprom                            /usr/lib/gcc/x86_64-linux-gnu/4.6/../../../../lib/librte_pmd_ixgbe.a(ixgbe_api.o)
ixgbe_write_i2c_eeprom_generic                    /usr/lib/gcc/x86_64-linux-gnu/4.6/../../../../lib/librte_pmd_ixgbe.a(ixgbe_phy.o)
ixgbe_write_mbx                                   /usr/lib/gcc/x86_64-linux-gnu/4.6/../../../../lib/librte_pmd_ixgbe.a(ixgbe_mbx.o)
                                                  /usr/lib/gcc/x86_64-linux-gnu/4.6/../../../../lib/librte_pmd_ixgbe.a(ixgbe_pf.o)
ixgbe_write_pba_raw                               /usr/lib/gcc/x86_64-linux-gnu/4.6/../../../../lib/librte_pmd_ixgbe.a(ixgbe_common.o)
ixgbe_write_phy_reg                               /usr/lib/gcc/x86_64-linux-gnu/4.6/../../../../lib/librte_pmd_ixgbe.a(ixgbe_api.o)
ixgbe_write_phy_reg_generic                       /usr/lib/gcc/x86_64-linux-gnu/4.6/../../../../lib/librte_pmd_ixgbe.a(ixgbe_phy.o)
ixgbe_write_posted_mbx                            /usr/lib/gcc/x86_64-linux-gnu/4.6/../../../../lib/librte_pmd_ixgbe.a(ixgbe_mbx.o)
ixgbe_xmit_pkts                                   /usr/lib/gcc/x86_64-linux-gnu/4.6/../../../../lib/librte_pmd_ixgbe.a(ixgbe_rxtx.o)
                                                  /usr/lib/gcc/x86_64-linux-gnu/4.6/../../../../lib/librte_pmd_ixgbe.a(ixgbe_ethdev.o)
ixgbe_xmit_pkts_simple                            /usr/lib/gcc/x86_64-linux-gnu/4.6/../../../../lib/librte_pmd_ixgbe.a(ixgbe_rxtx.o)
ixgbevf_dev_rx_init                               /usr/lib/gcc/x86_64-linux-gnu/4.6/../../../../lib/librte_pmd_ixgbe.a(ixgbe_rxtx.o)
                                                  /usr/lib/gcc/x86_64-linux-gnu/4.6/../../../../lib/librte_pmd_ixgbe.a(ixgbe_ethdev.o)
ixgbevf_dev_rxtx_start                            /usr/lib/gcc/x86_64-linux-gnu/4.6/../../../../lib/librte_pmd_ixgbe.a(ixgbe_rxtx.o)
                                                  /usr/lib/gcc/x86_64-linux-gnu/4.6/../../../../lib/librte_pmd_ixgbe.a(ixgbe_ethdev.o)
ixgbevf_dev_tx_init                               /usr/lib/gcc/x86_64-linux-gnu/4.6/../../../../lib/librte_pmd_ixgbe.a(ixgbe_rxtx.o)
                                                  /usr/lib/gcc/x86_64-linux-gnu/4.6/../../../../lib/librte_pmd_ixgbe.a(ixgbe_ethdev.o)
ixgbevf_get_queues                                /usr/lib/gcc/x86_64-linux-gnu/4.6/../../../../lib/librte_pmd_ixgbe.a(ixgbe_vf.o)
ixgbevf_negotiate_api_version                     /usr/lib/gcc/x86_64-linux-gnu/4.6/../../../../lib/librte_pmd_ixgbe.a(ixgbe_vf.o)
ixgbevf_rlpml_set_vf                              /usr/lib/gcc/x86_64-linux-gnu/4.6/../../../../lib/librte_pmd_ixgbe.a(ixgbe_vf.o)
ixgbevf_set_uc_addr_vf                            /usr/lib/gcc/x86_64-linux-gnu/4.6/../../../../lib/librte_pmd_ixgbe.a(ixgbe_vf.o)
jrand48_r                                         /lib/x86_64-linux-gnu/libc.so.6
jrand48_r@@GLIBC_2.2.5                            /lib/x86_64-linux-gnu/libc.so.6
jrand48_r@GLIBC_2.2.5                             /lib/x86_64-linux-gnu/libc.so.6
kill                                              /lib/x86_64-linux-gnu/libc.so.6
kill@@GLIBC_2.2.5                                 /lib/x86_64-linux-gnu/libc.so.6
kill@GLIBC_2.2.5                                  /lib/x86_64-linux-gnu/libc.so.6
l2fwd_pktmbuf_pool                                main.o
lchown                                            /lib/x86_64-linux-gnu/libc.so.6
lchown@@GLIBC_2.2.5                               /lib/x86_64-linux-gnu/libc.so.6
lchown@GLIBC_2.2.5                                /lib/x86_64-linux-gnu/libc.so.6
lckpwdf                                           /lib/x86_64-linux-gnu/libc.so.6
lckpwdf@@GLIBC_2.2.5                              /lib/x86_64-linux-gnu/libc.so.6
lckpwdf@GLIBC_2.2.5                               /lib/x86_64-linux-gnu/libc.so.6
lcong48_r                                         /lib/x86_64-linux-gnu/libc.so.6
lcong48_r@@GLIBC_2.2.5                            /lib/x86_64-linux-gnu/libc.so.6
lcong48_r@GLIBC_2.2.5                             /lib/x86_64-linux-gnu/libc.so.6
lcore_config                                      /usr/lib/gcc/x86_64-linux-gnu/4.6/../../../../lib/librte_pmd_ring.a(rte_eth_ring.o)
                                                  /usr/lib/gcc/x86_64-linux-gnu/4.6/../../../../lib/librte_eal.a(eal_common_launch.o)
                                                  /usr/lib/gcc/x86_64-linux-gnu/4.6/../../../../lib/librte_eal.a(eal_lcore.o)
                                                  /usr/lib/gcc/x86_64-linux-gnu/4.6/../../../../lib/librte_eal.a(eal_thread.o)
                                                  /usr/lib/gcc/x86_64-linux-gnu/4.6/../../../../lib/librte_eal.a(eal.o)
                                                  /usr/lib/gcc/x86_64-linux-gnu/4.6/../../../../lib/librte_malloc.a(rte_malloc.o)
                                                  /usr/lib/gcc/x86_64-linux-gnu/4.6/../../../../lib/libethdev.a(rte_ethdev.o)
                                                  server.o
                                                  common.o
ldexp                                             /lib/x86_64-linux-gnu/libc.so.6
ldexp@@GLIBC_2.2.5                                /lib/x86_64-linux-gnu/libc.so.6
ldexp@GLIBC_2.2.5                                 /lib/x86_64-linux-gnu/libc.so.6
ldexpf                                            /lib/x86_64-linux-gnu/libc.so.6
ldexpf@@GLIBC_2.2.5                               /lib/x86_64-linux-gnu/libc.so.6
ldexpf@GLIBC_2.2.5                                /lib/x86_64-linux-gnu/libc.so.6
ldexpl                                            /lib/x86_64-linux-gnu/libc.so.6
ldexpl@@GLIBC_2.2.5                               /lib/x86_64-linux-gnu/libc.so.6
ldexpl@GLIBC_2.2.5                                /lib/x86_64-linux-gnu/libc.so.6
link                                              /lib/x86_64-linux-gnu/libc.so.6
link@@GLIBC_2.2.5                                 /lib/x86_64-linux-gnu/libc.so.6
link@GLIBC_2.2.5                                  /lib/x86_64-linux-gnu/libc.so.6
                                                  /lib/x86_64-linux-gnu/libpthread.so.0
listen                                            /lib/x86_64-linux-gnu/libc.so.6
listen@@GLIBC_2.2.5                               /lib/x86_64-linux-gnu/libc.so.6
listen@GLIBC_2.2.5                                /lib/x86_64-linux-gnu/libc.so.6
llseek                                            /lib/x86_64-linux-gnu/libc.so.6
llseek@@GLIBC_2.2.5                               /lib/x86_64-linux-gnu/libc.so.6
llseek@GLIBC_2.2.5                                /lib/x86_64-linux-gnu/libc.so.6
localtime_r                                       /lib/x86_64-linux-gnu/libc.so.6
localtime_r@@GLIBC_2.2.5                          /lib/x86_64-linux-gnu/libc.so.6
localtime_r@GLIBC_2.2.5                           /lib/x86_64-linux-gnu/libc.so.6
lockf64                                           /lib/x86_64-linux-gnu/libc.so.6
lockf64@@GLIBC_2.2.5                              /lib/x86_64-linux-gnu/libc.so.6
lockf64@GLIBC_2.2.5                               /lib/x86_64-linux-gnu/libc.so.6
lrand48                                           /lib/x86_64-linux-gnu/libc.so.6
                                                  /usr/lib/gcc/x86_64-linux-gnu/4.6/../../../../lib/librte_pmd_virtio.a(virtio_ethdev.o)
                                                  /usr/lib/gcc/x86_64-linux-gnu/4.6/../../../../lib/librte_pmd_ixgbe.a(ixgbe_pf.o)
                                                  /usr/lib/gcc/x86_64-linux-gnu/4.6/../../../../lib/librte_pmd_e1000.a(igb_pf.o)
lrand48@@GLIBC_2.2.5                              /lib/x86_64-linux-gnu/libc.so.6
lrand48@GLIBC_2.2.5                               /lib/x86_64-linux-gnu/libc.so.6
lseek                                             /lib/x86_64-linux-gnu/libpthread.so.0
                                                  /usr/lib/gcc/x86_64-linux-gnu/4.6/../../../../lib/librte_eal.a(eal_memory.o)
lseek64                                           /lib/x86_64-linux-gnu/libpthread.so.0
lseek64@@GLIBC_2.2.5                              /lib/x86_64-linux-gnu/libpthread.so.0
                                                  /lib/x86_64-linux-gnu/libc.so.6
lseek64@GLIBC_2.2.5                               /lib/x86_64-linux-gnu/libpthread.so.0
lseek@@GLIBC_2.2.5                                /lib/x86_64-linux-gnu/libpthread.so.0
                                                  /lib/x86_64-linux-gnu/libc.so.6
lseek@GLIBC_2.2.5                                 /lib/x86_64-linux-gnu/libpthread.so.0
main                                              main.o
                                                  /usr/lib/gcc/x86_64-linux-gnu/4.6/../../../x86_64-linux-gnu/crt1.o
makecontext                                       /lib/x86_64-linux-gnu/libc.so.6
makecontext@@GLIBC_2.2.5                          /lib/x86_64-linux-gnu/libc.so.6
makecontext@GLIBC_2.2.5                           /lib/x86_64-linux-gnu/libc.so.6
mallinfo                                          /lib/x86_64-linux-gnu/libc.so.6
mallinfo@@GLIBC_2.2.5                             /lib/x86_64-linux-gnu/libc.so.6
mallinfo@GLIBC_2.2.5                              /lib/x86_64-linux-gnu/libc.so.6
malloc                                            /lib/x86_64-linux-gnu/libc.so.6
                                                  /usr/lib/gcc/x86_64-linux-gnu/4.6/../../../../lib/librte_eal.a(eal_pci.o)
                                                  /usr/lib/gcc/x86_64-linux-gnu/4.6/../../../../lib/librte_eal.a(eal_memory.o)
                                                  common.o
malloc@@GLIBC_2.2.5                               /lib/x86_64-linux-gnu/libc.so.6
                                                  /lib/x86_64-linux-gnu/ld-linux-x86-64.so.2
malloc@GLIBC_2.2.5                                /lib/x86_64-linux-gnu/libc.so.6
                                                  /lib/x86_64-linux-gnu/libpthread.so.0
                                                  /usr/lib/gcc/x86_64-linux-gnu/4.6/../../../x86_64-linux-gnu/librt.so
malloc_elem_alloc                                 /usr/lib/gcc/x86_64-linux-gnu/4.6/../../../../lib/librte_malloc.a(malloc_elem.o)
                                                  /usr/lib/gcc/x86_64-linux-gnu/4.6/../../../../lib/librte_malloc.a(malloc_heap.o)
malloc_elem_can_hold                              /usr/lib/gcc/x86_64-linux-gnu/4.6/../../../../lib/librte_malloc.a(malloc_elem.o)
                                                  /usr/lib/gcc/x86_64-linux-gnu/4.6/../../../../lib/librte_malloc.a(malloc_heap.o)
malloc_elem_free                                  /usr/lib/gcc/x86_64-linux-gnu/4.6/../../../../lib/librte_malloc.a(malloc_elem.o)
                                                  /usr/lib/gcc/x86_64-linux-gnu/4.6/../../../../lib/librte_malloc.a(rte_malloc.o)
malloc_elem_init                                  /usr/lib/gcc/x86_64-linux-gnu/4.6/../../../../lib/librte_malloc.a(malloc_elem.o)
                                                  /usr/lib/gcc/x86_64-linux-gnu/4.6/../../../../lib/librte_malloc.a(malloc_heap.o)
malloc_elem_mkend                                 /usr/lib/gcc/x86_64-linux-gnu/4.6/../../../../lib/librte_malloc.a(malloc_elem.o)
                                                  /usr/lib/gcc/x86_64-linux-gnu/4.6/../../../../lib/librte_malloc.a(malloc_heap.o)
malloc_elem_resize                                /usr/lib/gcc/x86_64-linux-gnu/4.6/../../../../lib/librte_malloc.a(malloc_elem.o)
                                                  /usr/lib/gcc/x86_64-linux-gnu/4.6/../../../../lib/librte_malloc.a(rte_malloc.o)
malloc_get_state                                  /lib/x86_64-linux-gnu/libc.so.6
malloc_get_state@@GLIBC_2.2.5                     /lib/x86_64-linux-gnu/libc.so.6
malloc_get_state@GLIBC_2.2.5                      /lib/x86_64-linux-gnu/libc.so.6
malloc_heap_alloc                                 /usr/lib/gcc/x86_64-linux-gnu/4.6/../../../../lib/librte_malloc.a(malloc_heap.o)
                                                  /usr/lib/gcc/x86_64-linux-gnu/4.6/../../../../lib/librte_malloc.a(rte_malloc.o)
malloc_heap_get_stats                             /usr/lib/gcc/x86_64-linux-gnu/4.6/../../../../lib/librte_malloc.a(malloc_heap.o)
                                                  /usr/lib/gcc/x86_64-linux-gnu/4.6/../../../../lib/librte_malloc.a(rte_malloc.o)
malloc_set_state                                  /lib/x86_64-linux-gnu/libc.so.6
malloc_set_state@@GLIBC_2.2.5                     /lib/x86_64-linux-gnu/libc.so.6
malloc_set_state@GLIBC_2.2.5                      /lib/x86_64-linux-gnu/libc.so.6
malloc_stats                                      /lib/x86_64-linux-gnu/libc.so.6
malloc_stats@@GLIBC_2.2.5                         /lib/x86_64-linux-gnu/libc.so.6
malloc_stats@GLIBC_2.2.5                          /lib/x86_64-linux-gnu/libc.so.6
malloc_trim                                       /lib/x86_64-linux-gnu/libc.so.6
malloc_trim@@GLIBC_2.2.5                          /lib/x86_64-linux-gnu/libc.so.6
malloc_trim@GLIBC_2.2.5                           /lib/x86_64-linux-gnu/libc.so.6
malloc_usable_size                                /lib/x86_64-linux-gnu/libc.so.6
malloc_usable_size@@GLIBC_2.2.5                   /lib/x86_64-linux-gnu/libc.so.6
malloc_usable_size@GLIBC_2.2.5                    /lib/x86_64-linux-gnu/libc.so.6
mallopt                                           /lib/x86_64-linux-gnu/libc.so.6
mallopt@@GLIBC_2.2.5                              /lib/x86_64-linux-gnu/libc.so.6
mallopt@GLIBC_2.2.5                               /lib/x86_64-linux-gnu/libc.so.6
mbrlen                                            /lib/x86_64-linux-gnu/libc.so.6
mbrlen@@GLIBC_2.2.5                               /lib/x86_64-linux-gnu/libc.so.6
mbrlen@GLIBC_2.2.5                                /lib/x86_64-linux-gnu/libc.so.6
mbrtowc                                           /lib/x86_64-linux-gnu/libc.so.6
mbrtowc@@GLIBC_2.2.5                              /lib/x86_64-linux-gnu/libc.so.6
mbrtowc@GLIBC_2.2.5                               /lib/x86_64-linux-gnu/libc.so.6
mbsinit                                           /lib/x86_64-linux-gnu/libc.so.6
mbsinit@@GLIBC_2.2.5                              /lib/x86_64-linux-gnu/libc.so.6
mbsinit@GLIBC_2.2.5                               /lib/x86_64-linux-gnu/libc.so.6
mbsnrtowcs                                        /lib/x86_64-linux-gnu/libc.so.6
mbsnrtowcs@@GLIBC_2.2.5                           /lib/x86_64-linux-gnu/libc.so.6
mbsnrtowcs@GLIBC_2.2.5                            /lib/x86_64-linux-gnu/libc.so.6
mbsrtowcs                                         /lib/x86_64-linux-gnu/libc.so.6
mbsrtowcs@@GLIBC_2.2.5                            /lib/x86_64-linux-gnu/libc.so.6
mbsrtowcs@GLIBC_2.2.5                             /lib/x86_64-linux-gnu/libc.so.6
mcount                                            /lib/x86_64-linux-gnu/libc.so.6
mcount@@GLIBC_2.2.5                               /lib/x86_64-linux-gnu/libc.so.6
mcount@GLIBC_2.2.5                                /lib/x86_64-linux-gnu/libc.so.6
memalign                                          /lib/x86_64-linux-gnu/libc.so.6
memalign@@GLIBC_2.2.5                             /lib/x86_64-linux-gnu/libc.so.6
memalign@GLIBC_2.2.5                              /lib/x86_64-linux-gnu/libc.so.6
memccpy                                           /lib/x86_64-linux-gnu/libc.so.6
memccpy@@GLIBC_2.2.5                              /lib/x86_64-linux-gnu/libc.so.6
memccpy@GLIBC_2.2.5                               /lib/x86_64-linux-gnu/libc.so.6
memcmp                                            /lib/x86_64-linux-gnu/libc.so.6
                                                  /usr/lib/gcc/x86_64-linux-gnu/4.6/../../../../lib/librte_eal.a(eal_pci.o)
                                                  /usr/lib/gcc/x86_64-linux-gnu/4.6/../../../../lib/libethdev.a(rte_ethdev.o)
memcmp@@GLIBC_2.2.5                               /lib/x86_64-linux-gnu/libc.so.6
memcmp@GLIBC_2.2.5                                /lib/x86_64-linux-gnu/libc.so.6
memcpy                                            /lib/x86_64-linux-gnu/libc.so.6
                                                  /usr/lib/gcc/x86_64-linux-gnu/4.6/../../../../lib/librte_eal.a(eal_common_log.o)
                                                  /usr/lib/gcc/x86_64-linux-gnu/4.6/../../../../lib/librte_eal.a(eal_common_memzone.o)
                                                  /usr/lib/gcc/x86_64-linux-gnu/4.6/../../../../lib/librte_eal.a(eal.o)
                                                  /usr/lib/gcc/x86_64-linux-gnu/4.6/../../../../lib/librte_pmd_ixgbe.a(ixgbe_common.o)
                                                  /usr/lib/gcc/x86_64-linux-gnu/4.6/../../../../lib/librte_pmd_e1000.a(e1000_nvm.o)
memcpy@@GLIBC_2.14                                /lib/x86_64-linux-gnu/libc.so.6
memcpy@GLIBC_2.14                                 /lib/x86_64-linux-gnu/libc.so.6
                                                  /lib/x86_64-linux-gnu/libpthread.so.0
                                                  /usr/lib/gcc/x86_64-linux-gnu/4.6/../../../x86_64-linux-gnu/librt.so
mempcpy                                           /lib/x86_64-linux-gnu/libc.so.6
mempcpy@@GLIBC_2.2.5                              /lib/x86_64-linux-gnu/libc.so.6
mempcpy@GLIBC_2.2.5                               /lib/x86_64-linux-gnu/libc.so.6
                                                  /lib/x86_64-linux-gnu/libpthread.so.0
                                                  /usr/lib/gcc/x86_64-linux-gnu/4.6/../../../x86_64-linux-gnu/librt.so
mempool_init                                      common.o
                                                  main.o
memset                                            /lib/x86_64-linux-gnu/libc.so.6
                                                  /usr/lib/gcc/x86_64-linux-gnu/4.6/../../../../lib/librte_eal.a(eal_common_memzone.o)
                                                  /usr/lib/gcc/x86_64-linux-gnu/4.6/../../../../lib/librte_eal.a(eal_memory.o)
                                                  /usr/lib/gcc/x86_64-linux-gnu/4.6/../../../../lib/librte_mempool.a(rte_mempool.o)
                                                  /usr/lib/gcc/x86_64-linux-gnu/4.6/../../../../lib/librte_malloc.a(rte_malloc.o)
                                                  /usr/lib/gcc/x86_64-linux-gnu/4.6/../../../../lib/libethdev.a(rte_ethdev.o)
                                                  /usr/lib/gcc/x86_64-linux-gnu/4.6/../../../../lib/librte_mbuf.a(rte_mbuf.o)
                                                  /usr/lib/gcc/x86_64-linux-gnu/4.6/../../../../lib/librte_pmd_virtio.a(virtio_rxtx.o)
                                                  /usr/lib/gcc/x86_64-linux-gnu/4.6/../../../../lib/librte_pmd_virtio.a(virtio_ethdev.o)
memset@@GLIBC_2.2.5                               /lib/x86_64-linux-gnu/libc.so.6
memset@GLIBC_2.2.5                                /lib/x86_64-linux-gnu/libc.so.6
                                                  /lib/x86_64-linux-gnu/libpthread.so.0
micro_sleep                                       common.o
                                                  client.o
mkdir                                             /lib/x86_64-linux-gnu/libc.so.6
mkdir@@GLIBC_2.2.5                                /lib/x86_64-linux-gnu/libc.so.6
mkdir@GLIBC_2.2.5                                 /lib/x86_64-linux-gnu/libc.so.6
mkostemp64                                        /lib/x86_64-linux-gnu/libc.so.6
mkostemp64@@GLIBC_2.7                             /lib/x86_64-linux-gnu/libc.so.6
mkostemp64@GLIBC_2.7                              /lib/x86_64-linux-gnu/libc.so.6
mkstemp64                                         /lib/x86_64-linux-gnu/libc.so.6
mkstemp64@@GLIBC_2.2.5                            /lib/x86_64-linux-gnu/libc.so.6
mkstemp64@GLIBC_2.2.5                             /lib/x86_64-linux-gnu/libc.so.6
mmap                                              /lib/x86_64-linux-gnu/libc.so.6
                                                  /usr/lib/gcc/x86_64-linux-gnu/4.6/../../../../lib/librte_eal.a(eal_pci.o)
                                                  /usr/lib/gcc/x86_64-linux-gnu/4.6/../../../../lib/librte_eal.a(eal_memory.o)
                                                  /usr/lib/gcc/x86_64-linux-gnu/4.6/../../../../lib/librte_eal.a(eal.o)
mmap64                                            /lib/x86_64-linux-gnu/libc.so.6
mmap64@@GLIBC_2.2.5                               /lib/x86_64-linux-gnu/libc.so.6
mmap64@GLIBC_2.2.5                                /lib/x86_64-linux-gnu/libc.so.6
mmap@@GLIBC_2.2.5                                 /lib/x86_64-linux-gnu/libc.so.6
mmap@GLIBC_2.2.5                                  /lib/x86_64-linux-gnu/libc.so.6
                                                  /lib/x86_64-linux-gnu/libpthread.so.0
modf                                              /lib/x86_64-linux-gnu/libc.so.6
modf@@GLIBC_2.2.5                                 /lib/x86_64-linux-gnu/libc.so.6
modf@GLIBC_2.2.5                                  /lib/x86_64-linux-gnu/libc.so.6
modff                                             /lib/x86_64-linux-gnu/libc.so.6
modff@@GLIBC_2.2.5                                /lib/x86_64-linux-gnu/libc.so.6
modff@GLIBC_2.2.5                                 /lib/x86_64-linux-gnu/libc.so.6
modfl                                             /lib/x86_64-linux-gnu/libc.so.6
modfl@@GLIBC_2.2.5                                /lib/x86_64-linux-gnu/libc.so.6
modfl@GLIBC_2.2.5                                 /lib/x86_64-linux-gnu/libc.so.6
modify_ldt                                        /lib/x86_64-linux-gnu/libc.so.6
modify_ldt@@GLIBC_2.2.5                           /lib/x86_64-linux-gnu/libc.so.6
modify_ldt@GLIBC_2.2.5                            /lib/x86_64-linux-gnu/libc.so.6
moncontrol                                        /lib/x86_64-linux-gnu/libc.so.6
moncontrol@@GLIBC_2.2.5                           /lib/x86_64-linux-gnu/libc.so.6
moncontrol@GLIBC_2.2.5                            /lib/x86_64-linux-gnu/libc.so.6
monstartup                                        /lib/x86_64-linux-gnu/libc.so.6
monstartup@@GLIBC_2.2.5                           /lib/x86_64-linux-gnu/libc.so.6
monstartup@GLIBC_2.2.5                            /lib/x86_64-linux-gnu/libc.so.6
mount                                             /lib/x86_64-linux-gnu/libc.so.6
mount@@GLIBC_2.2.5                                /lib/x86_64-linux-gnu/libc.so.6
mount@GLIBC_2.2.5                                 /lib/x86_64-linux-gnu/libc.so.6
mprotect                                          /lib/x86_64-linux-gnu/libc.so.6
mprotect@@GLIBC_2.2.5                             /lib/x86_64-linux-gnu/libc.so.6
mprotect@GLIBC_2.2.5                              /lib/x86_64-linux-gnu/libc.so.6
                                                  /lib/x86_64-linux-gnu/libpthread.so.0
mq_setattr                                        /usr/lib/gcc/x86_64-linux-gnu/4.6/../../../x86_64-linux-gnu/librt.so
mq_setattr@@GLIBC_2.3.4                           /usr/lib/gcc/x86_64-linux-gnu/4.6/../../../x86_64-linux-gnu/librt.so
mq_setattr@GLIBC_2.3.4                            /usr/lib/gcc/x86_64-linux-gnu/4.6/../../../x86_64-linux-gnu/librt.so
mq_timedreceive                                   /usr/lib/gcc/x86_64-linux-gnu/4.6/../../../x86_64-linux-gnu/librt.so
mq_timedreceive@@GLIBC_2.3.4                      /usr/lib/gcc/x86_64-linux-gnu/4.6/../../../x86_64-linux-gnu/librt.so
mq_timedreceive@GLIBC_2.3.4                       /usr/lib/gcc/x86_64-linux-gnu/4.6/../../../x86_64-linux-gnu/librt.so
mq_timedsend                                      /usr/lib/gcc/x86_64-linux-gnu/4.6/../../../x86_64-linux-gnu/librt.so
mq_timedsend@@GLIBC_2.3.4                         /usr/lib/gcc/x86_64-linux-gnu/4.6/../../../x86_64-linux-gnu/librt.so
mq_timedsend@GLIBC_2.3.4                          /usr/lib/gcc/x86_64-linux-gnu/4.6/../../../x86_64-linux-gnu/librt.so
mremap                                            /lib/x86_64-linux-gnu/libc.so.6
mremap@@GLIBC_2.2.5                               /lib/x86_64-linux-gnu/libc.so.6
mremap@GLIBC_2.2.5                                /lib/x86_64-linux-gnu/libc.so.6
msgctl                                            /lib/x86_64-linux-gnu/libc.so.6
msgctl@@GLIBC_2.2.5                               /lib/x86_64-linux-gnu/libc.so.6
msgctl@GLIBC_2.2.5                                /lib/x86_64-linux-gnu/libc.so.6
msgget                                            /lib/x86_64-linux-gnu/libc.so.6
msgget@@GLIBC_2.2.5                               /lib/x86_64-linux-gnu/libc.so.6
msgget@GLIBC_2.2.5                                /lib/x86_64-linux-gnu/libc.so.6
msgrcv                                            /lib/x86_64-linux-gnu/libc.so.6
msgrcv@@GLIBC_2.2.5                               /lib/x86_64-linux-gnu/libc.so.6
msgrcv@GLIBC_2.2.5                                /lib/x86_64-linux-gnu/libc.so.6
msgsnd                                            /lib/x86_64-linux-gnu/libc.so.6
msgsnd@@GLIBC_2.2.5                               /lib/x86_64-linux-gnu/libc.so.6
msgsnd@GLIBC_2.2.5                                /lib/x86_64-linux-gnu/libc.so.6
msync                                             /lib/x86_64-linux-gnu/libpthread.so.0
msync@@GLIBC_2.2.5                                /lib/x86_64-linux-gnu/libpthread.so.0
                                                  /lib/x86_64-linux-gnu/libc.so.6
msync@GLIBC_2.2.5                                 /lib/x86_64-linux-gnu/libpthread.so.0
munmap                                            /lib/x86_64-linux-gnu/libc.so.6
                                                  /usr/lib/gcc/x86_64-linux-gnu/4.6/../../../../lib/librte_eal.a(eal_memory.o)
munmap@@GLIBC_2.2.5                               /lib/x86_64-linux-gnu/libc.so.6
munmap@GLIBC_2.2.5                                /lib/x86_64-linux-gnu/libc.so.6
                                                  /lib/x86_64-linux-gnu/libpthread.so.0
nanosleep                                         /lib/x86_64-linux-gnu/libpthread.so.0
                                                  /usr/lib/gcc/x86_64-linux-gnu/4.6/../../../../lib/librte_eal.a(eal_timer.o)
nanosleep@@GLIBC_2.2.5                            /lib/x86_64-linux-gnu/libpthread.so.0
                                                  /lib/x86_64-linux-gnu/libc.so.6
nanosleep@GLIBC_2.2.5                             /lib/x86_64-linux-gnu/libpthread.so.0
newlocale                                         /lib/x86_64-linux-gnu/libc.so.6
newlocale@@GLIBC_2.3                              /lib/x86_64-linux-gnu/libc.so.6
newlocale@GLIBC_2.3                               /lib/x86_64-linux-gnu/libc.so.6
ngettext                                          /lib/x86_64-linux-gnu/libc.so.6
ngettext@@GLIBC_2.2.5                             /lib/x86_64-linux-gnu/libc.so.6
ngettext@GLIBC_2.2.5                              /lib/x86_64-linux-gnu/libc.so.6
nl_langinfo_l                                     /lib/x86_64-linux-gnu/libc.so.6
nl_langinfo_l@@GLIBC_2.3                          /lib/x86_64-linux-gnu/libc.so.6
nl_langinfo_l@GLIBC_2.3                           /lib/x86_64-linux-gnu/libc.so.6
nrand48_r                                         /lib/x86_64-linux-gnu/libc.so.6
nrand48_r@@GLIBC_2.2.5                            /lib/x86_64-linux-gnu/libc.so.6
nrand48_r@GLIBC_2.2.5                             /lib/x86_64-linux-gnu/libc.so.6
ntohl                                             /lib/x86_64-linux-gnu/libc.so.6
ntohl@@GLIBC_2.2.5                                /lib/x86_64-linux-gnu/libc.so.6
ntohl@GLIBC_2.2.5                                 /lib/x86_64-linux-gnu/libc.so.6
ntohs                                             /lib/x86_64-linux-gnu/libc.so.6
ntohs@@GLIBC_2.2.5                                /lib/x86_64-linux-gnu/libc.so.6
ntohs@GLIBC_2.2.5                                 /lib/x86_64-linux-gnu/libc.so.6
ntp_adjtime                                       /lib/x86_64-linux-gnu/libc.so.6
ntp_adjtime@@GLIBC_2.2.5                          /lib/x86_64-linux-gnu/libc.so.6
ntp_adjtime@GLIBC_2.2.5                           /lib/x86_64-linux-gnu/libc.so.6
obstack_printf                                    /lib/x86_64-linux-gnu/libc.so.6
obstack_printf@@GLIBC_2.2.5                       /lib/x86_64-linux-gnu/libc.so.6
obstack_printf@GLIBC_2.2.5                        /lib/x86_64-linux-gnu/libc.so.6
obstack_vprintf                                   /lib/x86_64-linux-gnu/libc.so.6
obstack_vprintf@@GLIBC_2.2.5                      /lib/x86_64-linux-gnu/libc.so.6
obstack_vprintf@GLIBC_2.2.5                       /lib/x86_64-linux-gnu/libc.so.6
on_exit                                           /lib/x86_64-linux-gnu/libc.so.6
on_exit@@GLIBC_2.2.5                              /lib/x86_64-linux-gnu/libc.so.6
on_exit@GLIBC_2.2.5                               /lib/x86_64-linux-gnu/libc.so.6
open                                              /lib/x86_64-linux-gnu/libpthread.so.0
                                                  /usr/lib/gcc/x86_64-linux-gnu/4.6/../../../../lib/librte_eal.a(eal_pci.o)
                                                  /usr/lib/gcc/x86_64-linux-gnu/4.6/../../../../lib/librte_eal.a(eal_memory.o)
                                                  /usr/lib/gcc/x86_64-linux-gnu/4.6/../../../../lib/librte_eal.a(eal_hugepage_info.o)
                                                  /usr/lib/gcc/x86_64-linux-gnu/4.6/../../../../lib/librte_eal.a(eal.o)
open64                                            /lib/x86_64-linux-gnu/libpthread.so.0
open64@@GLIBC_2.2.5                               /lib/x86_64-linux-gnu/libpthread.so.0
                                                  /lib/x86_64-linux-gnu/libc.so.6
open64@GLIBC_2.2.5                                /lib/x86_64-linux-gnu/libpthread.so.0
open@@GLIBC_2.2.5                                 /lib/x86_64-linux-gnu/libpthread.so.0
                                                  /lib/x86_64-linux-gnu/libc.so.6
open@GLIBC_2.2.5                                  /lib/x86_64-linux-gnu/libpthread.so.0
                                                  /usr/lib/gcc/x86_64-linux-gnu/4.6/../../../x86_64-linux-gnu/librt.so
openat                                            /lib/x86_64-linux-gnu/libc.so.6
                                                  /usr/lib/gcc/x86_64-linux-gnu/4.6/../../../../lib/librte_eal.a(eal_hugepage_info.o)
openat64                                          /lib/x86_64-linux-gnu/libc.so.6
openat64@@GLIBC_2.4                               /lib/x86_64-linux-gnu/libc.so.6
openat64@GLIBC_2.4                                /lib/x86_64-linux-gnu/libc.so.6
openat@@GLIBC_2.4                                 /lib/x86_64-linux-gnu/libc.so.6
openat@GLIBC_2.4                                  /lib/x86_64-linux-gnu/libc.so.6
opendir                                           /lib/x86_64-linux-gnu/libc.so.6
                                                  /usr/lib/gcc/x86_64-linux-gnu/4.6/../../../../lib/librte_eal.a(eal_lcore.o)
                                                  /usr/lib/gcc/x86_64-linux-gnu/4.6/../../../../lib/librte_eal.a(eal_pci.o)
                                                  /usr/lib/gcc/x86_64-linux-gnu/4.6/../../../../lib/librte_eal.a(eal_hugepage_info.o)
opendir@@GLIBC_2.2.5                              /lib/x86_64-linux-gnu/libc.so.6
opendir@GLIBC_2.2.5                               /lib/x86_64-linux-gnu/libc.so.6
openlog                                           /lib/x86_64-linux-gnu/libc.so.6
                                                  /usr/lib/gcc/x86_64-linux-gnu/4.6/../../../../lib/librte_eal.a(eal_log.o)
openlog@@GLIBC_2.2.5                              /lib/x86_64-linux-gnu/libc.so.6
openlog@GLIBC_2.2.5                               /lib/x86_64-linux-gnu/libc.so.6
optarg                                            /lib/x86_64-linux-gnu/libc.so.6
                                                  /usr/lib/gcc/x86_64-linux-gnu/4.6/../../../../lib/librte_eal.a(eal.o)
optarg@@GLIBC_2.2.5                               /lib/x86_64-linux-gnu/libc.so.6
optarg@GLIBC_2.2.5                                /lib/x86_64-linux-gnu/libc.so.6
optind                                            /lib/x86_64-linux-gnu/libc.so.6
                                                  /usr/lib/gcc/x86_64-linux-gnu/4.6/../../../../lib/librte_eal.a(eal.o)
optind@@GLIBC_2.2.5                               /lib/x86_64-linux-gnu/libc.so.6
optind@GLIBC_2.2.5                                /lib/x86_64-linux-gnu/libc.so.6
pathconf                                          /lib/x86_64-linux-gnu/libc.so.6
pathconf@@GLIBC_2.2.5                             /lib/x86_64-linux-gnu/libc.so.6
pathconf@GLIBC_2.2.5                              /lib/x86_64-linux-gnu/libc.so.6
pause                                             /lib/x86_64-linux-gnu/libpthread.so.0
pause@@GLIBC_2.2.5                                /lib/x86_64-linux-gnu/libpthread.so.0
                                                  /lib/x86_64-linux-gnu/libc.so.6
pause@GLIBC_2.2.5                                 /lib/x86_64-linux-gnu/libpthread.so.0
per_lcore__lcore_id                               /usr/lib/gcc/x86_64-linux-gnu/4.6/../../../../lib/librte_eal.a(eal_thread.o)
                                                  /usr/lib/gcc/x86_64-linux-gnu/4.6/../../../../lib/librte_pmd_ring.a(rte_eth_ring.o)
                                                  /usr/lib/gcc/x86_64-linux-gnu/4.6/../../../../lib/librte_eal.a(eal_common_log.o)
                                                  /usr/lib/gcc/x86_64-linux-gnu/4.6/../../../../lib/librte_malloc.a(rte_malloc.o)
                                                  /usr/lib/gcc/x86_64-linux-gnu/4.6/../../../../lib/libethdev.a(rte_ethdev.o)
                                                  /usr/lib/gcc/x86_64-linux-gnu/4.6/../../../../lib/librte_pmd_virtio.a(virtio_rxtx.o)
                                                  /usr/lib/gcc/x86_64-linux-gnu/4.6/../../../../lib/librte_pmd_virtio.a(virtio_ethdev.o)
                                                  /usr/lib/gcc/x86_64-linux-gnu/4.6/../../../../lib/librte_pmd_ixgbe.a(ixgbe_rxtx.o)
                                                  /usr/lib/gcc/x86_64-linux-gnu/4.6/../../../../lib/librte_pmd_e1000.a(em_rxtx.o)
                                                  /usr/lib/gcc/x86_64-linux-gnu/4.6/../../../../lib/librte_pmd_e1000.a(igb_rxtx.o)
                                                  client.o
                                                  server.o
per_lcore__rte_errno                              /usr/lib/gcc/x86_64-linux-gnu/4.6/../../../../lib/librte_eal.a(eal_common_errno.o)
                                                  /usr/lib/gcc/x86_64-linux-gnu/4.6/../../../../lib/librte_eal.a(eal_common_memzone.o)
                                                  /usr/lib/gcc/x86_64-linux-gnu/4.6/../../../../lib/librte_eal.a(eal_alarm.o)
                                                  /usr/lib/gcc/x86_64-linux-gnu/4.6/../../../../lib/librte_ring.a(rte_ring.o)
                                                  /usr/lib/gcc/x86_64-linux-gnu/4.6/../../../../lib/librte_mempool.a(rte_mempool.o)
personality                                       /lib/x86_64-linux-gnu/libc.so.6
personality@@GLIBC_2.2.5                          /lib/x86_64-linux-gnu/libc.so.6
personality@GLIBC_2.2.5                           /lib/x86_64-linux-gnu/libc.so.6
pipe                                              /lib/x86_64-linux-gnu/libc.so.6
                                                  /usr/lib/gcc/x86_64-linux-gnu/4.6/../../../../lib/librte_eal.a(eal_interrupts.o)
                                                  /usr/lib/gcc/x86_64-linux-gnu/4.6/../../../../lib/librte_eal.a(eal.o)
pipe2                                             /lib/x86_64-linux-gnu/libc.so.6
pipe2@@GLIBC_2.9                                  /lib/x86_64-linux-gnu/libc.so.6
pipe2@GLIBC_2.9                                   /lib/x86_64-linux-gnu/libc.so.6
pipe@@GLIBC_2.2.5                                 /lib/x86_64-linux-gnu/libc.so.6
pipe@GLIBC_2.2.5                                  /lib/x86_64-linux-gnu/libc.so.6
poll                                              /lib/x86_64-linux-gnu/libc.so.6
poll@@GLIBC_2.2.5                                 /lib/x86_64-linux-gnu/libc.so.6
poll@GLIBC_2.2.5                                  /lib/x86_64-linux-gnu/libc.so.6
posix_memalign                                    /lib/x86_64-linux-gnu/libc.so.6
posix_memalign@@GLIBC_2.2.5                       /lib/x86_64-linux-gnu/libc.so.6
posix_memalign@GLIBC_2.2.5                        /lib/x86_64-linux-gnu/libc.so.6
posix_openpt                                      /lib/x86_64-linux-gnu/libc.so.6
posix_openpt@@GLIBC_2.2.5                         /lib/x86_64-linux-gnu/libc.so.6
posix_openpt@GLIBC_2.2.5                          /lib/x86_64-linux-gnu/libc.so.6
prctl                                             /lib/x86_64-linux-gnu/libc.so.6
prctl@@GLIBC_2.2.5                                /lib/x86_64-linux-gnu/libc.so.6
prctl@GLIBC_2.2.5                                 /lib/x86_64-linux-gnu/libc.so.6
                                                  /lib/x86_64-linux-gnu/libpthread.so.0
pread                                             /lib/x86_64-linux-gnu/libpthread.so.0
pread64                                           /lib/x86_64-linux-gnu/libpthread.so.0
pread64@@GLIBC_2.2.5                              /lib/x86_64-linux-gnu/libpthread.so.0
                                                  /lib/x86_64-linux-gnu/libc.so.6
pread64@GLIBC_2.2.5                               /lib/x86_64-linux-gnu/libpthread.so.0
pread@@GLIBC_2.2.5                                /lib/x86_64-linux-gnu/libpthread.so.0
                                                  /lib/x86_64-linux-gnu/libc.so.6
pread@GLIBC_2.2.5                                 /lib/x86_64-linux-gnu/libpthread.so.0
                                                  /usr/lib/gcc/x86_64-linux-gnu/4.6/../../../x86_64-linux-gnu/librt.so
print_buf                                         common.o
print_ether_hdr                                   common.o
print_mac                                         common.o
                                                  main.o
prlimit64                                         /lib/x86_64-linux-gnu/libc.so.6
prlimit64@@GLIBC_2.13                             /lib/x86_64-linux-gnu/libc.so.6
prlimit64@GLIBC_2.13                              /lib/x86_64-linux-gnu/libc.so.6
profil                                            /lib/x86_64-linux-gnu/libc.so.6
profil@@GLIBC_2.2.5                               /lib/x86_64-linux-gnu/libc.so.6
profil@GLIBC_2.2.5                                /lib/x86_64-linux-gnu/libc.so.6
program_invocation_name                           /lib/x86_64-linux-gnu/libc.so.6
program_invocation_name@@GLIBC_2.2.5              /lib/x86_64-linux-gnu/libc.so.6
program_invocation_name@GLIBC_2.2.5               /lib/x86_64-linux-gnu/libc.so.6
program_invocation_short_name                     /lib/x86_64-linux-gnu/libc.so.6
program_invocation_short_name@@GLIBC_2.2.5        /lib/x86_64-linux-gnu/libc.so.6
program_invocation_short_name@GLIBC_2.2.5         /lib/x86_64-linux-gnu/libc.so.6
pselect                                           /lib/x86_64-linux-gnu/libc.so.6
pselect@@GLIBC_2.2.5                              /lib/x86_64-linux-gnu/libc.so.6
pselect@GLIBC_2.2.5                               /lib/x86_64-linux-gnu/libc.so.6
pthread_create                                    /lib/x86_64-linux-gnu/libpthread.so.0
                                                  /usr/lib/gcc/x86_64-linux-gnu/4.6/../../../../lib/librte_eal.a(eal_interrupts.o)
                                                  /usr/lib/gcc/x86_64-linux-gnu/4.6/../../../../lib/librte_eal.a(eal.o)
pthread_create@@GLIBC_2.2.5                       /lib/x86_64-linux-gnu/libpthread.so.0
pthread_create@GLIBC_2.2.5                        /lib/x86_64-linux-gnu/libpthread.so.0
                                                  /usr/lib/gcc/x86_64-linux-gnu/4.6/../../../x86_64-linux-gnu/librt.so
pthread_mutex_consistent_np                       /lib/x86_64-linux-gnu/libpthread.so.0
pthread_mutex_consistent_np@@GLIBC_2.4            /lib/x86_64-linux-gnu/libpthread.so.0
pthread_mutex_consistent_np@GLIBC_2.4             /lib/x86_64-linux-gnu/libpthread.so.0
pthread_mutexattr_getkind_np                      /lib/x86_64-linux-gnu/libpthread.so.0
pthread_mutexattr_getkind_np@@GLIBC_2.2.5         /lib/x86_64-linux-gnu/libpthread.so.0
pthread_mutexattr_getkind_np@GLIBC_2.2.5          /lib/x86_64-linux-gnu/libpthread.so.0
pthread_mutexattr_getrobust_np                    /lib/x86_64-linux-gnu/libpthread.so.0
pthread_mutexattr_getrobust_np@@GLIBC_2.4         /lib/x86_64-linux-gnu/libpthread.so.0
pthread_mutexattr_getrobust_np@GLIBC_2.4          /lib/x86_64-linux-gnu/libpthread.so.0
pthread_mutexattr_setkind_np                      /lib/x86_64-linux-gnu/libpthread.so.0
pthread_mutexattr_setkind_np@@GLIBC_2.2.5         /lib/x86_64-linux-gnu/libpthread.so.0
pthread_mutexattr_setkind_np@GLIBC_2.2.5          /lib/x86_64-linux-gnu/libpthread.so.0
pthread_mutexattr_setrobust_np                    /lib/x86_64-linux-gnu/libpthread.so.0
pthread_mutexattr_setrobust_np@@GLIBC_2.4         /lib/x86_64-linux-gnu/libpthread.so.0
pthread_mutexattr_setrobust_np@GLIBC_2.4          /lib/x86_64-linux-gnu/libpthread.so.0
pthread_self                                      /lib/x86_64-linux-gnu/libpthread.so.0
                                                  /usr/lib/gcc/x86_64-linux-gnu/4.6/../../../../lib/librte_eal.a(eal_thread.o)
                                                  /usr/lib/gcc/x86_64-linux-gnu/4.6/../../../../lib/librte_eal.a(eal.o)
pthread_self@@GLIBC_2.2.5                         /lib/x86_64-linux-gnu/libpthread.so.0
                                                  /lib/x86_64-linux-gnu/libc.so.6
pthread_self@GLIBC_2.2.5                          /lib/x86_64-linux-gnu/libpthread.so.0
                                                  /usr/lib/gcc/x86_64-linux-gnu/4.6/../../../x86_64-linux-gnu/librt.so
pthread_setaffinity_np                            /lib/x86_64-linux-gnu/libpthread.so.0
                                                  /usr/lib/gcc/x86_64-linux-gnu/4.6/../../../../lib/librte_eal.a(eal_thread.o)
pthread_setaffinity_np@@GLIBC_2.3.4               /lib/x86_64-linux-gnu/libpthread.so.0
pthread_setaffinity_np@GLIBC_2.3.4                /lib/x86_64-linux-gnu/libpthread.so.0
ptsname_r                                         /lib/x86_64-linux-gnu/libc.so.6
ptsname_r@@GLIBC_2.2.5                            /lib/x86_64-linux-gnu/libc.so.6
ptsname_r@GLIBC_2.2.5                             /lib/x86_64-linux-gnu/libc.so.6
putc                                              /lib/x86_64-linux-gnu/libc.so.6
putc@@GLIBC_2.2.5                                 /lib/x86_64-linux-gnu/libc.so.6
putc@GLIBC_2.2.5                                  /lib/x86_64-linux-gnu/libc.so.6
putchar                                           /lib/x86_64-linux-gnu/libc.so.6
                                                  /usr/lib/gcc/x86_64-linux-gnu/4.6/../../../../lib/librte_eal.a(eal_common_hexdump.o)
                                                  server.o
                                                  common.o
putchar@@GLIBC_2.2.5                              /lib/x86_64-linux-gnu/libc.so.6
putchar@GLIBC_2.2.5                               /lib/x86_64-linux-gnu/libc.so.6
puts                                              /lib/x86_64-linux-gnu/libc.so.6
                                                  /usr/lib/gcc/x86_64-linux-gnu/4.6/../../../../lib/librte_eal.a(eal_common_hexdump.o)
                                                  /usr/lib/gcc/x86_64-linux-gnu/4.6/../../../../lib/librte_eal.a(eal_common_log.o)
                                                  /usr/lib/gcc/x86_64-linux-gnu/4.6/../../../../lib/librte_eal.a(eal.o)
                                                  /usr/lib/gcc/x86_64-linux-gnu/4.6/../../../../lib/librte_ring.a(rte_ring.o)
                                                  /usr/lib/gcc/x86_64-linux-gnu/4.6/../../../../lib/librte_mempool.a(rte_mempool.o)
                                                  common.o
                                                  main.o
puts@@GLIBC_2.2.5                                 /lib/x86_64-linux-gnu/libc.so.6
puts@GLIBC_2.2.5                                  /lib/x86_64-linux-gnu/libc.so.6
pututline                                         /lib/x86_64-linux-gnu/libc.so.6
pututline@@GLIBC_2.2.5                            /lib/x86_64-linux-gnu/libc.so.6
pututline@GLIBC_2.2.5                             /lib/x86_64-linux-gnu/libc.so.6
pvalloc                                           /lib/x86_64-linux-gnu/libc.so.6
pvalloc@@GLIBC_2.2.5                              /lib/x86_64-linux-gnu/libc.so.6
pvalloc@GLIBC_2.2.5                               /lib/x86_64-linux-gnu/libc.so.6
pwrite                                            /lib/x86_64-linux-gnu/libpthread.so.0
pwrite64                                          /lib/x86_64-linux-gnu/libpthread.so.0
pwrite64@@GLIBC_2.2.5                             /lib/x86_64-linux-gnu/libpthread.so.0
                                                  /lib/x86_64-linux-gnu/libc.so.6
pwrite64@GLIBC_2.2.5                              /lib/x86_64-linux-gnu/libpthread.so.0
pwrite@@GLIBC_2.2.5                               /lib/x86_64-linux-gnu/libpthread.so.0
                                                  /lib/x86_64-linux-gnu/libc.so.6
pwrite@GLIBC_2.2.5                                /lib/x86_64-linux-gnu/libpthread.so.0
rand                                              /lib/x86_64-linux-gnu/libc.so.6
                                                  common.o
rand@@GLIBC_2.2.5                                 /lib/x86_64-linux-gnu/libc.so.6
rand@GLIBC_2.2.5                                  /lib/x86_64-linux-gnu/libc.so.6
random                                            /lib/x86_64-linux-gnu/libc.so.6
random@@GLIBC_2.2.5                               /lib/x86_64-linux-gnu/libc.so.6
random@GLIBC_2.2.5                                /lib/x86_64-linux-gnu/libc.so.6
random_r                                          /lib/x86_64-linux-gnu/libc.so.6
random_r@@GLIBC_2.2.5                             /lib/x86_64-linux-gnu/libc.so.6
random_r@GLIBC_2.2.5                              /lib/x86_64-linux-gnu/libc.so.6
re_comp                                           /lib/x86_64-linux-gnu/libc.so.6
re_comp@@GLIBC_2.2.5                              /lib/x86_64-linux-gnu/libc.so.6
re_comp@GLIBC_2.2.5                               /lib/x86_64-linux-gnu/libc.so.6
re_compile_fastmap                                /lib/x86_64-linux-gnu/libc.so.6
re_compile_fastmap@@GLIBC_2.2.5                   /lib/x86_64-linux-gnu/libc.so.6
re_compile_fastmap@GLIBC_2.2.5                    /lib/x86_64-linux-gnu/libc.so.6
re_compile_pattern                                /lib/x86_64-linux-gnu/libc.so.6
re_compile_pattern@@GLIBC_2.2.5                   /lib/x86_64-linux-gnu/libc.so.6
re_compile_pattern@GLIBC_2.2.5                    /lib/x86_64-linux-gnu/libc.so.6
re_exec                                           /lib/x86_64-linux-gnu/libc.so.6
re_exec@@GLIBC_2.2.5                              /lib/x86_64-linux-gnu/libc.so.6
re_exec@GLIBC_2.2.5                               /lib/x86_64-linux-gnu/libc.so.6
re_match                                          /lib/x86_64-linux-gnu/libc.so.6
re_match@@GLIBC_2.2.5                             /lib/x86_64-linux-gnu/libc.so.6
re_match@GLIBC_2.2.5                              /lib/x86_64-linux-gnu/libc.so.6
re_match_2                                        /lib/x86_64-linux-gnu/libc.so.6
re_match_2@@GLIBC_2.2.5                           /lib/x86_64-linux-gnu/libc.so.6
re_match_2@GLIBC_2.2.5                            /lib/x86_64-linux-gnu/libc.so.6
re_search                                         /lib/x86_64-linux-gnu/libc.so.6
re_search@@GLIBC_2.2.5                            /lib/x86_64-linux-gnu/libc.so.6
re_search@GLIBC_2.2.5                             /lib/x86_64-linux-gnu/libc.so.6
re_search_2                                       /lib/x86_64-linux-gnu/libc.so.6
re_search_2@@GLIBC_2.2.5                          /lib/x86_64-linux-gnu/libc.so.6
re_search_2@GLIBC_2.2.5                           /lib/x86_64-linux-gnu/libc.so.6
re_set_registers                                  /lib/x86_64-linux-gnu/libc.so.6
re_set_registers@@GLIBC_2.2.5                     /lib/x86_64-linux-gnu/libc.so.6
re_set_registers@GLIBC_2.2.5                      /lib/x86_64-linux-gnu/libc.so.6
re_set_syntax                                     /lib/x86_64-linux-gnu/libc.so.6
re_set_syntax@@GLIBC_2.2.5                        /lib/x86_64-linux-gnu/libc.so.6
re_set_syntax@GLIBC_2.2.5                         /lib/x86_64-linux-gnu/libc.so.6
read                                              /lib/x86_64-linux-gnu/libpthread.so.0
                                                  /usr/lib/gcc/x86_64-linux-gnu/4.6/../../../../lib/librte_eal.a(eal_interrupts.o)
                                                  /usr/lib/gcc/x86_64-linux-gnu/4.6/../../../../lib/librte_eal.a(eal_thread.o)
                                                  /usr/lib/gcc/x86_64-linux-gnu/4.6/../../../../lib/librte_eal.a(eal_memory.o)
read@@GLIBC_2.2.5                                 /lib/x86_64-linux-gnu/libpthread.so.0
                                                  /lib/x86_64-linux-gnu/libc.so.6
read@GLIBC_2.2.5                                  /lib/x86_64-linux-gnu/libpthread.so.0
                                                  /usr/lib/gcc/x86_64-linux-gnu/4.6/../../../x86_64-linux-gnu/librt.so
readahead                                         /lib/x86_64-linux-gnu/libc.so.6
readahead@@GLIBC_2.3                              /lib/x86_64-linux-gnu/libc.so.6
readahead@GLIBC_2.3                               /lib/x86_64-linux-gnu/libc.so.6
readdir                                           /lib/x86_64-linux-gnu/libc.so.6
                                                  /usr/lib/gcc/x86_64-linux-gnu/4.6/../../../../lib/librte_eal.a(eal_lcore.o)
                                                  /usr/lib/gcc/x86_64-linux-gnu/4.6/../../../../lib/librte_eal.a(eal_pci.o)
                                                  /usr/lib/gcc/x86_64-linux-gnu/4.6/../../../../lib/librte_eal.a(eal_hugepage_info.o)
readdir64                                         /lib/x86_64-linux-gnu/libc.so.6
readdir64@@GLIBC_2.2.5                            /lib/x86_64-linux-gnu/libc.so.6
readdir64@GLIBC_2.2.5                             /lib/x86_64-linux-gnu/libc.so.6
readdir64_r                                       /lib/x86_64-linux-gnu/libc.so.6
readdir64_r@@GLIBC_2.2.5                          /lib/x86_64-linux-gnu/libc.so.6
readdir64_r@GLIBC_2.2.5                           /lib/x86_64-linux-gnu/libc.so.6
readdir@@GLIBC_2.2.5                              /lib/x86_64-linux-gnu/libc.so.6
readdir@GLIBC_2.2.5                               /lib/x86_64-linux-gnu/libc.so.6
readdir_r                                         /lib/x86_64-linux-gnu/libc.so.6
readdir_r@@GLIBC_2.2.5                            /lib/x86_64-linux-gnu/libc.so.6
readdir_r@GLIBC_2.2.5                             /lib/x86_64-linux-gnu/libc.so.6
readlink                                          /lib/x86_64-linux-gnu/libc.so.6
readlink@@GLIBC_2.2.5                             /lib/x86_64-linux-gnu/libc.so.6
readlink@GLIBC_2.2.5                              /lib/x86_64-linux-gnu/libc.so.6
readv                                             /lib/x86_64-linux-gnu/libc.so.6
readv@@GLIBC_2.2.5                                /lib/x86_64-linux-gnu/libc.so.6
readv@GLIBC_2.2.5                                 /lib/x86_64-linux-gnu/libc.so.6
recv                                              /lib/x86_64-linux-gnu/libpthread.so.0
recv@@GLIBC_2.2.5                                 /lib/x86_64-linux-gnu/libpthread.so.0
                                                  /lib/x86_64-linux-gnu/libc.so.6
recv@GLIBC_2.2.5                                  /lib/x86_64-linux-gnu/libpthread.so.0
                                                  /usr/lib/gcc/x86_64-linux-gnu/4.6/../../../x86_64-linux-gnu/librt.so
recvfrom                                          /lib/x86_64-linux-gnu/libpthread.so.0
recvfrom@@GLIBC_2.2.5                             /lib/x86_64-linux-gnu/libpthread.so.0
                                                  /lib/x86_64-linux-gnu/libc.so.6
recvfrom@GLIBC_2.2.5                              /lib/x86_64-linux-gnu/libpthread.so.0
recvmsg                                           /lib/x86_64-linux-gnu/libpthread.so.0
recvmsg@@GLIBC_2.2.5                              /lib/x86_64-linux-gnu/libpthread.so.0
                                                  /lib/x86_64-linux-gnu/libc.so.6
recvmsg@GLIBC_2.2.5                               /lib/x86_64-linux-gnu/libpthread.so.0
red_printf                                        common.o
                                                  client.o
                                                  server.o
                                                  main.o
regcomp                                           /lib/x86_64-linux-gnu/libc.so.6
regcomp@@GLIBC_2.2.5                              /lib/x86_64-linux-gnu/libc.so.6
regcomp@GLIBC_2.2.5                               /lib/x86_64-linux-gnu/libc.so.6
regerror                                          /lib/x86_64-linux-gnu/libc.so.6
regerror@@GLIBC_2.2.5                             /lib/x86_64-linux-gnu/libc.so.6
regerror@GLIBC_2.2.5                              /lib/x86_64-linux-gnu/libc.so.6
regfree                                           /lib/x86_64-linux-gnu/libc.so.6
regfree@@GLIBC_2.2.5                              /lib/x86_64-linux-gnu/libc.so.6
regfree@GLIBC_2.2.5                               /lib/x86_64-linux-gnu/libc.so.6
register_printf_function                          /lib/x86_64-linux-gnu/libc.so.6
register_printf_function@@GLIBC_2.2.5             /lib/x86_64-linux-gnu/libc.so.6
register_printf_function@GLIBC_2.2.5              /lib/x86_64-linux-gnu/libc.so.6
register_printf_modifier                          /lib/x86_64-linux-gnu/libc.so.6
register_printf_modifier@@GLIBC_2.10              /lib/x86_64-linux-gnu/libc.so.6
register_printf_modifier@GLIBC_2.10               /lib/x86_64-linux-gnu/libc.so.6
register_printf_specifier                         /lib/x86_64-linux-gnu/libc.so.6
register_printf_specifier@@GLIBC_2.10             /lib/x86_64-linux-gnu/libc.so.6
register_printf_specifier@GLIBC_2.10              /lib/x86_64-linux-gnu/libc.so.6
register_printf_type                              /lib/x86_64-linux-gnu/libc.so.6
register_printf_type@@GLIBC_2.10                  /lib/x86_64-linux-gnu/libc.so.6
register_printf_type@GLIBC_2.10                   /lib/x86_64-linux-gnu/libc.so.6
remap_file_pages                                  /lib/x86_64-linux-gnu/libc.so.6
remap_file_pages@@GLIBC_2.3.3                     /lib/x86_64-linux-gnu/libc.so.6
remap_file_pages@GLIBC_2.3.3                      /lib/x86_64-linux-gnu/libc.so.6
rindex                                            /lib/x86_64-linux-gnu/libc.so.6
rindex@@GLIBC_2.2.5                               /lib/x86_64-linux-gnu/libc.so.6
rindex@GLIBC_2.2.5                                /lib/x86_64-linux-gnu/libc.so.6
rmdir                                             /lib/x86_64-linux-gnu/libc.so.6
rmdir@@GLIBC_2.2.5                                /lib/x86_64-linux-gnu/libc.so.6
rmdir@GLIBC_2.2.5                                 /lib/x86_64-linux-gnu/libc.so.6
rte_calloc                                        /usr/lib/gcc/x86_64-linux-gnu/4.6/../../../../lib/librte_malloc.a(rte_malloc.o)
rte_calloc_socket                                 /usr/lib/gcc/x86_64-linux-gnu/4.6/../../../../lib/librte_malloc.a(rte_malloc.o)
rte_ctrlmbuf_init                                 /usr/lib/gcc/x86_64-linux-gnu/4.6/../../../../lib/librte_mbuf.a(rte_mbuf.o)
rte_cycles_vmware_tsc_map                         /usr/lib/gcc/x86_64-linux-gnu/4.6/../../../../lib/librte_eal.a(eal_timer.o)
                                                  /usr/lib/gcc/x86_64-linux-gnu/4.6/../../../../lib/librte_eal.a(eal.o)
                                                  client.o
                                                  server.o
                                                  common.o
rte_delay_us                                      /usr/lib/gcc/x86_64-linux-gnu/4.6/../../../../lib/librte_eal.a(eal_timer.o)
                                                  /usr/lib/gcc/x86_64-linux-gnu/4.6/../../../../lib/librte_pmd_ixgbe.a(ixgbe_x540.o)
                                                  /usr/lib/gcc/x86_64-linux-gnu/4.6/../../../../lib/librte_pmd_ixgbe.a(ixgbe_82598.o)
                                                  /usr/lib/gcc/x86_64-linux-gnu/4.6/../../../../lib/librte_pmd_ixgbe.a(ixgbe_rxtx.o)
                                                  /usr/lib/gcc/x86_64-linux-gnu/4.6/../../../../lib/librte_pmd_ixgbe.a(ixgbe_mbx.o)
                                                  /usr/lib/gcc/x86_64-linux-gnu/4.6/../../../../lib/librte_pmd_ixgbe.a(ixgbe_vf.o)
                                                  /usr/lib/gcc/x86_64-linux-gnu/4.6/../../../../lib/librte_pmd_ixgbe.a(ixgbe_phy.o)
                                                  /usr/lib/gcc/x86_64-linux-gnu/4.6/../../../../lib/librte_pmd_ixgbe.a(ixgbe_82599.o)
                                                  /usr/lib/gcc/x86_64-linux-gnu/4.6/../../../../lib/librte_pmd_ixgbe.a(ixgbe_common.o)
                                                  /usr/lib/gcc/x86_64-linux-gnu/4.6/../../../../lib/librte_pmd_ixgbe.a(ixgbe_fdir.o)
                                                  /usr/lib/gcc/x86_64-linux-gnu/4.6/../../../../lib/librte_pmd_ixgbe.a(ixgbe_ethdev.o)
                                                  /usr/lib/gcc/x86_64-linux-gnu/4.6/../../../../lib/librte_pmd_e1000.a(e1000_82542.o)
                                                  /usr/lib/gcc/x86_64-linux-gnu/4.6/../../../../lib/librte_pmd_e1000.a(e1000_82540.o)
                                                  /usr/lib/gcc/x86_64-linux-gnu/4.6/../../../../lib/librte_pmd_e1000.a(e1000_80003es2lan.o)
                                                  /usr/lib/gcc/x86_64-linux-gnu/4.6/../../../../lib/librte_pmd_e1000.a(e1000_vf.o)
                                                  /usr/lib/gcc/x86_64-linux-gnu/4.6/../../../../lib/librte_pmd_e1000.a(e1000_phy.o)
                                                  /usr/lib/gcc/x86_64-linux-gnu/4.6/../../../../lib/librte_pmd_e1000.a(e1000_nvm.o)
                                                  /usr/lib/gcc/x86_64-linux-gnu/4.6/../../../../lib/librte_pmd_e1000.a(e1000_mbx.o)
                                                  /usr/lib/gcc/x86_64-linux-gnu/4.6/../../../../lib/librte_pmd_e1000.a(e1000_manage.o)
                                                  /usr/lib/gcc/x86_64-linux-gnu/4.6/../../../../lib/librte_pmd_e1000.a(e1000_mac.o)
                                                  /usr/lib/gcc/x86_64-linux-gnu/4.6/../../../../lib/librte_pmd_e1000.a(e1000_ich8lan.o)
                                                  /usr/lib/gcc/x86_64-linux-gnu/4.6/../../../../lib/librte_pmd_e1000.a(e1000_i210.o)
                                                  /usr/lib/gcc/x86_64-linux-gnu/4.6/../../../../lib/librte_pmd_e1000.a(e1000_82575.o)
                                                  /usr/lib/gcc/x86_64-linux-gnu/4.6/../../../../lib/librte_pmd_e1000.a(e1000_82571.o)
                                                  /usr/lib/gcc/x86_64-linux-gnu/4.6/../../../../lib/librte_pmd_e1000.a(e1000_82543.o)
                                                  /usr/lib/gcc/x86_64-linux-gnu/4.6/../../../../lib/librte_pmd_e1000.a(e1000_82541.o)
                                                  /usr/lib/gcc/x86_64-linux-gnu/4.6/../../../../lib/librte_pmd_e1000.a(em_ethdev.o)
                                                  /usr/lib/gcc/x86_64-linux-gnu/4.6/../../../../lib/librte_pmd_e1000.a(igb_ethdev.o)
rte_dump_physmem_layout                           /usr/lib/gcc/x86_64-linux-gnu/4.6/../../../../lib/librte_eal.a(eal_common_memory.o)
rte_dump_registers                                /usr/lib/gcc/x86_64-linux-gnu/4.6/../../../../lib/librte_eal.a(eal_debug.o)
rte_dump_stack                                    /usr/lib/gcc/x86_64-linux-gnu/4.6/../../../../lib/librte_eal.a(eal_debug.o)
rte_dump_tailq                                    /usr/lib/gcc/x86_64-linux-gnu/4.6/../../../../lib/librte_eal.a(eal_common_tailqs.o)
rte_eal_alarm_cancel                              /usr/lib/gcc/x86_64-linux-gnu/4.6/../../../../lib/librte_eal.a(eal_alarm.o)
rte_eal_alarm_init                                /usr/lib/gcc/x86_64-linux-gnu/4.6/../../../../lib/librte_eal.a(eal_alarm.o)
                                                  /usr/lib/gcc/x86_64-linux-gnu/4.6/../../../../lib/librte_eal.a(eal.o)
rte_eal_alarm_set                                 /usr/lib/gcc/x86_64-linux-gnu/4.6/../../../../lib/librte_eal.a(eal_alarm.o)
                                                  /usr/lib/gcc/x86_64-linux-gnu/4.6/../../../../lib/librte_pmd_ixgbe.a(ixgbe_ethdev.o)
rte_eal_common_log_init                           /usr/lib/gcc/x86_64-linux-gnu/4.6/../../../../lib/librte_eal.a(eal_common_log.o)
                                                  /usr/lib/gcc/x86_64-linux-gnu/4.6/../../../../lib/librte_eal.a(eal_log.o)
rte_eal_cpu_init                                  /usr/lib/gcc/x86_64-linux-gnu/4.6/../../../../lib/librte_eal.a(eal_lcore.o)
                                                  /usr/lib/gcc/x86_64-linux-gnu/4.6/../../../../lib/librte_eal.a(eal.o)
rte_eal_get_configuration                         /usr/lib/gcc/x86_64-linux-gnu/4.6/../../../../lib/librte_eal.a(eal.o)
                                                  /usr/lib/gcc/x86_64-linux-gnu/4.6/../../../../lib/librte_eal.a(eal_common_tailqs.o)
                                                  /usr/lib/gcc/x86_64-linux-gnu/4.6/../../../../lib/librte_eal.a(eal_common_memory.o)
                                                  /usr/lib/gcc/x86_64-linux-gnu/4.6/../../../../lib/librte_eal.a(eal_common_launch.o)
                                                  /usr/lib/gcc/x86_64-linux-gnu/4.6/../../../../lib/librte_eal.a(eal_common_memzone.o)
                                                  /usr/lib/gcc/x86_64-linux-gnu/4.6/../../../../lib/librte_eal.a(eal_lcore.o)
                                                  /usr/lib/gcc/x86_64-linux-gnu/4.6/../../../../lib/librte_eal.a(eal_thread.o)
                                                  /usr/lib/gcc/x86_64-linux-gnu/4.6/../../../../lib/librte_eal.a(eal_memory.o)
                                                  /usr/lib/gcc/x86_64-linux-gnu/4.6/../../../../lib/librte_ring.a(rte_ring.o)
                                                  /usr/lib/gcc/x86_64-linux-gnu/4.6/../../../../lib/librte_mempool.a(rte_mempool.o)
                                                  /usr/lib/gcc/x86_64-linux-gnu/4.6/../../../../lib/librte_malloc.a(malloc_heap.o)
                                                  /usr/lib/gcc/x86_64-linux-gnu/4.6/../../../../lib/librte_malloc.a(rte_malloc.o)
                                                  /usr/lib/gcc/x86_64-linux-gnu/4.6/../../../../lib/librte_pmd_virtio.a(virtio_ethdev.o)
                                                  common.o
                                                  main.o
rte_eal_get_lcore_state                           /usr/lib/gcc/x86_64-linux-gnu/4.6/../../../../lib/librte_eal.a(eal_common_launch.o)
rte_eal_get_physmem_layout                        /usr/lib/gcc/x86_64-linux-gnu/4.6/../../../../lib/librte_eal.a(eal_common_memory.o)
                                                  /usr/lib/gcc/x86_64-linux-gnu/4.6/../../../../lib/librte_eal.a(eal_common_memzone.o)
                                                  /usr/lib/gcc/x86_64-linux-gnu/4.6/../../../../lib/librte_eal.a(eal.o)
rte_eal_get_physmem_size                          /usr/lib/gcc/x86_64-linux-gnu/4.6/../../../../lib/librte_eal.a(eal_common_memory.o)
rte_eal_init                                      /usr/lib/gcc/x86_64-linux-gnu/4.6/../../../../lib/librte_eal.a(eal.o)
                                                  main.o
rte_eal_intr_init                                 /usr/lib/gcc/x86_64-linux-gnu/4.6/../../../../lib/librte_eal.a(eal_interrupts.o)
                                                  /usr/lib/gcc/x86_64-linux-gnu/4.6/../../../../lib/librte_eal.a(eal.o)
rte_eal_lcore_role                                /usr/lib/gcc/x86_64-linux-gnu/4.6/../../../../lib/librte_eal.a(eal.o)
rte_eal_log_early_init                            /usr/lib/gcc/x86_64-linux-gnu/4.6/../../../../lib/librte_eal.a(eal_common_log.o)
                                                  /usr/lib/gcc/x86_64-linux-gnu/4.6/../../../../lib/librte_eal.a(eal.o)
rte_eal_log_init                                  /usr/lib/gcc/x86_64-linux-gnu/4.6/../../../../lib/librte_eal.a(eal_log.o)
                                                  /usr/lib/gcc/x86_64-linux-gnu/4.6/../../../../lib/librte_eal.a(eal.o)
rte_eal_memory_init                               /usr/lib/gcc/x86_64-linux-gnu/4.6/../../../../lib/librte_eal.a(eal_memory.o)
                                                  /usr/lib/gcc/x86_64-linux-gnu/4.6/../../../../lib/librte_eal.a(eal.o)
rte_eal_memzone_init                              /usr/lib/gcc/x86_64-linux-gnu/4.6/../../../../lib/librte_eal.a(eal_common_memzone.o)
                                                  /usr/lib/gcc/x86_64-linux-gnu/4.6/../../../../lib/librte_eal.a(eal.o)
rte_eal_mp_remote_launch                          /usr/lib/gcc/x86_64-linux-gnu/4.6/../../../../lib/librte_eal.a(eal_common_launch.o)
                                                  /usr/lib/gcc/x86_64-linux-gnu/4.6/../../../../lib/librte_eal.a(eal.o)
                                                  main.o
rte_eal_mp_wait_lcore                             /usr/lib/gcc/x86_64-linux-gnu/4.6/../../../../lib/librte_eal.a(eal_common_launch.o)
                                                  /usr/lib/gcc/x86_64-linux-gnu/4.6/../../../../lib/librte_eal.a(eal.o)
rte_eal_non_pci_ethdev_init                       /usr/lib/gcc/x86_64-linux-gnu/4.6/../../../../lib/librte_eal.a(eal_common_nonpci_devs.o)
                                                  /usr/lib/gcc/x86_64-linux-gnu/4.6/../../../../lib/librte_eal.a(eal.o)
rte_eal_pci_dump                                  /usr/lib/gcc/x86_64-linux-gnu/4.6/../../../../lib/librte_eal.a(eal_common_pci.o)
rte_eal_pci_init                                  /usr/lib/gcc/x86_64-linux-gnu/4.6/../../../../lib/librte_eal.a(eal_pci.o)
                                                  /usr/lib/gcc/x86_64-linux-gnu/4.6/../../../../lib/librte_eal.a(eal.o)
rte_eal_pci_probe                                 /usr/lib/gcc/x86_64-linux-gnu/4.6/../../../../lib/librte_eal.a(eal_common_pci.o)
                                                  main.o
rte_eal_pci_probe_one_driver                      /usr/lib/gcc/x86_64-linux-gnu/4.6/../../../../lib/librte_eal.a(eal_pci.o)
                                                  /usr/lib/gcc/x86_64-linux-gnu/4.6/../../../../lib/librte_eal.a(eal_common_pci.o)
rte_eal_pci_register                              /usr/lib/gcc/x86_64-linux-gnu/4.6/../../../../lib/librte_eal.a(eal_common_pci.o)
                                                  /usr/lib/gcc/x86_64-linux-gnu/4.6/../../../../lib/libethdev.a(rte_ethdev.o)
rte_eal_pci_set_blacklist                         /usr/lib/gcc/x86_64-linux-gnu/4.6/../../../../lib/librte_eal.a(eal_common_pci.o)
                                                  /usr/lib/gcc/x86_64-linux-gnu/4.6/../../../../lib/librte_eal.a(eal.o)
rte_eal_pci_unregister                            /usr/lib/gcc/x86_64-linux-gnu/4.6/../../../../lib/librte_eal.a(eal_common_pci.o)
rte_eal_process_type                              /usr/lib/gcc/x86_64-linux-gnu/4.6/../../../../lib/librte_eal.a(eal.o)
                                                  /usr/lib/gcc/x86_64-linux-gnu/4.6/../../../../lib/librte_eal.a(eal_common_tailqs.o)
                                                  /usr/lib/gcc/x86_64-linux-gnu/4.6/../../../../lib/librte_eal.a(eal_common_memzone.o)
                                                  /usr/lib/gcc/x86_64-linux-gnu/4.6/../../../../lib/librte_eal.a(eal_pci.o)
                                                  /usr/lib/gcc/x86_64-linux-gnu/4.6/../../../../lib/librte_eal.a(eal_memory.o)
                                                  /usr/lib/gcc/x86_64-linux-gnu/4.6/../../../../lib/libethdev.a(rte_ethdev.o)
                                                  /usr/lib/gcc/x86_64-linux-gnu/4.6/../../../../lib/librte_pmd_virtio.a(virtio_ethdev.o)
                                                  /usr/lib/gcc/x86_64-linux-gnu/4.6/../../../../lib/librte_pmd_ixgbe.a(ixgbe_ethdev.o)
                                                  /usr/lib/gcc/x86_64-linux-gnu/4.6/../../../../lib/librte_pmd_e1000.a(em_ethdev.o)
                                                  /usr/lib/gcc/x86_64-linux-gnu/4.6/../../../../lib/librte_pmd_e1000.a(igb_ethdev.o)
rte_eal_remote_launch                             /usr/lib/gcc/x86_64-linux-gnu/4.6/../../../../lib/librte_eal.a(eal_thread.o)
                                                  /usr/lib/gcc/x86_64-linux-gnu/4.6/../../../../lib/librte_eal.a(eal_common_launch.o)
rte_eal_tailq_lookup                              /usr/lib/gcc/x86_64-linux-gnu/4.6/../../../../lib/librte_eal.a(eal_common_tailqs.o)
rte_eal_tailq_lookup_by_idx                       /usr/lib/gcc/x86_64-linux-gnu/4.6/../../../../lib/librte_eal.a(eal_common_tailqs.o)
                                                  /usr/lib/gcc/x86_64-linux-gnu/4.6/../../../../lib/librte_ring.a(rte_ring.o)
                                                  /usr/lib/gcc/x86_64-linux-gnu/4.6/../../../../lib/librte_mempool.a(rte_mempool.o)
rte_eal_tailq_reserve                             /usr/lib/gcc/x86_64-linux-gnu/4.6/../../../../lib/librte_eal.a(eal_common_tailqs.o)
rte_eal_tailq_reserve_by_idx                      /usr/lib/gcc/x86_64-linux-gnu/4.6/../../../../lib/librte_eal.a(eal_common_tailqs.o)
                                                  /usr/lib/gcc/x86_64-linux-gnu/4.6/../../../../lib/librte_eal.a(eal_pci.o)
rte_eal_tailqs_init                               /usr/lib/gcc/x86_64-linux-gnu/4.6/../../../../lib/librte_eal.a(eal_common_tailqs.o)
                                                  /usr/lib/gcc/x86_64-linux-gnu/4.6/../../../../lib/librte_eal.a(eal.o)
rte_eal_timer_init                                /usr/lib/gcc/x86_64-linux-gnu/4.6/../../../../lib/librte_eal.a(eal_timer.o)
                                                  /usr/lib/gcc/x86_64-linux-gnu/4.6/../../../../lib/librte_eal.a(eal.o)
rte_eal_wait_lcore                                /usr/lib/gcc/x86_64-linux-gnu/4.6/../../../../lib/librte_eal.a(eal_common_launch.o)
                                                  main.o
rte_em_pmd_init                                   /usr/lib/gcc/x86_64-linux-gnu/4.6/../../../../lib/librte_pmd_e1000.a(em_ethdev.o)
                                                  main.o
rte_eth_allmulticast_disable                      /usr/lib/gcc/x86_64-linux-gnu/4.6/../../../../lib/libethdev.a(rte_ethdev.o)
rte_eth_allmulticast_enable                       /usr/lib/gcc/x86_64-linux-gnu/4.6/../../../../lib/libethdev.a(rte_ethdev.o)
rte_eth_allmulticast_get                          /usr/lib/gcc/x86_64-linux-gnu/4.6/../../../../lib/libethdev.a(rte_ethdev.o)
rte_eth_dev_allocate                              /usr/lib/gcc/x86_64-linux-gnu/4.6/../../../../lib/libethdev.a(rte_ethdev.o)
                                                  /usr/lib/gcc/x86_64-linux-gnu/4.6/../../../../lib/librte_pmd_ring.a(rte_eth_ring.o)
rte_eth_dev_callback_register                     /usr/lib/gcc/x86_64-linux-gnu/4.6/../../../../lib/libethdev.a(rte_ethdev.o)
rte_eth_dev_callback_unregister                   /usr/lib/gcc/x86_64-linux-gnu/4.6/../../../../lib/libethdev.a(rte_ethdev.o)
rte_eth_dev_close                                 /usr/lib/gcc/x86_64-linux-gnu/4.6/../../../../lib/libethdev.a(rte_ethdev.o)
rte_eth_dev_configure                             /usr/lib/gcc/x86_64-linux-gnu/4.6/../../../../lib/libethdev.a(rte_ethdev.o)
                                                  main.o
rte_eth_dev_count                                 /usr/lib/gcc/x86_64-linux-gnu/4.6/../../../../lib/libethdev.a(rte_ethdev.o)
                                                  main.o
rte_eth_dev_fdir_add_perfect_filter               /usr/lib/gcc/x86_64-linux-gnu/4.6/../../../../lib/libethdev.a(rte_ethdev.o)
rte_eth_dev_fdir_add_signature_filter             /usr/lib/gcc/x86_64-linux-gnu/4.6/../../../../lib/libethdev.a(rte_ethdev.o)
rte_eth_dev_fdir_get_infos                        /usr/lib/gcc/x86_64-linux-gnu/4.6/../../../../lib/libethdev.a(rte_ethdev.o)
rte_eth_dev_fdir_remove_perfect_filter            /usr/lib/gcc/x86_64-linux-gnu/4.6/../../../../lib/libethdev.a(rte_ethdev.o)
rte_eth_dev_fdir_remove_signature_filter          /usr/lib/gcc/x86_64-linux-gnu/4.6/../../../../lib/libethdev.a(rte_ethdev.o)
rte_eth_dev_fdir_set_masks                        /usr/lib/gcc/x86_64-linux-gnu/4.6/../../../../lib/libethdev.a(rte_ethdev.o)
rte_eth_dev_fdir_update_perfect_filter            /usr/lib/gcc/x86_64-linux-gnu/4.6/../../../../lib/libethdev.a(rte_ethdev.o)
rte_eth_dev_fdir_update_signature_filter          /usr/lib/gcc/x86_64-linux-gnu/4.6/../../../../lib/libethdev.a(rte_ethdev.o)
rte_eth_dev_flow_ctrl_set                         /usr/lib/gcc/x86_64-linux-gnu/4.6/../../../../lib/libethdev.a(rte_ethdev.o)
rte_eth_dev_get_vlan_offload                      /usr/lib/gcc/x86_64-linux-gnu/4.6/../../../../lib/libethdev.a(rte_ethdev.o)
rte_eth_dev_info_get                              /usr/lib/gcc/x86_64-linux-gnu/4.6/../../../../lib/libethdev.a(rte_ethdev.o)
rte_eth_dev_mac_addr_add                          /usr/lib/gcc/x86_64-linux-gnu/4.6/../../../../lib/libethdev.a(rte_ethdev.o)
rte_eth_dev_mac_addr_remove                       /usr/lib/gcc/x86_64-linux-gnu/4.6/../../../../lib/libethdev.a(rte_ethdev.o)
rte_eth_dev_priority_flow_ctrl_set                /usr/lib/gcc/x86_64-linux-gnu/4.6/../../../../lib/libethdev.a(rte_ethdev.o)
rte_eth_dev_rss_reta_query                        /usr/lib/gcc/x86_64-linux-gnu/4.6/../../../../lib/libethdev.a(rte_ethdev.o)
rte_eth_dev_rss_reta_update                       /usr/lib/gcc/x86_64-linux-gnu/4.6/../../../../lib/libethdev.a(rte_ethdev.o)
rte_eth_dev_set_rx_queue_stats_mapping            /usr/lib/gcc/x86_64-linux-gnu/4.6/../../../../lib/libethdev.a(rte_ethdev.o)
rte_eth_dev_set_tx_queue_stats_mapping            /usr/lib/gcc/x86_64-linux-gnu/4.6/../../../../lib/libethdev.a(rte_ethdev.o)
rte_eth_dev_set_vf_rx                             /usr/lib/gcc/x86_64-linux-gnu/4.6/../../../../lib/libethdev.a(rte_ethdev.o)
rte_eth_dev_set_vf_rxmode                         /usr/lib/gcc/x86_64-linux-gnu/4.6/../../../../lib/libethdev.a(rte_ethdev.o)
rte_eth_dev_set_vf_tx                             /usr/lib/gcc/x86_64-linux-gnu/4.6/../../../../lib/libethdev.a(rte_ethdev.o)
rte_eth_dev_set_vf_vlan_filter                    /usr/lib/gcc/x86_64-linux-gnu/4.6/../../../../lib/libethdev.a(rte_ethdev.o)
rte_eth_dev_set_vlan_ether_type                   /usr/lib/gcc/x86_64-linux-gnu/4.6/../../../../lib/libethdev.a(rte_ethdev.o)
rte_eth_dev_set_vlan_offload                      /usr/lib/gcc/x86_64-linux-gnu/4.6/../../../../lib/libethdev.a(rte_ethdev.o)
rte_eth_dev_set_vlan_strip_on_queue               /usr/lib/gcc/x86_64-linux-gnu/4.6/../../../../lib/libethdev.a(rte_ethdev.o)
rte_eth_dev_socket_id                             /usr/lib/gcc/x86_64-linux-gnu/4.6/../../../../lib/libethdev.a(rte_ethdev.o)
                                                  server.o
                                                  main.o
rte_eth_dev_start                                 /usr/lib/gcc/x86_64-linux-gnu/4.6/../../../../lib/libethdev.a(rte_ethdev.o)
                                                  main.o
rte_eth_dev_stop                                  /usr/lib/gcc/x86_64-linux-gnu/4.6/../../../../lib/libethdev.a(rte_ethdev.o)
rte_eth_dev_uc_all_hash_table_set                 /usr/lib/gcc/x86_64-linux-gnu/4.6/../../../../lib/libethdev.a(rte_ethdev.o)
rte_eth_dev_uc_hash_table_set                     /usr/lib/gcc/x86_64-linux-gnu/4.6/../../../../lib/libethdev.a(rte_ethdev.o)
rte_eth_dev_vlan_filter                           /usr/lib/gcc/x86_64-linux-gnu/4.6/../../../../lib/libethdev.a(rte_ethdev.o)
rte_eth_devices                                   /usr/lib/gcc/x86_64-linux-gnu/4.6/../../../../lib/libethdev.a(rte_ethdev.o)
                                                  /usr/lib/gcc/x86_64-linux-gnu/4.6/../../../../lib/librte_pmd_ixgbe.a(ixgbe_rxtx.o)
                                                  /usr/lib/gcc/x86_64-linux-gnu/4.6/../../../../lib/librte_pmd_e1000.a(em_rxtx.o)
                                                  /usr/lib/gcc/x86_64-linux-gnu/4.6/../../../../lib/librte_pmd_e1000.a(igb_rxtx.o)
                                                  client.o
                                                  server.o
rte_eth_driver_register                           /usr/lib/gcc/x86_64-linux-gnu/4.6/../../../../lib/libethdev.a(rte_ethdev.o)
                                                  /usr/lib/gcc/x86_64-linux-gnu/4.6/../../../../lib/librte_pmd_virtio.a(virtio_ethdev.o)
                                                  /usr/lib/gcc/x86_64-linux-gnu/4.6/../../../../lib/librte_pmd_ixgbe.a(ixgbe_ethdev.o)
                                                  /usr/lib/gcc/x86_64-linux-gnu/4.6/../../../../lib/librte_pmd_e1000.a(em_ethdev.o)
                                                  /usr/lib/gcc/x86_64-linux-gnu/4.6/../../../../lib/librte_pmd_e1000.a(igb_ethdev.o)
rte_eth_from_rings                                /usr/lib/gcc/x86_64-linux-gnu/4.6/../../../../lib/librte_pmd_ring.a(rte_eth_ring.o)
rte_eth_led_off                                   /usr/lib/gcc/x86_64-linux-gnu/4.6/../../../../lib/libethdev.a(rte_ethdev.o)
rte_eth_led_on                                    /usr/lib/gcc/x86_64-linux-gnu/4.6/../../../../lib/libethdev.a(rte_ethdev.o)
rte_eth_link_get                                  /usr/lib/gcc/x86_64-linux-gnu/4.6/../../../../lib/libethdev.a(rte_ethdev.o)
                                                  common.o
rte_eth_link_get_nowait                           /usr/lib/gcc/x86_64-linux-gnu/4.6/../../../../lib/libethdev.a(rte_ethdev.o)
rte_eth_macaddr_get                               /usr/lib/gcc/x86_64-linux-gnu/4.6/../../../../lib/libethdev.a(rte_ethdev.o)
                                                  common.o
                                                  main.o
rte_eth_mirror_rule_reset                         /usr/lib/gcc/x86_64-linux-gnu/4.6/../../../../lib/libethdev.a(rte_ethdev.o)
rte_eth_mirror_rule_set                           /usr/lib/gcc/x86_64-linux-gnu/4.6/../../../../lib/libethdev.a(rte_ethdev.o)
rte_eth_promiscuous_disable                       /usr/lib/gcc/x86_64-linux-gnu/4.6/../../../../lib/libethdev.a(rte_ethdev.o)
rte_eth_promiscuous_enable                        /usr/lib/gcc/x86_64-linux-gnu/4.6/../../../../lib/libethdev.a(rte_ethdev.o)
rte_eth_promiscuous_get                           /usr/lib/gcc/x86_64-linux-gnu/4.6/../../../../lib/libethdev.a(rte_ethdev.o)
rte_eth_ring_pair_attach                          /usr/lib/gcc/x86_64-linux-gnu/4.6/../../../../lib/librte_pmd_ring.a(rte_eth_ring.o)
rte_eth_ring_pair_create                          /usr/lib/gcc/x86_64-linux-gnu/4.6/../../../../lib/librte_pmd_ring.a(rte_eth_ring.o)
rte_eth_rx_queue_setup                            /usr/lib/gcc/x86_64-linux-gnu/4.6/../../../../lib/libethdev.a(rte_ethdev.o)
                                                  main.o
rte_eth_stats_get                                 /usr/lib/gcc/x86_64-linux-gnu/4.6/../../../../lib/libethdev.a(rte_ethdev.o)
rte_eth_stats_reset                               /usr/lib/gcc/x86_64-linux-gnu/4.6/../../../../lib/libethdev.a(rte_ethdev.o)
rte_eth_tx_queue_setup                            /usr/lib/gcc/x86_64-linux-gnu/4.6/../../../../lib/libethdev.a(rte_ethdev.o)
                                                  main.o
rte_exit                                          /usr/lib/gcc/x86_64-linux-gnu/4.6/../../../../lib/librte_eal.a(eal_debug.o)
                                                  /usr/lib/gcc/x86_64-linux-gnu/4.6/../../../../lib/librte_eal.a(eal_common_pci.o)
                                                  /usr/lib/gcc/x86_64-linux-gnu/4.6/../../../../lib/librte_eal.a(eal.o)
                                                  /usr/lib/gcc/x86_64-linux-gnu/4.6/../../../../lib/librte_pmd_virtio.a(virtio_rxtx.o)
                                                  client.o
                                                  common.o
                                                  main.o
rte_free                                          /usr/lib/gcc/x86_64-linux-gnu/4.6/../../../../lib/librte_malloc.a(rte_malloc.o)
                                                  /usr/lib/gcc/x86_64-linux-gnu/4.6/../../../../lib/librte_pmd_ring.a(rte_eth_ring.o)
                                                  /usr/lib/gcc/x86_64-linux-gnu/4.6/../../../../lib/librte_eal.a(eal_alarm.o)
                                                  /usr/lib/gcc/x86_64-linux-gnu/4.6/../../../../lib/librte_eal.a(eal_interrupts.o)
                                                  /usr/lib/gcc/x86_64-linux-gnu/4.6/../../../../lib/libethdev.a(rte_ethdev.o)
                                                  /usr/lib/gcc/x86_64-linux-gnu/4.6/../../../../lib/librte_pmd_virtio.a(virtio_ethdev.o)
                                                  /usr/lib/gcc/x86_64-linux-gnu/4.6/../../../../lib/librte_pmd_ixgbe.a(ixgbe_rxtx.o)
                                                  /usr/lib/gcc/x86_64-linux-gnu/4.6/../../../../lib/librte_pmd_e1000.a(em_rxtx.o)
                                                  /usr/lib/gcc/x86_64-linux-gnu/4.6/../../../../lib/librte_pmd_e1000.a(igb_rxtx.o)
                                                  /usr/lib/gcc/x86_64-linux-gnu/4.6/../../../../lib/librte_pmd_e1000.a(igb_ethdev.o)
rte_get_tsc_hz                                    /usr/lib/gcc/x86_64-linux-gnu/4.6/../../../../lib/librte_eal.a(eal_timer.o)
rte_hexdump                                       /usr/lib/gcc/x86_64-linux-gnu/4.6/../../../../lib/librte_eal.a(eal_common_hexdump.o)
                                                  /usr/lib/gcc/x86_64-linux-gnu/4.6/../../../../lib/librte_mbuf.a(rte_mbuf.o)
rte_igb_pmd_init                                  /usr/lib/gcc/x86_64-linux-gnu/4.6/../../../../lib/librte_pmd_e1000.a(igb_ethdev.o)
                                                  main.o
rte_igbvf_pmd_init                                /usr/lib/gcc/x86_64-linux-gnu/4.6/../../../../lib/librte_pmd_e1000.a(igb_ethdev.o)
                                                  main.o
rte_intr_callback_register                        /usr/lib/gcc/x86_64-linux-gnu/4.6/../../../../lib/librte_eal.a(eal_interrupts.o)
                                                  /usr/lib/gcc/x86_64-linux-gnu/4.6/../../../../lib/librte_eal.a(eal_alarm.o)
                                                  /usr/lib/gcc/x86_64-linux-gnu/4.6/../../../../lib/librte_pmd_ixgbe.a(ixgbe_ethdev.o)
                                                  /usr/lib/gcc/x86_64-linux-gnu/4.6/../../../../lib/librte_pmd_e1000.a(em_ethdev.o)
                                                  /usr/lib/gcc/x86_64-linux-gnu/4.6/../../../../lib/librte_pmd_e1000.a(igb_ethdev.o)
rte_intr_callback_unregister                      /usr/lib/gcc/x86_64-linux-gnu/4.6/../../../../lib/librte_eal.a(eal_interrupts.o)
rte_intr_disable                                  /usr/lib/gcc/x86_64-linux-gnu/4.6/../../../../lib/librte_eal.a(eal_interrupts.o)
rte_intr_enable                                   /usr/lib/gcc/x86_64-linux-gnu/4.6/../../../../lib/librte_eal.a(eal_interrupts.o)
                                                  /usr/lib/gcc/x86_64-linux-gnu/4.6/../../../../lib/librte_pmd_ixgbe.a(ixgbe_ethdev.o)
                                                  /usr/lib/gcc/x86_64-linux-gnu/4.6/../../../../lib/librte_pmd_e1000.a(em_ethdev.o)
                                                  /usr/lib/gcc/x86_64-linux-gnu/4.6/../../../../lib/librte_pmd_e1000.a(igb_ethdev.o)
rte_ixgbe_pmd_init                                /usr/lib/gcc/x86_64-linux-gnu/4.6/../../../../lib/librte_pmd_ixgbe.a(ixgbe_ethdev.o)
                                                  main.o
rte_ixgbevf_pmd_init                              /usr/lib/gcc/x86_64-linux-gnu/4.6/../../../../lib/librte_pmd_ixgbe.a(ixgbe_ethdev.o)
                                                  main.o
rte_log                                           /usr/lib/gcc/x86_64-linux-gnu/4.6/../../../../lib/librte_eal.a(eal_common_log.o)
                                                  /usr/lib/gcc/x86_64-linux-gnu/4.6/../../../../lib/librte_pmd_ring.a(rte_eth_ring.o)
                                                  /usr/lib/gcc/x86_64-linux-gnu/4.6/../../../../lib/librte_eal.a(eal_common_whitelist.o)
                                                  /usr/lib/gcc/x86_64-linux-gnu/4.6/../../../../lib/librte_eal.a(eal_common_tailqs.o)
                                                  /usr/lib/gcc/x86_64-linux-gnu/4.6/../../../../lib/librte_eal.a(eal_common_memzone.o)
                                                  /usr/lib/gcc/x86_64-linux-gnu/4.6/../../../../lib/librte_eal.a(eal_interrupts.o)
                                                  /usr/lib/gcc/x86_64-linux-gnu/4.6/../../../../lib/librte_eal.a(eal_timer.o)
                                                  /usr/lib/gcc/x86_64-linux-gnu/4.6/../../../../lib/librte_eal.a(eal_lcore.o)
                                                  /usr/lib/gcc/x86_64-linux-gnu/4.6/../../../../lib/librte_eal.a(eal_debug.o)
                                                  /usr/lib/gcc/x86_64-linux-gnu/4.6/../../../../lib/librte_eal.a(eal_pci.o)
                                                  /usr/lib/gcc/x86_64-linux-gnu/4.6/../../../../lib/librte_eal.a(eal_thread.o)
                                                  /usr/lib/gcc/x86_64-linux-gnu/4.6/../../../../lib/librte_eal.a(eal_memory.o)
                                                  /usr/lib/gcc/x86_64-linux-gnu/4.6/../../../../lib/librte_eal.a(eal_hugepage_info.o)
                                                  /usr/lib/gcc/x86_64-linux-gnu/4.6/../../../../lib/librte_eal.a(eal.o)
                                                  /usr/lib/gcc/x86_64-linux-gnu/4.6/../../../../lib/librte_ring.a(rte_ring.o)
                                                  /usr/lib/gcc/x86_64-linux-gnu/4.6/../../../../lib/librte_mempool.a(rte_mempool.o)
                                                  /usr/lib/gcc/x86_64-linux-gnu/4.6/../../../../lib/librte_pmd_virtio.a(virtio_rxtx.o)
                                                  /usr/lib/gcc/x86_64-linux-gnu/4.6/../../../../lib/librte_pmd_ixgbe.a(ixgbe_rxtx.o)
                                                  /usr/lib/gcc/x86_64-linux-gnu/4.6/../../../../lib/librte_pmd_ixgbe.a(ixgbe_pf.o)
                                                  /usr/lib/gcc/x86_64-linux-gnu/4.6/../../../../lib/librte_pmd_ixgbe.a(ixgbe_ethdev.o)
                                                  /usr/lib/gcc/x86_64-linux-gnu/4.6/../../../../lib/librte_pmd_e1000.a(igb_pf.o)
                                                  /usr/lib/gcc/x86_64-linux-gnu/4.6/../../../../lib/librte_pmd_e1000.a(em_rxtx.o)
                                                  /usr/lib/gcc/x86_64-linux-gnu/4.6/../../../../lib/librte_pmd_e1000.a(igb_rxtx.o)
                                                  main.o
rte_log_add_in_history                            /usr/lib/gcc/x86_64-linux-gnu/4.6/../../../../lib/librte_eal.a(eal_common_log.o)
                                                  /usr/lib/gcc/x86_64-linux-gnu/4.6/../../../../lib/librte_eal.a(eal_log.o)
rte_log_cur_msg_loglevel                          /usr/lib/gcc/x86_64-linux-gnu/4.6/../../../../lib/librte_eal.a(eal_common_log.o)
                                                  /usr/lib/gcc/x86_64-linux-gnu/4.6/../../../../lib/librte_eal.a(eal_log.o)
rte_log_cur_msg_logtype                           /usr/lib/gcc/x86_64-linux-gnu/4.6/../../../../lib/librte_eal.a(eal_common_log.o)
rte_log_dump_history                              /usr/lib/gcc/x86_64-linux-gnu/4.6/../../../../lib/librte_eal.a(eal_common_log.o)
rte_log_set_history                               /usr/lib/gcc/x86_64-linux-gnu/4.6/../../../../lib/librte_eal.a(eal_common_log.o)
                                                  /usr/lib/gcc/x86_64-linux-gnu/4.6/../../../../lib/librte_eal.a(eal_debug.o)
rte_logs                                          /usr/lib/gcc/x86_64-linux-gnu/4.6/../../../../lib/librte_eal.a(eal_common_log.o)
                                                  /usr/lib/gcc/x86_64-linux-gnu/4.6/../../../../lib/librte_pmd_ring.a(rte_eth_ring.o)
                                                  /usr/lib/gcc/x86_64-linux-gnu/4.6/../../../../lib/librte_eal.a(eal_common_whitelist.o)
                                                  /usr/lib/gcc/x86_64-linux-gnu/4.6/../../../../lib/librte_eal.a(eal_common_tailqs.o)
                                                  /usr/lib/gcc/x86_64-linux-gnu/4.6/../../../../lib/librte_eal.a(eal_common_memzone.o)
                                                  /usr/lib/gcc/x86_64-linux-gnu/4.6/../../../../lib/librte_eal.a(eal_interrupts.o)
                                                  /usr/lib/gcc/x86_64-linux-gnu/4.6/../../../../lib/librte_eal.a(eal_timer.o)
                                                  /usr/lib/gcc/x86_64-linux-gnu/4.6/../../../../lib/librte_eal.a(eal_lcore.o)
                                                  /usr/lib/gcc/x86_64-linux-gnu/4.6/../../../../lib/librte_eal.a(eal_debug.o)
                                                  /usr/lib/gcc/x86_64-linux-gnu/4.6/../../../../lib/librte_eal.a(eal_pci.o)
                                                  /usr/lib/gcc/x86_64-linux-gnu/4.6/../../../../lib/librte_eal.a(eal_thread.o)
                                                  /usr/lib/gcc/x86_64-linux-gnu/4.6/../../../../lib/librte_eal.a(eal_memory.o)
                                                  /usr/lib/gcc/x86_64-linux-gnu/4.6/../../../../lib/librte_eal.a(eal_hugepage_info.o)
                                                  /usr/lib/gcc/x86_64-linux-gnu/4.6/../../../../lib/librte_eal.a(eal.o)
                                                  /usr/lib/gcc/x86_64-linux-gnu/4.6/../../../../lib/librte_ring.a(rte_ring.o)
                                                  /usr/lib/gcc/x86_64-linux-gnu/4.6/../../../../lib/librte_mempool.a(rte_mempool.o)
                                                  /usr/lib/gcc/x86_64-linux-gnu/4.6/../../../../lib/librte_pmd_virtio.a(virtio_rxtx.o)
                                                  /usr/lib/gcc/x86_64-linux-gnu/4.6/../../../../lib/librte_pmd_ixgbe.a(ixgbe_rxtx.o)
                                                  /usr/lib/gcc/x86_64-linux-gnu/4.6/../../../../lib/librte_pmd_ixgbe.a(ixgbe_pf.o)
                                                  /usr/lib/gcc/x86_64-linux-gnu/4.6/../../../../lib/librte_pmd_ixgbe.a(ixgbe_ethdev.o)
                                                  /usr/lib/gcc/x86_64-linux-gnu/4.6/../../../../lib/librte_pmd_e1000.a(igb_pf.o)
                                                  /usr/lib/gcc/x86_64-linux-gnu/4.6/../../../../lib/librte_pmd_e1000.a(em_rxtx.o)
                                                  /usr/lib/gcc/x86_64-linux-gnu/4.6/../../../../lib/librte_pmd_e1000.a(igb_rxtx.o)
                                                  main.o
rte_malloc                                        /usr/lib/gcc/x86_64-linux-gnu/4.6/../../../../lib/librte_malloc.a(rte_malloc.o)
                                                  /usr/lib/gcc/x86_64-linux-gnu/4.6/../../../../lib/librte_eal.a(eal_alarm.o)
rte_malloc_dump_stats                             /usr/lib/gcc/x86_64-linux-gnu/4.6/../../../../lib/librte_malloc.a(rte_malloc.o)
rte_malloc_get_socket_stats                       /usr/lib/gcc/x86_64-linux-gnu/4.6/../../../../lib/librte_malloc.a(rte_malloc.o)
rte_malloc_set_limit                              /usr/lib/gcc/x86_64-linux-gnu/4.6/../../../../lib/librte_malloc.a(rte_malloc.o)
rte_malloc_socket                                 /usr/lib/gcc/x86_64-linux-gnu/4.6/../../../../lib/librte_malloc.a(rte_malloc.o)
rte_malloc_validate                               /usr/lib/gcc/x86_64-linux-gnu/4.6/../../../../lib/librte_malloc.a(rte_malloc.o)
rte_mbuf_sanity_check                             /usr/lib/gcc/x86_64-linux-gnu/4.6/../../../../lib/librte_mbuf.a(rte_mbuf.o)
rte_memdump                                       /usr/lib/gcc/x86_64-linux-gnu/4.6/../../../../lib/librte_eal.a(eal_common_hexdump.o)
rte_memory_get_nchannel                           /usr/lib/gcc/x86_64-linux-gnu/4.6/../../../../lib/librte_eal.a(eal_common_memory.o)
                                                  /usr/lib/gcc/x86_64-linux-gnu/4.6/../../../../lib/librte_mempool.a(rte_mempool.o)
rte_memory_get_nrank                              /usr/lib/gcc/x86_64-linux-gnu/4.6/../../../../lib/librte_eal.a(eal_common_memory.o)
                                                  /usr/lib/gcc/x86_64-linux-gnu/4.6/../../../../lib/librte_mempool.a(rte_mempool.o)
rte_mempool_audit                                 /usr/lib/gcc/x86_64-linux-gnu/4.6/../../../../lib/librte_mempool.a(rte_mempool.o)
rte_mempool_count                                 /usr/lib/gcc/x86_64-linux-gnu/4.6/../../../../lib/librte_mempool.a(rte_mempool.o)
rte_mempool_create                                /usr/lib/gcc/x86_64-linux-gnu/4.6/../../../../lib/librte_mempool.a(rte_mempool.o)
                                                  /usr/lib/gcc/x86_64-linux-gnu/4.6/../../../../lib/librte_eal.a(eal_common_log.o)
                                                  common.o
rte_mempool_dump                                  /usr/lib/gcc/x86_64-linux-gnu/4.6/../../../../lib/librte_mempool.a(rte_mempool.o)
rte_mempool_list_dump                             /usr/lib/gcc/x86_64-linux-gnu/4.6/../../../../lib/librte_mempool.a(rte_mempool.o)
rte_mempool_lookup                                /usr/lib/gcc/x86_64-linux-gnu/4.6/../../../../lib/librte_mempool.a(rte_mempool.o)
                                                  /usr/lib/gcc/x86_64-linux-gnu/4.6/../../../../lib/librte_eal.a(eal_common_log.o)
rte_memzone_dump                                  /usr/lib/gcc/x86_64-linux-gnu/4.6/../../../../lib/librte_eal.a(eal_common_memzone.o)
rte_memzone_lookup                                /usr/lib/gcc/x86_64-linux-gnu/4.6/../../../../lib/librte_eal.a(eal_common_memzone.o)
                                                  /usr/lib/gcc/x86_64-linux-gnu/4.6/../../../../lib/libethdev.a(rte_ethdev.o)
                                                  /usr/lib/gcc/x86_64-linux-gnu/4.6/../../../../lib/librte_pmd_ixgbe.a(ixgbe_rxtx.o)
                                                  /usr/lib/gcc/x86_64-linux-gnu/4.6/../../../../lib/librte_pmd_e1000.a(em_rxtx.o)
                                                  /usr/lib/gcc/x86_64-linux-gnu/4.6/../../../../lib/librte_pmd_e1000.a(igb_rxtx.o)
rte_memzone_reserve                               /usr/lib/gcc/x86_64-linux-gnu/4.6/../../../../lib/librte_eal.a(eal_common_memzone.o)
                                                  /usr/lib/gcc/x86_64-linux-gnu/4.6/../../../../lib/librte_ring.a(rte_ring.o)
                                                  /usr/lib/gcc/x86_64-linux-gnu/4.6/../../../../lib/librte_mempool.a(rte_mempool.o)
                                                  /usr/lib/gcc/x86_64-linux-gnu/4.6/../../../../lib/librte_malloc.a(malloc_heap.o)
                                                  /usr/lib/gcc/x86_64-linux-gnu/4.6/../../../../lib/libethdev.a(rte_ethdev.o)
                                                  /usr/lib/gcc/x86_64-linux-gnu/4.6/../../../../lib/librte_pmd_e1000.a(em_rxtx.o)
rte_memzone_reserve_aligned                       /usr/lib/gcc/x86_64-linux-gnu/4.6/../../../../lib/librte_eal.a(eal_common_memzone.o)
                                                  /usr/lib/gcc/x86_64-linux-gnu/4.6/../../../../lib/librte_pmd_virtio.a(virtio_ethdev.o)
                                                  /usr/lib/gcc/x86_64-linux-gnu/4.6/../../../../lib/librte_pmd_ixgbe.a(ixgbe_rxtx.o)
                                                  /usr/lib/gcc/x86_64-linux-gnu/4.6/../../../../lib/librte_pmd_e1000.a(igb_rxtx.o)
rte_openlog_stream                                /usr/lib/gcc/x86_64-linux-gnu/4.6/../../../../lib/librte_eal.a(eal_common_log.o)
rte_pktmbuf_dump                                  /usr/lib/gcc/x86_64-linux-gnu/4.6/../../../../lib/librte_mbuf.a(rte_mbuf.o)
rte_pktmbuf_init                                  /usr/lib/gcc/x86_64-linux-gnu/4.6/../../../../lib/librte_mbuf.a(rte_mbuf.o)
                                                  common.o
rte_pktmbuf_pool_init                             /usr/lib/gcc/x86_64-linux-gnu/4.6/../../../../lib/librte_mbuf.a(rte_mbuf.o)
                                                  common.o
rte_pmd_ring_init                                 /usr/lib/gcc/x86_64-linux-gnu/4.6/../../../../lib/librte_pmd_ring.a(rte_eth_ring.o)
                                                  /usr/lib/gcc/x86_64-linux-gnu/4.6/../../../../lib/librte_eal.a(eal_common_nonpci_devs.o)
rte_realloc                                       /usr/lib/gcc/x86_64-linux-gnu/4.6/../../../../lib/librte_malloc.a(rte_malloc.o)
                                                  /usr/lib/gcc/x86_64-linux-gnu/4.6/../../../../lib/libethdev.a(rte_ethdev.o)
rte_ring_create                                   /usr/lib/gcc/x86_64-linux-gnu/4.6/../../../../lib/librte_ring.a(rte_ring.o)
                                                  /usr/lib/gcc/x86_64-linux-gnu/4.6/../../../../lib/librte_pmd_ring.a(rte_eth_ring.o)
                                                  /usr/lib/gcc/x86_64-linux-gnu/4.6/../../../../lib/librte_mempool.a(rte_mempool.o)
rte_ring_dump                                     /usr/lib/gcc/x86_64-linux-gnu/4.6/../../../../lib/librte_ring.a(rte_ring.o)
rte_ring_list_dump                                /usr/lib/gcc/x86_64-linux-gnu/4.6/../../../../lib/librte_ring.a(rte_ring.o)
rte_ring_lookup                                   /usr/lib/gcc/x86_64-linux-gnu/4.6/../../../../lib/librte_ring.a(rte_ring.o)
                                                  /usr/lib/gcc/x86_64-linux-gnu/4.6/../../../../lib/librte_pmd_ring.a(rte_eth_ring.o)
rte_ring_set_water_mark                           /usr/lib/gcc/x86_64-linux-gnu/4.6/../../../../lib/librte_ring.a(rte_ring.o)
rte_set_application_usage_hook                    /usr/lib/gcc/x86_64-linux-gnu/4.6/../../../../lib/librte_eal.a(eal.o)
rte_set_log_level                                 /usr/lib/gcc/x86_64-linux-gnu/4.6/../../../../lib/librte_eal.a(eal_common_log.o)
rte_set_log_type                                  /usr/lib/gcc/x86_64-linux-gnu/4.6/../../../../lib/librte_eal.a(eal_common_log.o)
rte_strerror                                      /usr/lib/gcc/x86_64-linux-gnu/4.6/../../../../lib/librte_eal.a(eal_common_errno.o)
rte_tailq_names                                   /usr/lib/gcc/x86_64-linux-gnu/4.6/../../../../lib/librte_eal.a(eal_common_tailqs.o)
rte_virtio_pmd_init                               /usr/lib/gcc/x86_64-linux-gnu/4.6/../../../../lib/librte_pmd_virtio.a(virtio_ethdev.o)
                                                  main.o
rte_vlog                                          /usr/lib/gcc/x86_64-linux-gnu/4.6/../../../../lib/librte_eal.a(eal_common_log.o)
                                                  /usr/lib/gcc/x86_64-linux-gnu/4.6/../../../../lib/librte_eal.a(eal_debug.o)
rte_zmalloc                                       /usr/lib/gcc/x86_64-linux-gnu/4.6/../../../../lib/librte_malloc.a(rte_malloc.o)
                                                  /usr/lib/gcc/x86_64-linux-gnu/4.6/../../../../lib/librte_eal.a(eal_interrupts.o)
                                                  /usr/lib/gcc/x86_64-linux-gnu/4.6/../../../../lib/librte_eal.a(eal_pci.o)
                                                  /usr/lib/gcc/x86_64-linux-gnu/4.6/../../../../lib/libethdev.a(rte_ethdev.o)
                                                  /usr/lib/gcc/x86_64-linux-gnu/4.6/../../../../lib/librte_pmd_virtio.a(virtio_ethdev.o)
                                                  /usr/lib/gcc/x86_64-linux-gnu/4.6/../../../../lib/librte_pmd_ixgbe.a(ixgbe_pf.o)
                                                  /usr/lib/gcc/x86_64-linux-gnu/4.6/../../../../lib/librte_pmd_ixgbe.a(ixgbe_ethdev.o)
                                                  /usr/lib/gcc/x86_64-linux-gnu/4.6/../../../../lib/librte_pmd_e1000.a(igb_pf.o)
                                                  /usr/lib/gcc/x86_64-linux-gnu/4.6/../../../../lib/librte_pmd_e1000.a(em_rxtx.o)
                                                  /usr/lib/gcc/x86_64-linux-gnu/4.6/../../../../lib/librte_pmd_e1000.a(em_ethdev.o)
                                                  /usr/lib/gcc/x86_64-linux-gnu/4.6/../../../../lib/librte_pmd_e1000.a(igb_rxtx.o)
                                                  /usr/lib/gcc/x86_64-linux-gnu/4.6/../../../../lib/librte_pmd_e1000.a(igb_ethdev.o)
rte_zmalloc_socket                                /usr/lib/gcc/x86_64-linux-gnu/4.6/../../../../lib/librte_malloc.a(rte_malloc.o)
                                                  /usr/lib/gcc/x86_64-linux-gnu/4.6/../../../../lib/librte_pmd_ring.a(rte_eth_ring.o)
                                                  /usr/lib/gcc/x86_64-linux-gnu/4.6/../../../../lib/librte_pmd_ixgbe.a(ixgbe_rxtx.o)
run_client                                        client.o
                                                  main.o
run_server                                        server.o
                                                  main.o
sbrk                                              /lib/x86_64-linux-gnu/libc.so.6
sbrk@@GLIBC_2.2.5                                 /lib/x86_64-linux-gnu/libc.so.6
sbrk@GLIBC_2.2.5                                  /lib/x86_64-linux-gnu/libc.so.6
scalbn                                            /lib/x86_64-linux-gnu/libc.so.6
scalbn@@GLIBC_2.2.5                               /lib/x86_64-linux-gnu/libc.so.6
scalbn@GLIBC_2.2.5                                /lib/x86_64-linux-gnu/libc.so.6
scalbnf                                           /lib/x86_64-linux-gnu/libc.so.6
scalbnf@@GLIBC_2.2.5                              /lib/x86_64-linux-gnu/libc.so.6
scalbnf@GLIBC_2.2.5                               /lib/x86_64-linux-gnu/libc.so.6
scalbnl                                           /lib/x86_64-linux-gnu/libc.so.6
scalbnl@@GLIBC_2.2.5                              /lib/x86_64-linux-gnu/libc.so.6
scalbnl@GLIBC_2.2.5                               /lib/x86_64-linux-gnu/libc.so.6
scandir64                                         /lib/x86_64-linux-gnu/libc.so.6
scandir64@@GLIBC_2.2.5                            /lib/x86_64-linux-gnu/libc.so.6
scandir64@GLIBC_2.2.5                             /lib/x86_64-linux-gnu/libc.so.6
scandirat64                                       /lib/x86_64-linux-gnu/libc.so.6
scandirat64@@GLIBC_2.15                           /lib/x86_64-linux-gnu/libc.so.6
scandirat64@GLIBC_2.15                            /lib/x86_64-linux-gnu/libc.so.6
sched_get_priority_max                            /lib/x86_64-linux-gnu/libc.so.6
sched_get_priority_max@@GLIBC_2.2.5               /lib/x86_64-linux-gnu/libc.so.6
sched_get_priority_max@GLIBC_2.2.5                /lib/x86_64-linux-gnu/libc.so.6
                                                  /lib/x86_64-linux-gnu/libpthread.so.0
sched_get_priority_min                            /lib/x86_64-linux-gnu/libc.so.6
sched_get_priority_min@@GLIBC_2.2.5               /lib/x86_64-linux-gnu/libc.so.6
sched_get_priority_min@GLIBC_2.2.5                /lib/x86_64-linux-gnu/libc.so.6
                                                  /lib/x86_64-linux-gnu/libpthread.so.0
sched_getparam                                    /lib/x86_64-linux-gnu/libc.so.6
sched_getparam@@GLIBC_2.2.5                       /lib/x86_64-linux-gnu/libc.so.6
sched_getparam@GLIBC_2.2.5                        /lib/x86_64-linux-gnu/libc.so.6
sched_getscheduler                                /lib/x86_64-linux-gnu/libc.so.6
sched_getscheduler@@GLIBC_2.2.5                   /lib/x86_64-linux-gnu/libc.so.6
sched_getscheduler@GLIBC_2.2.5                    /lib/x86_64-linux-gnu/libc.so.6
sched_rr_get_interval                             /lib/x86_64-linux-gnu/libc.so.6
sched_rr_get_interval@@GLIBC_2.2.5                /lib/x86_64-linux-gnu/libc.so.6
sched_rr_get_interval@GLIBC_2.2.5                 /lib/x86_64-linux-gnu/libc.so.6
sched_setparam                                    /lib/x86_64-linux-gnu/libc.so.6
sched_setparam@@GLIBC_2.2.5                       /lib/x86_64-linux-gnu/libc.so.6
sched_setparam@GLIBC_2.2.5                        /lib/x86_64-linux-gnu/libc.so.6
                                                  /lib/x86_64-linux-gnu/libpthread.so.0
sched_setscheduler                                /lib/x86_64-linux-gnu/libc.so.6
sched_setscheduler@@GLIBC_2.2.5                   /lib/x86_64-linux-gnu/libc.so.6
sched_setscheduler@GLIBC_2.2.5                    /lib/x86_64-linux-gnu/libc.so.6
sched_yield                                       /lib/x86_64-linux-gnu/libc.so.6
sched_yield@@GLIBC_2.2.5                          /lib/x86_64-linux-gnu/libc.so.6
sched_yield@GLIBC_2.2.5                           /lib/x86_64-linux-gnu/libc.so.6
                                                  /lib/x86_64-linux-gnu/libpthread.so.0
seed48_r                                          /lib/x86_64-linux-gnu/libc.so.6
seed48_r@@GLIBC_2.2.5                             /lib/x86_64-linux-gnu/libc.so.6
seed48_r@GLIBC_2.2.5                              /lib/x86_64-linux-gnu/libc.so.6
select                                            /lib/x86_64-linux-gnu/libc.so.6
select@@GLIBC_2.2.5                               /lib/x86_64-linux-gnu/libc.so.6
select@GLIBC_2.2.5                                /lib/x86_64-linux-gnu/libc.so.6
semctl                                            /lib/x86_64-linux-gnu/libc.so.6
semctl@@GLIBC_2.2.5                               /lib/x86_64-linux-gnu/libc.so.6
semctl@GLIBC_2.2.5                                /lib/x86_64-linux-gnu/libc.so.6
semget                                            /lib/x86_64-linux-gnu/libc.so.6
semget@@GLIBC_2.2.5                               /lib/x86_64-linux-gnu/libc.so.6
semget@GLIBC_2.2.5                                /lib/x86_64-linux-gnu/libc.so.6
semop                                             /lib/x86_64-linux-gnu/libc.so.6
semop@@GLIBC_2.2.5                                /lib/x86_64-linux-gnu/libc.so.6
semop@GLIBC_2.2.5                                 /lib/x86_64-linux-gnu/libc.so.6
send                                              /lib/x86_64-linux-gnu/libpthread.so.0
send@@GLIBC_2.2.5                                 /lib/x86_64-linux-gnu/libpthread.so.0
                                                  /lib/x86_64-linux-gnu/libc.so.6
send@GLIBC_2.2.5                                  /lib/x86_64-linux-gnu/libpthread.so.0
sendfile64                                        /lib/x86_64-linux-gnu/libc.so.6
sendfile64@@GLIBC_2.3                             /lib/x86_64-linux-gnu/libc.so.6
sendfile64@GLIBC_2.3                              /lib/x86_64-linux-gnu/libc.so.6
sendmsg                                           /lib/x86_64-linux-gnu/libpthread.so.0
sendmsg@@GLIBC_2.2.5                              /lib/x86_64-linux-gnu/libpthread.so.0
                                                  /lib/x86_64-linux-gnu/libc.so.6
sendmsg@GLIBC_2.2.5                               /lib/x86_64-linux-gnu/libpthread.so.0
sendto                                            /lib/x86_64-linux-gnu/libpthread.so.0
sendto@@GLIBC_2.2.5                               /lib/x86_64-linux-gnu/libpthread.so.0
                                                  /lib/x86_64-linux-gnu/libc.so.6
sendto@GLIBC_2.2.5                                /lib/x86_64-linux-gnu/libpthread.so.0
set_mac                                           common.o
                                                  client.o
setbuffer                                         /lib/x86_64-linux-gnu/libc.so.6
setbuffer@@GLIBC_2.2.5                            /lib/x86_64-linux-gnu/libc.so.6
setbuffer@GLIBC_2.2.5                             /lib/x86_64-linux-gnu/libc.so.6
setcontext                                        /lib/x86_64-linux-gnu/libc.so.6
setcontext@@GLIBC_2.2.5                           /lib/x86_64-linux-gnu/libc.so.6
setcontext@GLIBC_2.2.5                            /lib/x86_64-linux-gnu/libc.so.6
setenv                                            /lib/x86_64-linux-gnu/libc.so.6
setenv@@GLIBC_2.2.5                               /lib/x86_64-linux-gnu/libc.so.6
setenv@GLIBC_2.2.5                                /lib/x86_64-linux-gnu/libc.so.6
setgid                                            /lib/x86_64-linux-gnu/libc.so.6
setgid@@GLIBC_2.2.5                               /lib/x86_64-linux-gnu/libc.so.6
setgid@GLIBC_2.2.5                                /lib/x86_64-linux-gnu/libc.so.6
setitimer                                         /lib/x86_64-linux-gnu/libc.so.6
setitimer@@GLIBC_2.2.5                            /lib/x86_64-linux-gnu/libc.so.6
setitimer@GLIBC_2.2.5                             /lib/x86_64-linux-gnu/libc.so.6
setmntent                                         /lib/x86_64-linux-gnu/libc.so.6
setmntent@@GLIBC_2.2.5                            /lib/x86_64-linux-gnu/libc.so.6
setmntent@GLIBC_2.2.5                             /lib/x86_64-linux-gnu/libc.so.6
setpgid                                           /lib/x86_64-linux-gnu/libc.so.6
setpgid@@GLIBC_2.2.5                              /lib/x86_64-linux-gnu/libc.so.6
setpgid@GLIBC_2.2.5                               /lib/x86_64-linux-gnu/libc.so.6
setregid                                          /lib/x86_64-linux-gnu/libc.so.6
setregid@@GLIBC_2.2.5                             /lib/x86_64-linux-gnu/libc.so.6
setregid@GLIBC_2.2.5                              /lib/x86_64-linux-gnu/libc.so.6
setresgid                                         /lib/x86_64-linux-gnu/libc.so.6
setresgid@@GLIBC_2.2.5                            /lib/x86_64-linux-gnu/libc.so.6
setresgid@GLIBC_2.2.5                             /lib/x86_64-linux-gnu/libc.so.6
setresuid                                         /lib/x86_64-linux-gnu/libc.so.6
setresuid@@GLIBC_2.2.5                            /lib/x86_64-linux-gnu/libc.so.6
setresuid@GLIBC_2.2.5                             /lib/x86_64-linux-gnu/libc.so.6
setreuid                                          /lib/x86_64-linux-gnu/libc.so.6
setreuid@@GLIBC_2.2.5                             /lib/x86_64-linux-gnu/libc.so.6
setreuid@GLIBC_2.2.5                              /lib/x86_64-linux-gnu/libc.so.6
setrlimit                                         /lib/x86_64-linux-gnu/libc.so.6
setrlimit64                                       /lib/x86_64-linux-gnu/libc.so.6
setrlimit64@@GLIBC_2.2.5                          /lib/x86_64-linux-gnu/libc.so.6
setrlimit64@GLIBC_2.2.5                           /lib/x86_64-linux-gnu/libc.so.6
setrlimit@@GLIBC_2.2.5                            /lib/x86_64-linux-gnu/libc.so.6
setrlimit@GLIBC_2.2.5                             /lib/x86_64-linux-gnu/libc.so.6
setsid                                            /lib/x86_64-linux-gnu/libc.so.6
setsid@@GLIBC_2.2.5                               /lib/x86_64-linux-gnu/libc.so.6
setsid@GLIBC_2.2.5                                /lib/x86_64-linux-gnu/libc.so.6
setsockopt                                        /lib/x86_64-linux-gnu/libc.so.6
setsockopt@@GLIBC_2.2.5                           /lib/x86_64-linux-gnu/libc.so.6
setsockopt@GLIBC_2.2.5                            /lib/x86_64-linux-gnu/libc.so.6
setstate                                          /lib/x86_64-linux-gnu/libc.so.6
setstate@@GLIBC_2.2.5                             /lib/x86_64-linux-gnu/libc.so.6
setstate@GLIBC_2.2.5                              /lib/x86_64-linux-gnu/libc.so.6
setstate_r                                        /lib/x86_64-linux-gnu/libc.so.6
setstate_r@@GLIBC_2.2.5                           /lib/x86_64-linux-gnu/libc.so.6
setstate_r@GLIBC_2.2.5                            /lib/x86_64-linux-gnu/libc.so.6
settimeofday                                      /lib/x86_64-linux-gnu/libc.so.6
settimeofday@@GLIBC_2.2.5                         /lib/x86_64-linux-gnu/libc.so.6
settimeofday@GLIBC_2.2.5                          /lib/x86_64-linux-gnu/libc.so.6
setuid                                            /lib/x86_64-linux-gnu/libc.so.6
setuid@@GLIBC_2.2.5                               /lib/x86_64-linux-gnu/libc.so.6
setuid@GLIBC_2.2.5                                /lib/x86_64-linux-gnu/libc.so.6
setutent                                          /lib/x86_64-linux-gnu/libc.so.6
setutent@@GLIBC_2.2.5                             /lib/x86_64-linux-gnu/libc.so.6
setutent@GLIBC_2.2.5                              /lib/x86_64-linux-gnu/libc.so.6
setvbuf                                           /lib/x86_64-linux-gnu/libc.so.6
setvbuf@@GLIBC_2.2.5                              /lib/x86_64-linux-gnu/libc.so.6
setvbuf@GLIBC_2.2.5                               /lib/x86_64-linux-gnu/libc.so.6
sgetsgent_r                                       /lib/x86_64-linux-gnu/libc.so.6
sgetsgent_r@@GLIBC_2.10                           /lib/x86_64-linux-gnu/libc.so.6
sgetsgent_r@GLIBC_2.10                            /lib/x86_64-linux-gnu/libc.so.6
sgetspent_r                                       /lib/x86_64-linux-gnu/libc.so.6
sgetspent_r@@GLIBC_2.2.5                          /lib/x86_64-linux-gnu/libc.so.6
sgetspent_r@GLIBC_2.2.5                           /lib/x86_64-linux-gnu/libc.so.6
shm_alloc                                         common.o
                                                  main.o
shmat                                             /lib/x86_64-linux-gnu/libc.so.6
                                                  common.o
shmat@@GLIBC_2.2.5                                /lib/x86_64-linux-gnu/libc.so.6
shmat@GLIBC_2.2.5                                 /lib/x86_64-linux-gnu/libc.so.6
shmctl                                            /lib/x86_64-linux-gnu/libc.so.6
shmctl@@GLIBC_2.2.5                               /lib/x86_64-linux-gnu/libc.so.6
shmctl@GLIBC_2.2.5                                /lib/x86_64-linux-gnu/libc.so.6
shmdt                                             /lib/x86_64-linux-gnu/libc.so.6
shmdt@@GLIBC_2.2.5                                /lib/x86_64-linux-gnu/libc.so.6
shmdt@GLIBC_2.2.5                                 /lib/x86_64-linux-gnu/libc.so.6
shmget                                            /lib/x86_64-linux-gnu/libc.so.6
                                                  common.o
shmget@@GLIBC_2.2.5                               /lib/x86_64-linux-gnu/libc.so.6
shmget@GLIBC_2.2.5                                /lib/x86_64-linux-gnu/libc.so.6
shutdown                                          /lib/x86_64-linux-gnu/libc.so.6
shutdown@@GLIBC_2.2.5                             /lib/x86_64-linux-gnu/libc.so.6
shutdown@GLIBC_2.2.5                              /lib/x86_64-linux-gnu/libc.so.6
sigaction                                         /lib/x86_64-linux-gnu/libpthread.so.0
sigaction@@GLIBC_2.2.5                            /lib/x86_64-linux-gnu/libpthread.so.0
                                                  /lib/x86_64-linux-gnu/libc.so.6
sigaction@GLIBC_2.2.5                             /lib/x86_64-linux-gnu/libpthread.so.0
sigaltstack                                       /lib/x86_64-linux-gnu/libc.so.6
sigaltstack@@GLIBC_2.2.5                          /lib/x86_64-linux-gnu/libc.so.6
sigaltstack@GLIBC_2.2.5                           /lib/x86_64-linux-gnu/libc.so.6
sigblock                                          /lib/x86_64-linux-gnu/libc.so.6
sigblock@@GLIBC_2.2.5                             /lib/x86_64-linux-gnu/libc.so.6
sigblock@GLIBC_2.2.5                              /lib/x86_64-linux-gnu/libc.so.6
siglongjmp                                        /lib/x86_64-linux-gnu/libpthread.so.0
siglongjmp@@GLIBC_2.2.5                           /lib/x86_64-linux-gnu/libpthread.so.0
                                                  /lib/x86_64-linux-gnu/libc.so.6
siglongjmp@GLIBC_2.2.5                            /lib/x86_64-linux-gnu/libpthread.so.0
signal                                            /lib/x86_64-linux-gnu/libc.so.6
signal@@GLIBC_2.2.5                               /lib/x86_64-linux-gnu/libc.so.6
signal@GLIBC_2.2.5                                /lib/x86_64-linux-gnu/libc.so.6
sigpause                                          /lib/x86_64-linux-gnu/libc.so.6
sigpause@@GLIBC_2.2.5                             /lib/x86_64-linux-gnu/libc.so.6
sigpause@GLIBC_2.2.5                              /lib/x86_64-linux-gnu/libc.so.6
sigprocmask                                       /lib/x86_64-linux-gnu/libc.so.6
sigprocmask@@GLIBC_2.2.5                          /lib/x86_64-linux-gnu/libc.so.6
sigprocmask@GLIBC_2.2.5                           /lib/x86_64-linux-gnu/libc.so.6
sigqueue                                          /lib/x86_64-linux-gnu/libc.so.6
sigqueue@@GLIBC_2.2.5                             /lib/x86_64-linux-gnu/libc.so.6
sigqueue@GLIBC_2.2.5                              /lib/x86_64-linux-gnu/libc.so.6
sigreturn                                         /lib/x86_64-linux-gnu/libc.so.6
sigreturn@@GLIBC_2.2.5                            /lib/x86_64-linux-gnu/libc.so.6
sigreturn@GLIBC_2.2.5                             /lib/x86_64-linux-gnu/libc.so.6
sigsetmask                                        /lib/x86_64-linux-gnu/libc.so.6
sigsetmask@@GLIBC_2.2.5                           /lib/x86_64-linux-gnu/libc.so.6
sigsetmask@GLIBC_2.2.5                            /lib/x86_64-linux-gnu/libc.so.6
sigsuspend                                        /lib/x86_64-linux-gnu/libc.so.6
sigsuspend@@GLIBC_2.2.5                           /lib/x86_64-linux-gnu/libc.so.6
sigsuspend@GLIBC_2.2.5                            /lib/x86_64-linux-gnu/libc.so.6
sigtimedwait                                      /lib/x86_64-linux-gnu/libc.so.6
sigtimedwait@@GLIBC_2.2.5                         /lib/x86_64-linux-gnu/libc.so.6
sigtimedwait@GLIBC_2.2.5                          /lib/x86_64-linux-gnu/libc.so.6
sigvec                                            /lib/x86_64-linux-gnu/libc.so.6
sigvec@@GLIBC_2.2.5                               /lib/x86_64-linux-gnu/libc.so.6
sigvec@GLIBC_2.2.5                                /lib/x86_64-linux-gnu/libc.so.6
sigwait                                           /lib/x86_64-linux-gnu/libpthread.so.0
sigwait@@GLIBC_2.2.5                              /lib/x86_64-linux-gnu/libpthread.so.0
                                                  /lib/x86_64-linux-gnu/libc.so.6
sigwait@GLIBC_2.2.5                               /lib/x86_64-linux-gnu/libpthread.so.0
sigwaitinfo                                       /lib/x86_64-linux-gnu/libc.so.6
sigwaitinfo@@GLIBC_2.2.5                          /lib/x86_64-linux-gnu/libc.so.6
sigwaitinfo@GLIBC_2.2.5                           /lib/x86_64-linux-gnu/libc.so.6
sleep                                             /lib/x86_64-linux-gnu/libc.so.6
                                                  /usr/lib/gcc/x86_64-linux-gnu/4.6/../../../../lib/librte_eal.a(eal_timer.o)
sleep@@GLIBC_2.2.5                                /lib/x86_64-linux-gnu/libc.so.6
sleep@GLIBC_2.2.5                                 /lib/x86_64-linux-gnu/libc.so.6
snprintf                                          /lib/x86_64-linux-gnu/libc.so.6
snprintf@@GLIBC_2.2.5                             /lib/x86_64-linux-gnu/libc.so.6
snprintf@GLIBC_2.2.5                              /lib/x86_64-linux-gnu/libc.so.6
socket                                            /lib/x86_64-linux-gnu/libc.so.6
socket@@GLIBC_2.2.5                               /lib/x86_64-linux-gnu/libc.so.6
socket@GLIBC_2.2.5                                /lib/x86_64-linux-gnu/libc.so.6
                                                  /usr/lib/gcc/x86_64-linux-gnu/4.6/../../../x86_64-linux-gnu/librt.so
socketpair                                        /lib/x86_64-linux-gnu/libc.so.6
socketpair@@GLIBC_2.2.5                           /lib/x86_64-linux-gnu/libc.so.6
socketpair@GLIBC_2.2.5                            /lib/x86_64-linux-gnu/libc.so.6
sprofil                                           /lib/x86_64-linux-gnu/libc.so.6
sprofil@@GLIBC_2.2.5                              /lib/x86_64-linux-gnu/libc.so.6
sprofil@GLIBC_2.2.5                               /lib/x86_64-linux-gnu/libc.so.6
srand                                             /lib/x86_64-linux-gnu/libc.so.6
srand48                                           /lib/x86_64-linux-gnu/libc.so.6
                                                  /usr/lib/gcc/x86_64-linux-gnu/4.6/../../../../lib/librte_eal.a(eal.o)
srand48@@GLIBC_2.2.5                              /lib/x86_64-linux-gnu/libc.so.6
srand48@GLIBC_2.2.5                               /lib/x86_64-linux-gnu/libc.so.6
srand48_r                                         /lib/x86_64-linux-gnu/libc.so.6
srand48_r@@GLIBC_2.2.5                            /lib/x86_64-linux-gnu/libc.so.6
srand48_r@GLIBC_2.2.5                             /lib/x86_64-linux-gnu/libc.so.6
srand@@GLIBC_2.2.5                                /lib/x86_64-linux-gnu/libc.so.6
srand@GLIBC_2.2.5                                 /lib/x86_64-linux-gnu/libc.so.6
srandom                                           /lib/x86_64-linux-gnu/libc.so.6
srandom@@GLIBC_2.2.5                              /lib/x86_64-linux-gnu/libc.so.6
srandom@GLIBC_2.2.5                               /lib/x86_64-linux-gnu/libc.so.6
srandom_r                                         /lib/x86_64-linux-gnu/libc.so.6
srandom_r@@GLIBC_2.2.5                            /lib/x86_64-linux-gnu/libc.so.6
srandom_r@GLIBC_2.2.5                             /lib/x86_64-linux-gnu/libc.so.6
src_mac_arr                                       server.o
ssignal                                           /lib/x86_64-linux-gnu/libc.so.6
ssignal@@GLIBC_2.2.5                              /lib/x86_64-linux-gnu/libc.so.6
ssignal@GLIBC_2.2.5                               /lib/x86_64-linux-gnu/libc.so.6
statfs                                            /lib/x86_64-linux-gnu/libc.so.6
statfs64                                          /lib/x86_64-linux-gnu/libc.so.6
statfs64@@GLIBC_2.2.5                             /lib/x86_64-linux-gnu/libc.so.6
statfs64@GLIBC_2.2.5                              /lib/x86_64-linux-gnu/libc.so.6
statfs@@GLIBC_2.2.5                               /lib/x86_64-linux-gnu/libc.so.6
statfs@GLIBC_2.2.5                                /lib/x86_64-linux-gnu/libc.so.6
statvfs64                                         /lib/x86_64-linux-gnu/libc.so.6
statvfs64@@GLIBC_2.2.5                            /lib/x86_64-linux-gnu/libc.so.6
statvfs64@GLIBC_2.2.5                             /lib/x86_64-linux-gnu/libc.so.6
stderr                                            /lib/x86_64-linux-gnu/libc.so.6
                                                  common.o
stderr@@GLIBC_2.2.5                               /lib/x86_64-linux-gnu/libc.so.6
stderr@GLIBC_2.2.5                                /lib/x86_64-linux-gnu/libc.so.6
stdout                                            /lib/x86_64-linux-gnu/libc.so.6
                                                  /usr/lib/gcc/x86_64-linux-gnu/4.6/../../../../lib/librte_eal.a(eal_common_hexdump.o)
                                                  /usr/lib/gcc/x86_64-linux-gnu/4.6/../../../../lib/librte_eal.a(eal_common_log.o)
                                                  /usr/lib/gcc/x86_64-linux-gnu/4.6/../../../../lib/librte_eal.a(eal_log.o)
                                                  client.o
                                                  common.o
                                                  main.o
stdout@@GLIBC_2.2.5                               /lib/x86_64-linux-gnu/libc.so.6
stdout@GLIBC_2.2.5                                /lib/x86_64-linux-gnu/libc.so.6
step                                              /lib/x86_64-linux-gnu/libc.so.6
step@@GLIBC_2.2.5                                 /lib/x86_64-linux-gnu/libc.so.6
step@GLIBC_2.2.5                                  /lib/x86_64-linux-gnu/libc.so.6
stpcpy                                            /lib/x86_64-linux-gnu/libc.so.6
stpcpy@@GLIBC_2.2.5                               /lib/x86_64-linux-gnu/libc.so.6
stpcpy@GLIBC_2.2.5                                /lib/x86_64-linux-gnu/libc.so.6
stpncpy                                           /lib/x86_64-linux-gnu/libc.so.6
stpncpy@@GLIBC_2.2.5                              /lib/x86_64-linux-gnu/libc.so.6
stpncpy@GLIBC_2.2.5                               /lib/x86_64-linux-gnu/libc.so.6
strcasecmp                                        /lib/x86_64-linux-gnu/libc.so.6
strcasecmp@@GLIBC_2.2.5                           /lib/x86_64-linux-gnu/libc.so.6
strcasecmp@GLIBC_2.2.5                            /lib/x86_64-linux-gnu/libc.so.6
strcasecmp_l                                      /lib/x86_64-linux-gnu/libc.so.6
strcasecmp_l@@GLIBC_2.3                           /lib/x86_64-linux-gnu/libc.so.6
strcasecmp_l@GLIBC_2.3                            /lib/x86_64-linux-gnu/libc.so.6
strcasestr                                        /lib/x86_64-linux-gnu/libc.so.6
strcasestr@@GLIBC_2.2.5                           /lib/x86_64-linux-gnu/libc.so.6
strcasestr@GLIBC_2.2.5                            /lib/x86_64-linux-gnu/libc.so.6
strchr                                            /lib/x86_64-linux-gnu/libc.so.6
                                                  /usr/lib/gcc/x86_64-linux-gnu/4.6/../../../../lib/librte_eal.a(eal_pci.o)
                                                  /usr/lib/gcc/x86_64-linux-gnu/4.6/../../../../lib/librte_eal.a(eal_memory.o)
strchr@@GLIBC_2.2.5                               /lib/x86_64-linux-gnu/libc.so.6
strchr@GLIBC_2.2.5                                /lib/x86_64-linux-gnu/libc.so.6
strchrnul                                         /lib/x86_64-linux-gnu/libc.so.6
strchrnul@@GLIBC_2.2.5                            /lib/x86_64-linux-gnu/libc.so.6
strchrnul@GLIBC_2.2.5                             /lib/x86_64-linux-gnu/libc.so.6
strcmp                                            /lib/x86_64-linux-gnu/libc.so.6
                                                  /usr/lib/gcc/x86_64-linux-gnu/4.6/../../../../lib/librte_eal.a(eal_hugepage_info.o)
                                                  /usr/lib/gcc/x86_64-linux-gnu/4.6/../../../../lib/librte_eal.a(eal.o)
strcmp@@GLIBC_2.2.5                               /lib/x86_64-linux-gnu/libc.so.6
strcmp@GLIBC_2.2.5                                /lib/x86_64-linux-gnu/libc.so.6
                                                  /lib/x86_64-linux-gnu/libpthread.so.0
strcoll_l                                         /lib/x86_64-linux-gnu/libc.so.6
strcoll_l@@GLIBC_2.3                              /lib/x86_64-linux-gnu/libc.so.6
strcoll_l@GLIBC_2.3                               /lib/x86_64-linux-gnu/libc.so.6
strdup                                            /lib/x86_64-linux-gnu/libc.so.6
strdup@@GLIBC_2.2.5                               /lib/x86_64-linux-gnu/libc.so.6
strdup@GLIBC_2.2.5                                /lib/x86_64-linux-gnu/libc.so.6
strerror                                          /lib/x86_64-linux-gnu/libc.so.6
                                                  /usr/lib/gcc/x86_64-linux-gnu/4.6/../../../../lib/librte_eal.a(eal_interrupts.o)
                                                  /usr/lib/gcc/x86_64-linux-gnu/4.6/../../../../lib/librte_eal.a(eal_pci.o)
                                                  /usr/lib/gcc/x86_64-linux-gnu/4.6/../../../../lib/librte_eal.a(eal_memory.o)
                                                  /usr/lib/gcc/x86_64-linux-gnu/4.6/../../../../lib/librte_eal.a(eal_hugepage_info.o)
strerror@@GLIBC_2.2.5                             /lib/x86_64-linux-gnu/libc.so.6
strerror@GLIBC_2.2.5                              /lib/x86_64-linux-gnu/libc.so.6
strerror_r                                        /lib/x86_64-linux-gnu/libc.so.6
strerror_r@@GLIBC_2.2.5                           /lib/x86_64-linux-gnu/libc.so.6
strerror_r@GLIBC_2.2.5                            /lib/x86_64-linux-gnu/libc.so.6
strfmon_l                                         /lib/x86_64-linux-gnu/libc.so.6
strfmon_l@@GLIBC_2.3                              /lib/x86_64-linux-gnu/libc.so.6
strfmon_l@GLIBC_2.3                               /lib/x86_64-linux-gnu/libc.so.6
strftime_l                                        /lib/x86_64-linux-gnu/libc.so.6
strftime_l@@GLIBC_2.3                             /lib/x86_64-linux-gnu/libc.so.6
strftime_l@GLIBC_2.3                              /lib/x86_64-linux-gnu/libc.so.6
strncasecmp                                       /lib/x86_64-linux-gnu/libc.so.6
                                                  /usr/lib/gcc/x86_64-linux-gnu/4.6/../../../../lib/librte_eal.a(eal.o)
strncasecmp@@GLIBC_2.2.5                          /lib/x86_64-linux-gnu/libc.so.6
strncasecmp@GLIBC_2.2.5                           /lib/x86_64-linux-gnu/libc.so.6
strncasecmp_l                                     /lib/x86_64-linux-gnu/libc.so.6
strncasecmp_l@@GLIBC_2.3                          /lib/x86_64-linux-gnu/libc.so.6
strncasecmp_l@GLIBC_2.3                           /lib/x86_64-linux-gnu/libc.so.6
strncmp                                           /lib/x86_64-linux-gnu/libc.so.6
                                                  /usr/lib/gcc/x86_64-linux-gnu/4.6/../../../../lib/librte_eal.a(eal_common_whitelist.o)
                                                  /usr/lib/gcc/x86_64-linux-gnu/4.6/../../../../lib/librte_eal.a(eal_common_tailqs.o)
                                                  /usr/lib/gcc/x86_64-linux-gnu/4.6/../../../../lib/librte_eal.a(eal_common_memzone.o)
                                                  /usr/lib/gcc/x86_64-linux-gnu/4.6/../../../../lib/librte_eal.a(eal_lcore.o)
                                                  /usr/lib/gcc/x86_64-linux-gnu/4.6/../../../../lib/librte_eal.a(eal_hugepage_info.o)
                                                  /usr/lib/gcc/x86_64-linux-gnu/4.6/../../../../lib/librte_ring.a(rte_ring.o)
                                                  /usr/lib/gcc/x86_64-linux-gnu/4.6/../../../../lib/librte_mempool.a(rte_mempool.o)
strncmp@@GLIBC_2.2.5                              /lib/x86_64-linux-gnu/libc.so.6
strncmp@GLIBC_2.2.5                               /lib/x86_64-linux-gnu/libc.so.6
strncpy                                           /lib/x86_64-linux-gnu/libc.so.6
                                                  /usr/lib/gcc/x86_64-linux-gnu/4.6/../../../../lib/librte_pmd_virtio.a(virtio_ethdev.o)
strncpy@@GLIBC_2.2.5                              /lib/x86_64-linux-gnu/libc.so.6
strncpy@GLIBC_2.2.5                               /lib/x86_64-linux-gnu/libc.so.6
strndup                                           /lib/x86_64-linux-gnu/libc.so.6
                                                  /usr/lib/gcc/x86_64-linux-gnu/4.6/../../../../lib/librte_eal.a(eal_pci.o)
strndup@@GLIBC_2.2.5                              /lib/x86_64-linux-gnu/libc.so.6
strndup@GLIBC_2.2.5                               /lib/x86_64-linux-gnu/libc.so.6
strnlen                                           /lib/x86_64-linux-gnu/libc.so.6
                                                  /usr/lib/gcc/x86_64-linux-gnu/4.6/../../../../lib/librte_eal.a(eal_common_whitelist.o)
                                                  /usr/lib/gcc/x86_64-linux-gnu/4.6/../../../../lib/librte_eal.a(eal.o)
strnlen@@GLIBC_2.2.5                              /lib/x86_64-linux-gnu/libc.so.6
strnlen@GLIBC_2.2.5                               /lib/x86_64-linux-gnu/libc.so.6
strptime_l                                        /lib/x86_64-linux-gnu/libc.so.6
strptime_l@@GLIBC_2.3.2                           /lib/x86_64-linux-gnu/libc.so.6
strptime_l@GLIBC_2.3.2                            /lib/x86_64-linux-gnu/libc.so.6
strsep                                            /lib/x86_64-linux-gnu/libc.so.6
strsep@@GLIBC_2.2.5                               /lib/x86_64-linux-gnu/libc.so.6
strsep@GLIBC_2.2.5                                /lib/x86_64-linux-gnu/libc.so.6
strstr                                            /lib/x86_64-linux-gnu/libc.so.6
                                                  /usr/lib/gcc/x86_64-linux-gnu/4.6/../../../../lib/librte_eal.a(eal_memory.o)
                                                  /usr/lib/gcc/x86_64-linux-gnu/4.6/../../../../lib/librte_eal.a(eal_hugepage_info.o)
strstr@@GLIBC_2.2.5                               /lib/x86_64-linux-gnu/libc.so.6
strstr@GLIBC_2.2.5                                /lib/x86_64-linux-gnu/libc.so.6
strtod_l                                          /lib/x86_64-linux-gnu/libc.so.6
strtod_l@@GLIBC_2.3                               /lib/x86_64-linux-gnu/libc.so.6
strtod_l@GLIBC_2.3                                /lib/x86_64-linux-gnu/libc.so.6
strtof_l                                          /lib/x86_64-linux-gnu/libc.so.6
strtof_l@@GLIBC_2.3                               /lib/x86_64-linux-gnu/libc.so.6
strtof_l@GLIBC_2.3                                /lib/x86_64-linux-gnu/libc.so.6
strtok_r                                          /lib/x86_64-linux-gnu/libc.so.6
strtok_r@@GLIBC_2.2.5                             /lib/x86_64-linux-gnu/libc.so.6
strtok_r@GLIBC_2.2.5                              /lib/x86_64-linux-gnu/libc.so.6
strtol                                            /lib/x86_64-linux-gnu/libc.so.6
                                                  /usr/lib/gcc/x86_64-linux-gnu/4.6/../../../../lib/librte_eal.a(eal.o)
                                                  main.o
strtol@@GLIBC_2.2.5                               /lib/x86_64-linux-gnu/libc.so.6
strtol@GLIBC_2.2.5                                /lib/x86_64-linux-gnu/libc.so.6
strtol_l                                          /lib/x86_64-linux-gnu/libc.so.6
strtol_l@@GLIBC_2.3                               /lib/x86_64-linux-gnu/libc.so.6
strtol_l@GLIBC_2.3                                /lib/x86_64-linux-gnu/libc.so.6
strtold_l                                         /lib/x86_64-linux-gnu/libc.so.6
strtold_l@@GLIBC_2.3                              /lib/x86_64-linux-gnu/libc.so.6
strtold_l@GLIBC_2.3                               /lib/x86_64-linux-gnu/libc.so.6
strtoll                                           /lib/x86_64-linux-gnu/libc.so.6
strtoll@@GLIBC_2.2.5                              /lib/x86_64-linux-gnu/libc.so.6
strtoll@GLIBC_2.2.5                               /lib/x86_64-linux-gnu/libc.so.6
strtoll_l                                         /lib/x86_64-linux-gnu/libc.so.6
strtoll_l@@GLIBC_2.3.3                            /lib/x86_64-linux-gnu/libc.so.6
strtoll_l@GLIBC_2.3.3                             /lib/x86_64-linux-gnu/libc.so.6
strtoq                                            /lib/x86_64-linux-gnu/libc.so.6
strtoq@@GLIBC_2.2.5                               /lib/x86_64-linux-gnu/libc.so.6
strtoq@GLIBC_2.2.5                                /lib/x86_64-linux-gnu/libc.so.6
strtoul                                           /lib/x86_64-linux-gnu/libc.so.6
                                                  /usr/lib/gcc/x86_64-linux-gnu/4.6/../../../../lib/librte_eal.a(eal_common_whitelist.o)
                                                  /usr/lib/gcc/x86_64-linux-gnu/4.6/../../../../lib/librte_eal.a(eal_lcore.o)
                                                  /usr/lib/gcc/x86_64-linux-gnu/4.6/../../../../lib/librte_eal.a(eal_pci.o)
                                                  /usr/lib/gcc/x86_64-linux-gnu/4.6/../../../../lib/librte_eal.a(eal_memory.o)
                                                  /usr/lib/gcc/x86_64-linux-gnu/4.6/../../../../lib/librte_eal.a(eal.o)
strtoul@@GLIBC_2.2.5                              /lib/x86_64-linux-gnu/libc.so.6
strtoul@GLIBC_2.2.5                               /lib/x86_64-linux-gnu/libc.so.6
strtoul_l                                         /lib/x86_64-linux-gnu/libc.so.6
strtoul_l@@GLIBC_2.3                              /lib/x86_64-linux-gnu/libc.so.6
strtoul_l@GLIBC_2.3                               /lib/x86_64-linux-gnu/libc.so.6
strtoull                                          /lib/x86_64-linux-gnu/libc.so.6
                                                  /usr/lib/gcc/x86_64-linux-gnu/4.6/../../../../lib/librte_eal.a(eal_pci.o)
                                                  /usr/lib/gcc/x86_64-linux-gnu/4.6/../../../../lib/librte_eal.a(eal_memory.o)
                                                  /usr/lib/gcc/x86_64-linux-gnu/4.6/../../../../lib/librte_eal.a(eal_hugepage_info.o)
                                                  /usr/lib/gcc/x86_64-linux-gnu/4.6/../../../../lib/librte_eal.a(eal.o)
                                                  /usr/lib/gcc/x86_64-linux-gnu/4.6/../../../../lib/librte_malloc.a(malloc_heap.o)
strtoull@@GLIBC_2.2.5                             /lib/x86_64-linux-gnu/libc.so.6
strtoull@GLIBC_2.2.5                              /lib/x86_64-linux-gnu/libc.so.6
strtoull_l                                        /lib/x86_64-linux-gnu/libc.so.6
strtoull_l@@GLIBC_2.3.3                           /lib/x86_64-linux-gnu/libc.so.6
strtoull_l@GLIBC_2.3.3                            /lib/x86_64-linux-gnu/libc.so.6
strtouq                                           /lib/x86_64-linux-gnu/libc.so.6
strtouq@@GLIBC_2.2.5                              /lib/x86_64-linux-gnu/libc.so.6
strtouq@GLIBC_2.2.5                               /lib/x86_64-linux-gnu/libc.so.6
strverscmp                                        /lib/x86_64-linux-gnu/libc.so.6
strverscmp@@GLIBC_2.2.5                           /lib/x86_64-linux-gnu/libc.so.6
strverscmp@GLIBC_2.2.5                            /lib/x86_64-linux-gnu/libc.so.6
strxfrm_l                                         /lib/x86_64-linux-gnu/libc.so.6
strxfrm_l@@GLIBC_2.3                              /lib/x86_64-linux-gnu/libc.so.6
strxfrm_l@GLIBC_2.3                               /lib/x86_64-linux-gnu/libc.so.6
swap_mac                                          common.o
                                                  server.o
swapcontext                                       /lib/x86_64-linux-gnu/libc.so.6
swapcontext@@GLIBC_2.2.5                          /lib/x86_64-linux-gnu/libc.so.6
swapcontext@GLIBC_2.2.5                           /lib/x86_64-linux-gnu/libc.so.6
swapoff                                           /lib/x86_64-linux-gnu/libc.so.6
swapoff@@GLIBC_2.2.5                              /lib/x86_64-linux-gnu/libc.so.6
swapoff@GLIBC_2.2.5                               /lib/x86_64-linux-gnu/libc.so.6
swapon                                            /lib/x86_64-linux-gnu/libc.so.6
swapon@@GLIBC_2.2.5                               /lib/x86_64-linux-gnu/libc.so.6
swapon@GLIBC_2.2.5                                /lib/x86_64-linux-gnu/libc.so.6
symlink                                           /lib/x86_64-linux-gnu/libc.so.6
symlink@@GLIBC_2.2.5                              /lib/x86_64-linux-gnu/libc.so.6
symlink@GLIBC_2.2.5                               /lib/x86_64-linux-gnu/libc.so.6
sysconf                                           /lib/x86_64-linux-gnu/libc.so.6
                                                  /usr/lib/gcc/x86_64-linux-gnu/4.6/../../../../lib/librte_eal.a(eal_pci.o)
                                                  /usr/lib/gcc/x86_64-linux-gnu/4.6/../../../../lib/librte_eal.a(eal.o)
sysconf@@GLIBC_2.2.5                              /lib/x86_64-linux-gnu/libc.so.6
sysconf@GLIBC_2.2.5                               /lib/x86_64-linux-gnu/libc.so.6
sysctl                                            /lib/x86_64-linux-gnu/libc.so.6
sysctl@@GLIBC_2.2.5                               /lib/x86_64-linux-gnu/libc.so.6
sysctl@GLIBC_2.2.5                                /lib/x86_64-linux-gnu/libc.so.6
system                                            /lib/x86_64-linux-gnu/libpthread.so.0
                                                  common.o
system@@GLIBC_2.2.5                               /lib/x86_64-linux-gnu/libpthread.so.0
                                                  /lib/x86_64-linux-gnu/libc.so.6
system@GLIBC_2.2.5                                /lib/x86_64-linux-gnu/libpthread.so.0
sysv_signal                                       /lib/x86_64-linux-gnu/libc.so.6
sysv_signal@@GLIBC_2.2.5                          /lib/x86_64-linux-gnu/libc.so.6
sysv_signal@GLIBC_2.2.5                           /lib/x86_64-linux-gnu/libc.so.6
tcdrain                                           /lib/x86_64-linux-gnu/libpthread.so.0
tcdrain@@GLIBC_2.2.5                              /lib/x86_64-linux-gnu/libpthread.so.0
                                                  /lib/x86_64-linux-gnu/libc.so.6
tcdrain@GLIBC_2.2.5                               /lib/x86_64-linux-gnu/libpthread.so.0
tcgetattr                                         /lib/x86_64-linux-gnu/libc.so.6
tcgetattr@@GLIBC_2.2.5                            /lib/x86_64-linux-gnu/libc.so.6
tcgetattr@GLIBC_2.2.5                             /lib/x86_64-linux-gnu/libc.so.6
tdelete                                           /lib/x86_64-linux-gnu/libc.so.6
tdelete@@GLIBC_2.2.5                              /lib/x86_64-linux-gnu/libc.so.6
tdelete@GLIBC_2.2.5                               /lib/x86_64-linux-gnu/libc.so.6
                                                  /lib/x86_64-linux-gnu/libpthread.so.0
tdestroy                                          /lib/x86_64-linux-gnu/libc.so.6
tdestroy@@GLIBC_2.2.5                             /lib/x86_64-linux-gnu/libc.so.6
tdestroy@GLIBC_2.2.5                              /lib/x86_64-linux-gnu/libc.so.6
textdomain                                        /lib/x86_64-linux-gnu/libc.so.6
textdomain@@GLIBC_2.2.5                           /lib/x86_64-linux-gnu/libc.so.6
textdomain@GLIBC_2.2.5                            /lib/x86_64-linux-gnu/libc.so.6
tfind                                             /lib/x86_64-linux-gnu/libc.so.6
tfind@@GLIBC_2.2.5                                /lib/x86_64-linux-gnu/libc.so.6
tfind@GLIBC_2.2.5                                 /lib/x86_64-linux-gnu/libc.so.6
                                                  /lib/x86_64-linux-gnu/libpthread.so.0
timelocal                                         /lib/x86_64-linux-gnu/libc.so.6
timelocal@@GLIBC_2.2.5                            /lib/x86_64-linux-gnu/libc.so.6
timelocal@GLIBC_2.2.5                             /lib/x86_64-linux-gnu/libc.so.6
timerfd_create                                    /lib/x86_64-linux-gnu/libc.so.6
                                                  /usr/lib/gcc/x86_64-linux-gnu/4.6/../../../../lib/librte_eal.a(eal_alarm.o)
timerfd_create@@GLIBC_2.8                         /lib/x86_64-linux-gnu/libc.so.6
timerfd_create@GLIBC_2.8                          /lib/x86_64-linux-gnu/libc.so.6
timerfd_settime                                   /lib/x86_64-linux-gnu/libc.so.6
                                                  /usr/lib/gcc/x86_64-linux-gnu/4.6/../../../../lib/librte_eal.a(eal_alarm.o)
timerfd_settime@@GLIBC_2.8                        /lib/x86_64-linux-gnu/libc.so.6
timerfd_settime@GLIBC_2.8                         /lib/x86_64-linux-gnu/libc.so.6
times                                             /lib/x86_64-linux-gnu/libc.so.6
times@@GLIBC_2.2.5                                /lib/x86_64-linux-gnu/libc.so.6
times@GLIBC_2.2.5                                 /lib/x86_64-linux-gnu/libc.so.6
timezone                                          /lib/x86_64-linux-gnu/libc.so.6
timezone@@GLIBC_2.2.5                             /lib/x86_64-linux-gnu/libc.so.6
timezone@GLIBC_2.2.5                              /lib/x86_64-linux-gnu/libc.so.6
tmpfile64                                         /lib/x86_64-linux-gnu/libc.so.6
tmpfile64@@GLIBC_2.2.5                            /lib/x86_64-linux-gnu/libc.so.6
tmpfile64@GLIBC_2.2.5                             /lib/x86_64-linux-gnu/libc.so.6
tolower_l                                         /lib/x86_64-linux-gnu/libc.so.6
tolower_l@@GLIBC_2.3                              /lib/x86_64-linux-gnu/libc.so.6
tolower_l@GLIBC_2.3                               /lib/x86_64-linux-gnu/libc.so.6
toupper_l                                         /lib/x86_64-linux-gnu/libc.so.6
toupper_l@@GLIBC_2.3                              /lib/x86_64-linux-gnu/libc.so.6
toupper_l@GLIBC_2.3                               /lib/x86_64-linux-gnu/libc.so.6
towctrans                                         /lib/x86_64-linux-gnu/libc.so.6
towctrans@@GLIBC_2.2.5                            /lib/x86_64-linux-gnu/libc.so.6
towctrans@GLIBC_2.2.5                             /lib/x86_64-linux-gnu/libc.so.6
towctrans_l                                       /lib/x86_64-linux-gnu/libc.so.6
towctrans_l@@GLIBC_2.3                            /lib/x86_64-linux-gnu/libc.so.6
towctrans_l@GLIBC_2.3                             /lib/x86_64-linux-gnu/libc.so.6
towlower_l                                        /lib/x86_64-linux-gnu/libc.so.6
towlower_l@@GLIBC_2.3                             /lib/x86_64-linux-gnu/libc.so.6
towlower_l@GLIBC_2.3                              /lib/x86_64-linux-gnu/libc.so.6
towupper_l                                        /lib/x86_64-linux-gnu/libc.so.6
towupper_l@@GLIBC_2.3                             /lib/x86_64-linux-gnu/libc.so.6
towupper_l@GLIBC_2.3                              /lib/x86_64-linux-gnu/libc.so.6
truncate64                                        /lib/x86_64-linux-gnu/libc.so.6
truncate64@@GLIBC_2.2.5                           /lib/x86_64-linux-gnu/libc.so.6
truncate64@GLIBC_2.2.5                            /lib/x86_64-linux-gnu/libc.so.6
tsearch                                           /lib/x86_64-linux-gnu/libc.so.6
tsearch@@GLIBC_2.2.5                              /lib/x86_64-linux-gnu/libc.so.6
tsearch@GLIBC_2.2.5                               /lib/x86_64-linux-gnu/libc.so.6
                                                  /lib/x86_64-linux-gnu/libpthread.so.0
ttyname_r                                         /lib/x86_64-linux-gnu/libc.so.6
ttyname_r@@GLIBC_2.2.5                            /lib/x86_64-linux-gnu/libc.so.6
ttyname_r@GLIBC_2.2.5                             /lib/x86_64-linux-gnu/libc.so.6
twalk                                             /lib/x86_64-linux-gnu/libc.so.6
twalk@@GLIBC_2.2.5                                /lib/x86_64-linux-gnu/libc.so.6
twalk@GLIBC_2.2.5                                 /lib/x86_64-linux-gnu/libc.so.6
                                                  /lib/x86_64-linux-gnu/libpthread.so.0
tzname                                            /lib/x86_64-linux-gnu/libc.so.6
tzname@@GLIBC_2.2.5                               /lib/x86_64-linux-gnu/libc.so.6
tzname@GLIBC_2.2.5                                /lib/x86_64-linux-gnu/libc.so.6
tzset                                             /lib/x86_64-linux-gnu/libc.so.6
tzset@@GLIBC_2.2.5                                /lib/x86_64-linux-gnu/libc.so.6
tzset@GLIBC_2.2.5                                 /lib/x86_64-linux-gnu/libc.so.6
ulckpwdf                                          /lib/x86_64-linux-gnu/libc.so.6
ulckpwdf@@GLIBC_2.2.5                             /lib/x86_64-linux-gnu/libc.so.6
ulckpwdf@GLIBC_2.2.5                              /lib/x86_64-linux-gnu/libc.so.6
ulimit                                            /lib/x86_64-linux-gnu/libc.so.6
ulimit@@GLIBC_2.2.5                               /lib/x86_64-linux-gnu/libc.so.6
ulimit@GLIBC_2.2.5                                /lib/x86_64-linux-gnu/libc.so.6
umask                                             /lib/x86_64-linux-gnu/libc.so.6
umask@@GLIBC_2.2.5                                /lib/x86_64-linux-gnu/libc.so.6
umask@GLIBC_2.2.5                                 /lib/x86_64-linux-gnu/libc.so.6
umount                                            /lib/x86_64-linux-gnu/libc.so.6
umount2                                           /lib/x86_64-linux-gnu/libc.so.6
umount2@@GLIBC_2.2.5                              /lib/x86_64-linux-gnu/libc.so.6
umount2@GLIBC_2.2.5                               /lib/x86_64-linux-gnu/libc.so.6
umount@@GLIBC_2.2.5                               /lib/x86_64-linux-gnu/libc.so.6
umount@GLIBC_2.2.5                                /lib/x86_64-linux-gnu/libc.so.6
uname                                             /lib/x86_64-linux-gnu/libc.so.6
uname@@GLIBC_2.2.5                                /lib/x86_64-linux-gnu/libc.so.6
uname@GLIBC_2.2.5                                 /lib/x86_64-linux-gnu/libc.so.6
ungetc                                            /lib/x86_64-linux-gnu/libc.so.6
ungetc@@GLIBC_2.2.5                               /lib/x86_64-linux-gnu/libc.so.6
ungetc@GLIBC_2.2.5                                /lib/x86_64-linux-gnu/libc.so.6
unlink                                            /lib/x86_64-linux-gnu/libc.so.6
unlink@@GLIBC_2.2.5                               /lib/x86_64-linux-gnu/libc.so.6
unlink@GLIBC_2.2.5                                /lib/x86_64-linux-gnu/libc.so.6
                                                  /lib/x86_64-linux-gnu/libpthread.so.0
                                                  /usr/lib/gcc/x86_64-linux-gnu/4.6/../../../x86_64-linux-gnu/librt.so
unlinkat                                          /lib/x86_64-linux-gnu/libc.so.6
                                                  /usr/lib/gcc/x86_64-linux-gnu/4.6/../../../../lib/librte_eal.a(eal_hugepage_info.o)
unlinkat@@GLIBC_2.4                               /lib/x86_64-linux-gnu/libc.so.6
unlinkat@GLIBC_2.4                                /lib/x86_64-linux-gnu/libc.so.6
unsetenv                                          /lib/x86_64-linux-gnu/libc.so.6
unsetenv@@GLIBC_2.2.5                             /lib/x86_64-linux-gnu/libc.so.6
unsetenv@GLIBC_2.2.5                              /lib/x86_64-linux-gnu/libc.so.6
updwtmp                                           /lib/x86_64-linux-gnu/libc.so.6
updwtmp@@GLIBC_2.2.5                              /lib/x86_64-linux-gnu/libc.so.6
updwtmp@GLIBC_2.2.5                               /lib/x86_64-linux-gnu/libc.so.6
uselocale                                         /lib/x86_64-linux-gnu/libc.so.6
uselocale@@GLIBC_2.3                              /lib/x86_64-linux-gnu/libc.so.6
uselocale@GLIBC_2.3                               /lib/x86_64-linux-gnu/libc.so.6
utimes                                            /lib/x86_64-linux-gnu/libc.so.6
utimes@@GLIBC_2.2.5                               /lib/x86_64-linux-gnu/libc.so.6
utimes@GLIBC_2.2.5                                /lib/x86_64-linux-gnu/libc.so.6
utmpname                                          /lib/x86_64-linux-gnu/libc.so.6
utmpname@@GLIBC_2.2.5                             /lib/x86_64-linux-gnu/libc.so.6
utmpname@GLIBC_2.2.5                              /lib/x86_64-linux-gnu/libc.so.6
valloc                                            /lib/x86_64-linux-gnu/libc.so.6
valloc@@GLIBC_2.2.5                               /lib/x86_64-linux-gnu/libc.so.6
valloc@GLIBC_2.2.5                                /lib/x86_64-linux-gnu/libc.so.6
vasprintf                                         /lib/x86_64-linux-gnu/libc.so.6
vasprintf@@GLIBC_2.2.5                            /lib/x86_64-linux-gnu/libc.so.6
vasprintf@GLIBC_2.2.5                             /lib/x86_64-linux-gnu/libc.so.6
vdprintf                                          /lib/x86_64-linux-gnu/libc.so.6
vdprintf@@GLIBC_2.2.5                             /lib/x86_64-linux-gnu/libc.so.6
vdprintf@GLIBC_2.2.5                              /lib/x86_64-linux-gnu/libc.so.6
versionsort64                                     /lib/x86_64-linux-gnu/libc.so.6
versionsort64@@GLIBC_2.2.5                        /lib/x86_64-linux-gnu/libc.so.6
versionsort64@GLIBC_2.2.5                         /lib/x86_64-linux-gnu/libc.so.6
vfork                                             /lib/x86_64-linux-gnu/libpthread.so.0
vfork@@GLIBC_2.2.5                                /lib/x86_64-linux-gnu/libpthread.so.0
                                                  /lib/x86_64-linux-gnu/libc.so.6
vfork@GLIBC_2.2.5                                 /lib/x86_64-linux-gnu/libpthread.so.0
vfscanf                                           /lib/x86_64-linux-gnu/libc.so.6
vfscanf@@GLIBC_2.2.5                              /lib/x86_64-linux-gnu/libc.so.6
vfscanf@GLIBC_2.2.5                               /lib/x86_64-linux-gnu/libc.so.6
vfwprintf                                         /lib/x86_64-linux-gnu/libc.so.6
vfwprintf@@GLIBC_2.2.5                            /lib/x86_64-linux-gnu/libc.so.6
vfwprintf@GLIBC_2.2.5                             /lib/x86_64-linux-gnu/libc.so.6
vfwscanf                                          /lib/x86_64-linux-gnu/libc.so.6
vfwscanf@@GLIBC_2.2.5                             /lib/x86_64-linux-gnu/libc.so.6
vfwscanf@GLIBC_2.2.5                              /lib/x86_64-linux-gnu/libc.so.6
virtio_dev_queue_setup                            /usr/lib/gcc/x86_64-linux-gnu/4.6/../../../../lib/librte_pmd_virtio.a(virtio_ethdev.o)
                                                  /usr/lib/gcc/x86_64-linux-gnu/4.6/../../../../lib/librte_pmd_virtio.a(virtio_rxtx.o)
virtio_dev_rx_queue_setup                         /usr/lib/gcc/x86_64-linux-gnu/4.6/../../../../lib/librte_pmd_virtio.a(virtio_rxtx.o)
                                                  /usr/lib/gcc/x86_64-linux-gnu/4.6/../../../../lib/librte_pmd_virtio.a(virtio_ethdev.o)
virtio_dev_rxtx_start                             /usr/lib/gcc/x86_64-linux-gnu/4.6/../../../../lib/librte_pmd_virtio.a(virtio_rxtx.o)
                                                  /usr/lib/gcc/x86_64-linux-gnu/4.6/../../../../lib/librte_pmd_virtio.a(virtio_ethdev.o)
virtio_dev_tx_queue_setup                         /usr/lib/gcc/x86_64-linux-gnu/4.6/../../../../lib/librte_pmd_virtio.a(virtio_rxtx.o)
                                                  /usr/lib/gcc/x86_64-linux-gnu/4.6/../../../../lib/librte_pmd_virtio.a(virtio_ethdev.o)
virtio_recv_pkts                                  /usr/lib/gcc/x86_64-linux-gnu/4.6/../../../../lib/librte_pmd_virtio.a(virtio_rxtx.o)
                                                  /usr/lib/gcc/x86_64-linux-gnu/4.6/../../../../lib/librte_pmd_virtio.a(virtio_ethdev.o)
virtio_xmit_pkts                                  /usr/lib/gcc/x86_64-linux-gnu/4.6/../../../../lib/librte_pmd_virtio.a(virtio_rxtx.o)
                                                  /usr/lib/gcc/x86_64-linux-gnu/4.6/../../../../lib/librte_pmd_virtio.a(virtio_ethdev.o)
virtqueue_detatch_unused                          /usr/lib/gcc/x86_64-linux-gnu/4.6/../../../../lib/librte_pmd_virtio.a(virtqueue.o)
                                                  /usr/lib/gcc/x86_64-linux-gnu/4.6/../../../../lib/librte_pmd_virtio.a(virtio_ethdev.o)
virtqueue_disable_intr                            /usr/lib/gcc/x86_64-linux-gnu/4.6/../../../../lib/librte_pmd_virtio.a(virtqueue.o)
                                                  /usr/lib/gcc/x86_64-linux-gnu/4.6/../../../../lib/librte_pmd_virtio.a(virtio_rxtx.o)
vscanf                                            /lib/x86_64-linux-gnu/libc.so.6
vscanf@@GLIBC_2.2.5                               /lib/x86_64-linux-gnu/libc.so.6
vscanf@GLIBC_2.2.5                                /lib/x86_64-linux-gnu/libc.so.6
vsnprintf                                         /lib/x86_64-linux-gnu/libc.so.6
vsnprintf@@GLIBC_2.2.5                            /lib/x86_64-linux-gnu/libc.so.6
vsnprintf@GLIBC_2.2.5                             /lib/x86_64-linux-gnu/libc.so.6
vsprintf                                          /lib/x86_64-linux-gnu/libc.so.6
vsprintf@@GLIBC_2.2.5                             /lib/x86_64-linux-gnu/libc.so.6
vsprintf@GLIBC_2.2.5                              /lib/x86_64-linux-gnu/libc.so.6
vsscanf                                           /lib/x86_64-linux-gnu/libc.so.6
vsscanf@@GLIBC_2.2.5                              /lib/x86_64-linux-gnu/libc.so.6
vsscanf@GLIBC_2.2.5                               /lib/x86_64-linux-gnu/libc.so.6
vswprintf                                         /lib/x86_64-linux-gnu/libc.so.6
vswprintf@@GLIBC_2.2.5                            /lib/x86_64-linux-gnu/libc.so.6
vswprintf@GLIBC_2.2.5                             /lib/x86_64-linux-gnu/libc.so.6
vtpci_get_status                                  /usr/lib/gcc/x86_64-linux-gnu/4.6/../../../../lib/librte_pmd_virtio.a(virtio_pci.o)
vtpci_negotiate_features                          /usr/lib/gcc/x86_64-linux-gnu/4.6/../../../../lib/librte_pmd_virtio.a(virtio_pci.o)
                                                  /usr/lib/gcc/x86_64-linux-gnu/4.6/../../../../lib/librte_pmd_virtio.a(virtio_ethdev.o)
vtpci_read_dev_config                             /usr/lib/gcc/x86_64-linux-gnu/4.6/../../../../lib/librte_pmd_virtio.a(virtio_pci.o)
                                                  /usr/lib/gcc/x86_64-linux-gnu/4.6/../../../../lib/librte_pmd_virtio.a(virtio_ethdev.o)
vtpci_reinit_complete                             /usr/lib/gcc/x86_64-linux-gnu/4.6/../../../../lib/librte_pmd_virtio.a(virtio_pci.o)
                                                  /usr/lib/gcc/x86_64-linux-gnu/4.6/../../../../lib/librte_pmd_virtio.a(virtio_ethdev.o)
vtpci_reset                                       /usr/lib/gcc/x86_64-linux-gnu/4.6/../../../../lib/librte_pmd_virtio.a(virtio_pci.o)
                                                  /usr/lib/gcc/x86_64-linux-gnu/4.6/../../../../lib/librte_pmd_virtio.a(virtio_ethdev.o)
vtpci_set_status                                  /usr/lib/gcc/x86_64-linux-gnu/4.6/../../../../lib/librte_pmd_virtio.a(virtio_pci.o)
                                                  /usr/lib/gcc/x86_64-linux-gnu/4.6/../../../../lib/librte_pmd_virtio.a(virtio_ethdev.o)
vtpci_write_dev_config                            /usr/lib/gcc/x86_64-linux-gnu/4.6/../../../../lib/librte_pmd_virtio.a(virtio_pci.o)
                                                  /usr/lib/gcc/x86_64-linux-gnu/4.6/../../../../lib/librte_pmd_virtio.a(virtio_ethdev.o)
wait                                              /lib/x86_64-linux-gnu/libpthread.so.0
wait3                                             /lib/x86_64-linux-gnu/libc.so.6
wait3@@GLIBC_2.2.5                                /lib/x86_64-linux-gnu/libc.so.6
wait3@GLIBC_2.2.5                                 /lib/x86_64-linux-gnu/libc.so.6
wait4                                             /lib/x86_64-linux-gnu/libc.so.6
wait4@@GLIBC_2.2.5                                /lib/x86_64-linux-gnu/libc.so.6
wait4@GLIBC_2.2.5                                 /lib/x86_64-linux-gnu/libc.so.6
wait@@GLIBC_2.2.5                                 /lib/x86_64-linux-gnu/libpthread.so.0
                                                  /lib/x86_64-linux-gnu/libc.so.6
wait@GLIBC_2.2.5                                  /lib/x86_64-linux-gnu/libpthread.so.0
waitid                                            /lib/x86_64-linux-gnu/libc.so.6
waitid@@GLIBC_2.2.5                               /lib/x86_64-linux-gnu/libc.so.6
waitid@GLIBC_2.2.5                                /lib/x86_64-linux-gnu/libc.so.6
waitpid                                           /lib/x86_64-linux-gnu/libpthread.so.0
waitpid@@GLIBC_2.2.5                              /lib/x86_64-linux-gnu/libpthread.so.0
                                                  /lib/x86_64-linux-gnu/libc.so.6
waitpid@GLIBC_2.2.5                               /lib/x86_64-linux-gnu/libpthread.so.0
wcpcpy                                            /lib/x86_64-linux-gnu/libc.so.6
wcpcpy@@GLIBC_2.2.5                               /lib/x86_64-linux-gnu/libc.so.6
wcpcpy@GLIBC_2.2.5                                /lib/x86_64-linux-gnu/libc.so.6
wcpncpy                                           /lib/x86_64-linux-gnu/libc.so.6
wcpncpy@@GLIBC_2.2.5                              /lib/x86_64-linux-gnu/libc.so.6
wcpncpy@GLIBC_2.2.5                               /lib/x86_64-linux-gnu/libc.so.6
wcrtomb                                           /lib/x86_64-linux-gnu/libc.so.6
wcrtomb@@GLIBC_2.2.5                              /lib/x86_64-linux-gnu/libc.so.6
wcrtomb@GLIBC_2.2.5                               /lib/x86_64-linux-gnu/libc.so.6
wcscasecmp                                        /lib/x86_64-linux-gnu/libc.so.6
wcscasecmp@@GLIBC_2.2.5                           /lib/x86_64-linux-gnu/libc.so.6
wcscasecmp@GLIBC_2.2.5                            /lib/x86_64-linux-gnu/libc.so.6
wcscasecmp_l                                      /lib/x86_64-linux-gnu/libc.so.6
wcscasecmp_l@@GLIBC_2.3                           /lib/x86_64-linux-gnu/libc.so.6
wcscasecmp_l@GLIBC_2.3                            /lib/x86_64-linux-gnu/libc.so.6
wcscat                                            /lib/x86_64-linux-gnu/libc.so.6
wcscat@@GLIBC_2.2.5                               /lib/x86_64-linux-gnu/libc.so.6
wcscat@GLIBC_2.2.5                                /lib/x86_64-linux-gnu/libc.so.6
wcschrnul                                         /lib/x86_64-linux-gnu/libc.so.6
wcschrnul@@GLIBC_2.2.5                            /lib/x86_64-linux-gnu/libc.so.6
wcschrnul@GLIBC_2.2.5                             /lib/x86_64-linux-gnu/libc.so.6
wcscoll                                           /lib/x86_64-linux-gnu/libc.so.6
wcscoll@@GLIBC_2.2.5                              /lib/x86_64-linux-gnu/libc.so.6
wcscoll@GLIBC_2.2.5                               /lib/x86_64-linux-gnu/libc.so.6
wcscoll_l                                         /lib/x86_64-linux-gnu/libc.so.6
wcscoll_l@@GLIBC_2.3                              /lib/x86_64-linux-gnu/libc.so.6
wcscoll_l@GLIBC_2.3                               /lib/x86_64-linux-gnu/libc.so.6
wcsftime_l                                        /lib/x86_64-linux-gnu/libc.so.6
wcsftime_l@@GLIBC_2.3                             /lib/x86_64-linux-gnu/libc.so.6
wcsftime_l@GLIBC_2.3                              /lib/x86_64-linux-gnu/libc.so.6
wcslen                                            /lib/x86_64-linux-gnu/libc.so.6
wcslen@@GLIBC_2.2.5                               /lib/x86_64-linux-gnu/libc.so.6
wcslen@GLIBC_2.2.5                                /lib/x86_64-linux-gnu/libc.so.6
wcsncasecmp                                       /lib/x86_64-linux-gnu/libc.so.6
wcsncasecmp@@GLIBC_2.2.5                          /lib/x86_64-linux-gnu/libc.so.6
wcsncasecmp@GLIBC_2.2.5                           /lib/x86_64-linux-gnu/libc.so.6
wcsncasecmp_l                                     /lib/x86_64-linux-gnu/libc.so.6
wcsncasecmp_l@@GLIBC_2.3                          /lib/x86_64-linux-gnu/libc.so.6
wcsncasecmp_l@GLIBC_2.3                           /lib/x86_64-linux-gnu/libc.so.6
wcsncpy                                           /lib/x86_64-linux-gnu/libc.so.6
wcsncpy@@GLIBC_2.2.5                              /lib/x86_64-linux-gnu/libc.so.6
wcsncpy@GLIBC_2.2.5                               /lib/x86_64-linux-gnu/libc.so.6
wcsnlen                                           /lib/x86_64-linux-gnu/libc.so.6
wcsnlen@@GLIBC_2.2.5                              /lib/x86_64-linux-gnu/libc.so.6
wcsnlen@GLIBC_2.2.5                               /lib/x86_64-linux-gnu/libc.so.6
wcsnrtombs                                        /lib/x86_64-linux-gnu/libc.so.6
wcsnrtombs@@GLIBC_2.2.5                           /lib/x86_64-linux-gnu/libc.so.6
wcsnrtombs@GLIBC_2.2.5                            /lib/x86_64-linux-gnu/libc.so.6
wcsrtombs                                         /lib/x86_64-linux-gnu/libc.so.6
wcsrtombs@@GLIBC_2.2.5                            /lib/x86_64-linux-gnu/libc.so.6
wcsrtombs@GLIBC_2.2.5                             /lib/x86_64-linux-gnu/libc.so.6
wcstod_l                                          /lib/x86_64-linux-gnu/libc.so.6
wcstod_l@@GLIBC_2.3                               /lib/x86_64-linux-gnu/libc.so.6
wcstod_l@GLIBC_2.3                                /lib/x86_64-linux-gnu/libc.so.6
wcstof_l                                          /lib/x86_64-linux-gnu/libc.so.6
wcstof_l@@GLIBC_2.3                               /lib/x86_64-linux-gnu/libc.so.6
wcstof_l@GLIBC_2.3                                /lib/x86_64-linux-gnu/libc.so.6
wcstol_l                                          /lib/x86_64-linux-gnu/libc.so.6
wcstol_l@@GLIBC_2.3                               /lib/x86_64-linux-gnu/libc.so.6
wcstol_l@GLIBC_2.3                                /lib/x86_64-linux-gnu/libc.so.6
wcstold_l                                         /lib/x86_64-linux-gnu/libc.so.6
wcstold_l@@GLIBC_2.3                              /lib/x86_64-linux-gnu/libc.so.6
wcstold_l@GLIBC_2.3                               /lib/x86_64-linux-gnu/libc.so.6
wcstoll                                           /lib/x86_64-linux-gnu/libc.so.6
wcstoll@@GLIBC_2.2.5                              /lib/x86_64-linux-gnu/libc.so.6
wcstoll@GLIBC_2.2.5                               /lib/x86_64-linux-gnu/libc.so.6
wcstoll_l                                         /lib/x86_64-linux-gnu/libc.so.6
wcstoll_l@@GLIBC_2.3                              /lib/x86_64-linux-gnu/libc.so.6
wcstoll_l@GLIBC_2.3                               /lib/x86_64-linux-gnu/libc.so.6
wcstoq                                            /lib/x86_64-linux-gnu/libc.so.6
wcstoq@@GLIBC_2.2.5                               /lib/x86_64-linux-gnu/libc.so.6
wcstoq@GLIBC_2.2.5                                /lib/x86_64-linux-gnu/libc.so.6
wcstoul_l                                         /lib/x86_64-linux-gnu/libc.so.6
wcstoul_l@@GLIBC_2.3                              /lib/x86_64-linux-gnu/libc.so.6
wcstoul_l@GLIBC_2.3                               /lib/x86_64-linux-gnu/libc.so.6
wcstoull                                          /lib/x86_64-linux-gnu/libc.so.6
wcstoull@@GLIBC_2.2.5                             /lib/x86_64-linux-gnu/libc.so.6
wcstoull@GLIBC_2.2.5                              /lib/x86_64-linux-gnu/libc.so.6
wcstoull_l                                        /lib/x86_64-linux-gnu/libc.so.6
wcstoull_l@@GLIBC_2.3                             /lib/x86_64-linux-gnu/libc.so.6
wcstoull_l@GLIBC_2.3                              /lib/x86_64-linux-gnu/libc.so.6
wcstouq                                           /lib/x86_64-linux-gnu/libc.so.6
wcstouq@@GLIBC_2.2.5                              /lib/x86_64-linux-gnu/libc.so.6
wcstouq@GLIBC_2.2.5                               /lib/x86_64-linux-gnu/libc.so.6
wcswcs                                            /lib/x86_64-linux-gnu/libc.so.6
wcswcs@@GLIBC_2.2.5                               /lib/x86_64-linux-gnu/libc.so.6
wcswcs@GLIBC_2.2.5                                /lib/x86_64-linux-gnu/libc.so.6
wcsxfrm_l                                         /lib/x86_64-linux-gnu/libc.so.6
wcsxfrm_l@@GLIBC_2.3                              /lib/x86_64-linux-gnu/libc.so.6
wcsxfrm_l@GLIBC_2.3                               /lib/x86_64-linux-gnu/libc.so.6
wctrans                                           /lib/x86_64-linux-gnu/libc.so.6
wctrans@@GLIBC_2.2.5                              /lib/x86_64-linux-gnu/libc.so.6
wctrans@GLIBC_2.2.5                               /lib/x86_64-linux-gnu/libc.so.6
wctrans_l                                         /lib/x86_64-linux-gnu/libc.so.6
wctrans_l@@GLIBC_2.3                              /lib/x86_64-linux-gnu/libc.so.6
wctrans_l@GLIBC_2.3                               /lib/x86_64-linux-gnu/libc.so.6
wctype                                            /lib/x86_64-linux-gnu/libc.so.6
wctype@@GLIBC_2.2.5                               /lib/x86_64-linux-gnu/libc.so.6
wctype@GLIBC_2.2.5                                /lib/x86_64-linux-gnu/libc.so.6
wctype_l                                          /lib/x86_64-linux-gnu/libc.so.6
wctype_l@@GLIBC_2.3                               /lib/x86_64-linux-gnu/libc.so.6
wctype_l@GLIBC_2.3                                /lib/x86_64-linux-gnu/libc.so.6
wmemcpy                                           /lib/x86_64-linux-gnu/libc.so.6
wmemcpy@@GLIBC_2.2.5                              /lib/x86_64-linux-gnu/libc.so.6
wmemcpy@GLIBC_2.2.5                               /lib/x86_64-linux-gnu/libc.so.6
wmemmove                                          /lib/x86_64-linux-gnu/libc.so.6
wmemmove@@GLIBC_2.2.5                             /lib/x86_64-linux-gnu/libc.so.6
wmemmove@GLIBC_2.2.5                              /lib/x86_64-linux-gnu/libc.so.6
wmempcpy                                          /lib/x86_64-linux-gnu/libc.so.6
wmempcpy@@GLIBC_2.2.5                             /lib/x86_64-linux-gnu/libc.so.6
wmempcpy@GLIBC_2.2.5                              /lib/x86_64-linux-gnu/libc.so.6
write                                             /lib/x86_64-linux-gnu/libpthread.so.0
                                                  /usr/lib/gcc/x86_64-linux-gnu/4.6/../../../../lib/librte_eal.a(eal_interrupts.o)
                                                  /usr/lib/gcc/x86_64-linux-gnu/4.6/../../../../lib/librte_eal.a(eal_thread.o)
write@@GLIBC_2.2.5                                /lib/x86_64-linux-gnu/libpthread.so.0
                                                  /lib/x86_64-linux-gnu/libc.so.6
write@GLIBC_2.2.5                                 /lib/x86_64-linux-gnu/libpthread.so.0
                                                  /usr/lib/gcc/x86_64-linux-gnu/4.6/../../../x86_64-linux-gnu/librt.so
writev                                            /lib/x86_64-linux-gnu/libc.so.6
writev@@GLIBC_2.2.5                               /lib/x86_64-linux-gnu/libc.so.6
writev@GLIBC_2.2.5                                /lib/x86_64-linux-gnu/libc.so.6
